GAS LISTING hifive1.s 			page 1


   1              	# -----------------------------------------------------------------------------
   2              	# Memory map for Flash and RAM
   3              	# -----------------------------------------------------------------------------
   4              	
   5              	.equ RamStart, 0x80000000 # Start of RAM          Porting: Change this !
   6              	.equ RamEnd,   0x80004000 # End   of RAM.  16 kb. Porting: Change this !
   7              	
   8              	.equ FlashStart, 0x20400000 # Start of Flash          Porting: Change this !
   9              	.equ FlashEnd,   0x20410000 # End   of Flash.  64 kb. Porting: Change this !
  10              	
  11              	.equ datastack_size, 128  # (32*cellsize)
  12              	.equ returnstack_size, 128 # 32*cellsize
  13              	.equ refill_buf_size, 96
  14              	.equ appl_userarea_size, 2*cellsize
  15              	.equ leavestack_size, 8*cellsize
  16              	
  17              	.equ WANT_IGNORECASE, 1
  18              	
  19              	# -----------------------------------------------------------------------------
  20              	# Core start
  21              	# -----------------------------------------------------------------------------
  22              	
  23              	.include "amforth.s"
   1              	
   2              	.text
   3              	.global PFA_COLD
   4 0000 6F001078 	  j PFA_COLD
   5              	
   6              	
   7              	.include "macros.s"
   1              	
   2              	# macros
   3              	#   x2/SP RSP Return Stack Pointer
   4              	#   x3 TOS Top Of Stack
   5              	#   x4 DSP Data Stack Pointer
   6              	#   x5 temp 
   7              	#   x6 temp
   8              	#   x7 temp
   9              	#   x8 loop index
  10              	#   x9 loop limit
  11              	#   x10..x15 temp
  12              	#   x16 IP  Forth VM IP register (ITC Instruction Pointer)
  13              	#   x17 W   Forth VM W register
  14              	#   x18 user pointer UP
  15              	
  16              	.macro NEXT
  17              	    j DO_NEXT
  18              	.endm
  19              	
  20              	.macro savetos
  21              	  addi x4, x4, -4
  22              	  sw x3, 0(x4)
  23              	.endm
  24              	
  25              	.macro loadtos
  26              	  lw x3, 0(x4)
  27              	  addi x4,x4,4
GAS LISTING hifive1.s 			page 2


  28              	.endm
  29              	
  30              	.macro push register
  31              	  addi sp, sp, -4
  32              	  sw \register, 0(sp)
  33              	.endm
  34              	
  35              	.macro pop register
  36              	  lw \register, 0(sp)
  37              	  addi sp, sp, 4
  38              	.endm
  39              	
  40              	.macro pushdouble register1 register2
  41              	  addi sp, sp, -8  
  42              	  sw \register1, 4(sp)
  43              	  sw \register2, 0(sp)  
  44              	.endm
  45              	
  46              	.macro popdouble register1 register2
  47              	  lw \register1, 4(sp)
  48              	  lw \register2, 0(sp)
  49              	  addi x4, x4, 8
  50              	.endm
  51              	
  52              	.macro pushda register # Push register on Datastack
  53              	  savetos
  54              	  mv x3, \register    
  55              	.endm
  56              	
  57              	.macro popda register # Pop register from Datastack
  58              	  mv \register, x3
  59              	  loadtos
  60              	.endm
  61              	
  62              	.macro pushdadouble register1 register2 # Push register on Datastack
  63              	  addi x4, x4, -8
  64              	  sw x3, 4(x4)
  65              	  sw \register1, 0(x4)
  66              	  mv x3, \register2
  67              	.endm
  68              	
  69              	.macro popdadouble register1 register2 # Pop register from Datastack
  70              	  mv \register1, x3
  71              	  lw \register2, 0(x4)
  72              	  lw x3, 4(x4)
  73              	  addi x4, x4, 8
  74              	.endm
  75              	
  76              	
  77              	# start of flash dictionary. The 0 is the stop marker
  78              	.macro STARTDICT
  79              	.text
  80              	.word 0
  81              	97: # riscv-wordlist
  82              	98: # environment
  83              	99: # forth-wordlist
  84              	.endm
GAS LISTING hifive1.s 			page 3


  85              	
  86              	# save the beginning of the wordlists
  87              	.macro ENDDICT
  88              	VALUE "riscv-wordlist", RISCV_WORDLIST, 97b
  89              	VALUE "environment", ENVIRONMENT, 98b
  90              	VALUE "forth-wordlist", FORTH_WORDLIST, 99b
  91              	.set DPSTART, 99b
  92              	.equ HERESTART, rampointer
  93              	.endm
  94              	
  95              	.macro STRING string
  96              	    .word XT_DOSLITERAL
  97              	    .byte 8f - 7f
  98              	7:  .ascii "\string"
  99              	8:  .p2align 2,0x0f
 100              	.endm
 101              	
 102              	.macro ramallot Name, Length 
 103              	  .equ RAM_lower_\Name, rampointer     # \Name at
 104              	  .set rampointer, rampointer + \Length
 105              	  .equ RAM_upper_\Name, rampointer     # \Name at
 106              	.endm
 107              	
 108              	.equ Flag_invisible,  0xFFFFFFFF
 109              	.equ Flag_visible,    0x00000000
 110              	
 111              	.equ Flag_immediate,  0x0010
 112              	.equ Flag_value,      0x0020
 113              	.equ Flag_defer,      0x0040
 114              	.equ Flag_init,       0x0080
 115              	
 116              	.equ Flag_ramallot,   Flag_visible | 0x0100      # Ramallot means that RAM is reserved and initiali
 117              	.equ Flag_variable,   Flag_ramallot| 1           # How many 32 bit locations shall be reserved ?
 118              	.equ Flag_2variable,  Flag_ramallot| 2
 119              	
 120              	.macro HEADER Flags, Name, Label, PFA
 121              	    .p2align 2,0x55
 122              	VE_\Label:
 123              	    .word 99b         # Insert Link
 124              	99: .word \Flags      # Flag field
 125              	    .byte 8f - 7f     # Calculate length of name field
 126              	7:  .ascii "\Name"    # Insert name string
 127              	8:  .p2align 2,0xaa   # Realign
 128              	   XT_\Label: .word \PFA
 129              	   PFA_\Label: 
 130              	.endm
 131              	
 132              	.macro CODEWORD Name, Label
 133              	    HEADER Flag_visible, "\Name", \Label, PFA_\Label
 134              	.endm
 135              	
 136              	.macro HEADLESS Label
 137              	   XT_\Label: .word PFA_\Label
 138              	   PFA_\Label: 
 139              	.endm
 140              	
 141              	.macro COLON Name, Label
GAS LISTING hifive1.s 			page 4


 142              	    HEADER Flag_visible, "\Name", \Label, DOCOLON
 143              	.endm
 144              	
 145              	.macro NONAME Label
 146              	   XT_\Label: .word DOCOLON
 147              	   PFA_\Label: 
 148              	.endm
 149              	
 150              	.macro IMMED Name, Label
 151              	    HEADER Flag_visible|Flag_immediate, \Name, \Label, DOCOLON
 152              	.endm
 153              	
 154              	.macro VARIABLE Name, Label
 155              	   HEADER Flag_visible|Flag_variable, "\Name", \Label, PFA_DOVARIABLE
 156              	   .word rampointer
 157              	   .set rampointer, rampointer+4
 158              	.endm
 159              	
 160              	.macro DVARIABLE Name, Label
 161              	   HEADER Flag_visible|Flag_variable, "\Name", \Label, PFA_DOVARIABLE
 162              	   .word rampointer
 163              	   .set rampointer, rampointer+2*cellsize
 164              	.endm
 165              	
 166              	.macro USER Name, Label, UOffset
 167              	   HEADER Flag_visible|Flag_variable, "\Name", \Label, PFA_DOUSER
 168              	   .word \UOffset
 169              	   .equ USER_\Label,\UOffset # for listing
 170              	.endm
 171              	
 172              	.macro VALUE Name, Label, Default
 173              	    HEADER Flag_visible|Flag_value|Flag_init, "\Name", \Label, PFA_DOVALUE
 174              	   .word rampointer
 175              	    .equ RAM_\Label,rampointer # for listing
 176              	   .set rampointer, rampointer+4
 177              	   .word \Default
 178              	   .word XT_FETCH
 179              	   .word XT_STORE
 180              	.endm
 181              	
 182              	.macro DEFER Name, Label, XT
 183              	    HEADER Flag_visible|Flag_defer|Flag_init, "\Name", \Label, PFA_DODEFER
 184              	   .word rampointer
 185              	    .equ DEFER_RAM_\Label,rampointer # for listing
 186              	   .set rampointer, rampointer+4
 187              	   .word \XT
 188              	   .word XT_FETCH
 189              	   .word XT_STORE
 190              	.endm
 191              	
 192              	.macro CONSTANT Name, Label, NUM
 193              	    HEADER Flag_visible, "\Name", \Label, PFA_DOVARIABLE
 194              	    .word \NUM
 195              	.endm
 196              	
 197              	.macro DATA Name, Label
 198              	    HEADER Flag_visible, "\Name", \Label, PFA_DODATA
GAS LISTING hifive1.s 			page 5


 199              	.endm
 200              	
 201              	
 202              	# ===================
 203              	# environment contains colon words only
 204              	# ===================
 205              	
 206              	.macro ENVIRONMENT Name, Label
 207              	    .p2align 2,0xf0
 208              	VE_ENV_\Label:
 209              	    .word 98b          # Insert Link
 210              	98:
 211              	    .word Flag_visible      # Flag field
 212              	
 213              	    .byte 8f - 7f     # Calculate length of name field
 214              	7:  .ascii "\Name"    # Insert name string
 215              	8:  .p2align 2,0xf0        # Realign
 216              	
 217              	   XT_ENV_\Label: .word DOCOLON
 218              	   PFA_ENV_\Label:
 219              	.endm
 220              	
 221              	# =====================
 222              	# CSR are RISC-V specific registers
 223              	# =====================
 224              	
 225              	.macro CSR NUM, Name
 226              	    .p2align 2,0xf0
 227              	VE_CSR_\Name:
 228              	    .word 97b               # Insert Link
 229              	97: .word Flag_visible      # Flag field
 230              	
 231              	    .byte 8f - 7f     # Calculate length of name field
 232              	7:  .ascii "\Name"    # Insert name string
 233              	8:  .p2align 2,0xf0   # Realign
 234              	
 235              	   XT_CSR_\Name: .word PFA_CSR_\Name
 236              	   PFA_CSR_\Name:
 237              	     savetos
 238              	     csrr x3, \NUM
 239              	   NEXT
 240              	.endm
   8              	
   9              	.include "preamble.inc"
   1              	
   2              	# initial setup of assembly variables and settings
   3              	
   4              	.set rampointer, RamStart  
   5              	
   6              	.equ cellsize, 4
   7              	
   8              	.set sys_userarea_size, 32*cellsize
   9              	
  10              	.set userarea_size, sys_userarea_size+appl_userarea_size
  11              	
  12              	ramallot datastack, datastack_size
  12              	>  .equ RAM_lower_datastack,rampointer
GAS LISTING hifive1.s 			page 6


  12              	>  .set rampointer,rampointer+datastack_size
  12              	>  .equ RAM_upper_datastack,rampointer
  13              	ramallot returnstack, returnstack_size
  13              	>  .equ RAM_lower_returnstack,rampointer
  13              	>  .set rampointer,rampointer+returnstack_size
  13              	>  .equ RAM_upper_returnstack,rampointer
  14              	ramallot refill_buf, refill_buf_size
  14              	>  .equ RAM_lower_refill_buf,rampointer
  14              	>  .set rampointer,rampointer+refill_buf_size
  14              	>  .equ RAM_upper_refill_buf,rampointer
  15              	ramallot userarea, userarea_size
  15              	>  .equ RAM_lower_userarea,rampointer
  15              	>  .set rampointer,rampointer+userarea_size
  15              	>  .equ RAM_upper_userarea,rampointer
  16              	ramallot leavestack, leavestack_size
  16              	>  .equ RAM_lower_leavestack,rampointer
  16              	>  .set rampointer,rampointer+leavestack_size
  16              	>  .equ RAM_upper_leavestack,rampointer
  10              	.include "user.inc"
   1              	
   2              	.equ USER_STATE, 0
   3              	.equ USER_FOLLOWER, 1*cellsize
   4              	
   5              	.equ USER_RP, 2*cellsize
   6              	.equ USER_SP0, 3*cellsize
   7              	.equ USER_SP, 4*cellsize
   8              	.equ USER_HANDLER, 5*cellsize
   9              	.equ USER_BASE, 6*cellsize
  11              	
  12              	STARTDICT
  12              	> .text
  12 0004 00000000 	> .word 0
  12              	> 97:
  12              	> 98:
  12              	> 99:
  13              	
  14              	.include "dict_prims.inc"
   1              	#
   2              	# all primitves / code words
   3              	# they are placed close together to
   4              	# maximize cache usage
   5              	#
   6              	
   7              	.include "words/exit.s"
   1              	
   2              	CODEWORD "exit", EXIT
   2              	>  HEADER Flag_visible,"exit",EXIT,PFA_EXIT
   2              	>>  .p2align 2,0x55
   2              	>> VE_EXIT:
   2 0008 00000000 	>>  .word 99b
   2 000c 00000000 	>> 99:.word Flag_visible
   2 0010 00       	>>  .byte 8f-7f
   2 0011 65786974 	>> 7:.ascii "exit"
   2 0015 AAAAAA   	>> 8:.p2align 2,0xaa
   2 0018 00000000 	>>  XT_EXIT:.word PFA_EXIT
   2              	>>  PFA_EXIT:
   3              	  pop x16   # IP
GAS LISTING hifive1.s 			page 7


   3 001c 03280100 	>  lw x16,0(sp)
   3 0020 13014100 	>  addi sp,sp,4
   4              	  NEXT
   4 0024 6F00406B 	>  j DO_NEXT
   8              	
   9              	.include "words/drop.s"
   1              	
   2              	CODEWORD "drop", DROP
   2              	>  HEADER Flag_visible,"drop",DROP,PFA_DROP
   2              	>>  .p2align 2,0x55
   2              	>> VE_DROP:
   2 0028 00000000 	>>  .word 99b
   2 002c 00000000 	>> 99:.word Flag_visible
   2 0030 00       	>>  .byte 8f-7f
   2 0031 64726F70 	>> 7:.ascii "drop"
   2 0035 AAAAAA   	>> 8:.p2align 2,0xaa
   2 0038 00000000 	>>  XT_DROP:.word PFA_DROP
   2              	>>  PFA_DROP:
   3 003c 83210200 	  lw x3, 0(x4)
   4 0040 13024200 	  addi x4, x4, 4
   5              	  NEXT
   5 0044 6F004069 	>  j DO_NEXT
  10              	.include "words/swap.s"
   1              	CODEWORD "swap", SWAP # some comment
   1              	>  HEADER Flag_visible,"swap",SWAP,PFA_SWAP
   1              	>>  .p2align 2,0x55
   1              	>> VE_SWAP:
   1 0048 00000000 	>>  .word 99b
   1 004c 00000000 	>> 99:.word Flag_visible
   1 0050 00       	>>  .byte 8f-7f
   1 0051 73776170 	>> 7:.ascii "swap"
   1 0055 AAAAAA   	>> 8:.p2align 2,0xaa
   1 0058 00000000 	>>  XT_SWAP:.word PFA_SWAP
   1              	>>  PFA_SWAP:
   2 005c 93820100 	  mv x5, x3
   3 0060 83210200 	  lw x3, 0(x4)
   4 0064 23205200 	  sw x5, 0(x4)
   5              	  NEXT
   5 0068 6F000067 	>  j DO_NEXT
  11              	.include "words/dup.s"
   1              	
   2              	CODEWORD "dup", DUP
   2              	>  HEADER Flag_visible,"dup",DUP,PFA_DUP
   2              	>>  .p2align 2,0x55
   2              	>> VE_DUP:
   2 006c 00000000 	>>  .word 99b
   2 0070 00000000 	>> 99:.word Flag_visible
   2 0074 00       	>>  .byte 8f-7f
   2 0075 647570   	>> 7:.ascii "dup"
   2              	>> 8:.p2align 2,0xaa
   2 0078 00000000 	>>  XT_DUP:.word PFA_DUP
   2              	>>  PFA_DUP:
   3 007c 1302C2FF 	  addi x4, x4, -4
   4 0080 23203200 	  sw x3, 0(x4)
   5              	  NEXT
   5 0084 6F004065 	>  j DO_NEXT
  12              	.include "words/nip.s"
GAS LISTING hifive1.s 			page 8


   1              	CODEWORD "nip", NIP # some comment
   1              	>  HEADER Flag_visible,"nip",NIP,PFA_NIP
   1              	>>  .p2align 2,0x55
   1              	>> VE_NIP:
   1 0088 00000000 	>>  .word 99b
   1 008c 00000000 	>> 99:.word Flag_visible
   1 0090 00       	>>  .byte 8f-7f
   1 0091 6E6970   	>> 7:.ascii "nip"
   1              	>> 8:.p2align 2,0xaa
   1 0094 00000000 	>>  XT_NIP:.word PFA_NIP
   1              	>>  PFA_NIP:
   2 0098 13024200 	  addi x4, x4, 4
   3              	  NEXT
   3 009c 6F00C063 	>  j DO_NEXT
  13              	.include "words/over.s"
   1              	CODEWORD "over",OVER # some comment
   1              	>  HEADER Flag_visible,"over",OVER,PFA_OVER
   1              	>>  .p2align 2,0x55
   1              	>> VE_OVER:
   1 00a0 00000000 	>>  .word 99b
   1 00a4 00000000 	>> 99:.word Flag_visible
   1 00a8 00       	>>  .byte 8f-7f
   1 00a9 6F766572 	>> 7:.ascii "over"
   1 00ad AAAAAA   	>> 8:.p2align 2,0xaa
   1 00b0 00000000 	>>  XT_OVER:.word PFA_OVER
   1              	>>  PFA_OVER:
   2 00b4 1302C2FF 	  addi x4, x4, -4
   3 00b8 23203200 	  sw x3, 0(x4)
   4 00bc 83214200 	  lw x3, 4(x4)
   5              	  NEXT
   5 00c0 6F008061 	>  j DO_NEXT
  14              	.include "words/rot.s"
   1              	# -----------------------------------------------------------------------------
   2              	  CODEWORD "rot",ROT # ( x w y -- w y x )
   2              	>  HEADER Flag_visible,"rot",ROT,PFA_ROT
   2              	>>  .p2align 2,0x55
   2              	>> VE_ROT:
   2 00c4 00000000 	>>  .word 99b
   2 00c8 00000000 	>> 99:.word Flag_visible
   2 00cc 00       	>>  .byte 8f-7f
   2 00cd 726F74   	>> 7:.ascii "rot"
   2              	>> 8:.p2align 2,0xaa
   2 00d0 00000000 	>>  XT_ROT:.word PFA_ROT
   2              	>>  PFA_ROT:
   3              	# -----------------------------------------------------------------------------
   4 00d4 83220200 	  lw x5, 0(x4)
   5 00d8 03234200 	  lw x6, 4(x4)
   6 00dc 23203200 	  sw x3, 0(x4)
   7 00e0 23225200 	  sw x5, 4(x4)
   8 00e4 93010300 	  mv x3, x6
   9              	  NEXT
   9 00e8 6F00005F 	>  j DO_NEXT
  15              	.include "words/q-dup.s"
   1              	# -----------------------------------------------------------------------------
   2              	  CODEWORD "?dup", QDUP # ( x -- 0 | x x )
   2              	>  HEADER Flag_visible,"?dup",QDUP,PFA_QDUP
   2              	>>  .p2align 2,0x55
GAS LISTING hifive1.s 			page 9


   2              	>> VE_QDUP:
   2 00ec 00000000 	>>  .word 99b
   2 00f0 00000000 	>> 99:.word Flag_visible
   2 00f4 00       	>>  .byte 8f-7f
   2 00f5 3F647570 	>> 7:.ascii "?dup"
   2 00f9 AAAAAA   	>> 8:.p2align 2,0xaa
   2 00fc 00000000 	>>  XT_QDUP:.word PFA_QDUP
   2              	>>  PFA_QDUP:
   3              	# -----------------------------------------------------------------------------
   4 0100 63860100 	  beq x3, zero, 1f
   5              	    savetos
   5 0104 1302C2FF 	>  addi x4,x4,-4
   5 0108 23203200 	>  sw x3,0(x4)
   6              	1:NEXT
   6 010c 6F00C05C 	>  j DO_NEXT
  16              	.include "words/tuck.s"
   1              	# -----------------------------------------------------------------------------
   2              	  CODEWORD "tuck", TUCK # ( x1 x2 -- x2 x1 x2 )
   2              	>  HEADER Flag_visible,"tuck",TUCK,PFA_TUCK
   2              	>>  .p2align 2,0x55
   2              	>> VE_TUCK:
   2 0110 00000000 	>>  .word 99b
   2 0114 00000000 	>> 99:.word Flag_visible
   2 0118 00       	>>  .byte 8f-7f
   2 0119 7475636B 	>> 7:.ascii "tuck"
   2 011d AAAAAA   	>> 8:.p2align 2,0xaa
   2 0120 00000000 	>>  XT_TUCK:.word PFA_TUCK
   2              	>>  PFA_TUCK:
   3              	# -----------------------------------------------------------------------------
   4 0124 83220200 	  lw x5, 0(x4)
   5 0128 1302C2FF 	  addi x4, x4, -4
   6 012c 23223200 	  sw x3, 4(x4)
   7 0130 23205200 	  sw x5, 0(x4)
   8              	  NEXT
   8 0134 6F00405A 	>  j DO_NEXT
  17              	.include "words/m-rot.s"
   1              	# -----------------------------------------------------------------------------
   2              	  CODEWORD "-rot", MROT # ( x w y -- y x w )
   2              	>  HEADER Flag_visible,"-rot",MROT,PFA_MROT
   2              	>>  .p2align 2,0x55
   2              	>> VE_MROT:
   2 0138 00000000 	>>  .word 99b
   2 013c 00000000 	>> 99:.word Flag_visible
   2 0140 00       	>>  .byte 8f-7f
   2 0141 2D726F74 	>> 7:.ascii "-rot"
   2 0145 AAAAAA   	>> 8:.p2align 2,0xaa
   2 0148 00000000 	>>  XT_MROT:.word PFA_MROT
   2              	>>  PFA_MROT:
   3              	# -----------------------------------------------------------------------------
   4 014c 83220200 	  lw x5, 0(x4)
   5 0150 03234200 	  lw x6, 4(x4)
   6 0154 23206200 	  sw x6, 0(x4)
   7 0158 23223200 	  sw x3, 4(x4)
   8 015c 93810200 	  mv x3, x5
   9              	  NEXT
   9 0160 6F008057 	>  j DO_NEXT
  18              	.include "words/pick.s"
GAS LISTING hifive1.s 			page 10


   1              	# -----------------------------------------------------------------------------
   2              	  CODEWORD "pick",PICK # ( xu .. x1 x0 u -- xu ... x1 x0 xu )
   2              	>  HEADER Flag_visible,"pick",PICK,PFA_PICK
   2              	>>  .p2align 2,0x55
   2              	>> VE_PICK:
   2 0164 00000000 	>>  .word 99b
   2 0168 00000000 	>> 99:.word Flag_visible
   2 016c 00       	>>  .byte 8f-7f
   2 016d 7069636B 	>> 7:.ascii "pick"
   2 0171 AAAAAA   	>> 8:.p2align 2,0xaa
   2 0174 00000000 	>>  XT_PICK:.word PFA_PICK
   2              	>>  PFA_PICK:
   3              	# -----------------------------------------------------------------------------
   4 0178 93912100 	  sll x3, x3, 2
   5 017c B3814100 	  add x3, x3, x4
   6 0180 83A10100 	  lw x3, 0(x3)
   7              	  NEXT
   7 0184 6F004055 	>  j DO_NEXT
  19              	
  20              	.include "words/to-r.s"
   1              	CODEWORD ">r", TO_R 
   1              	>  HEADER Flag_visible,">r",TO_R,PFA_TO_R
   1              	>>  .p2align 2,0x55
   1              	>> VE_TO_R:
   1 0188 00000000 	>>  .word 99b
   1 018c 00000000 	>> 99:.word Flag_visible
   1 0190 00       	>>  .byte 8f-7f
   1 0191 3E72     	>> 7:.ascii ">r"
   1 0193 AA       	>> 8:.p2align 2,0xaa
   1 0194 00000000 	>>  XT_TO_R:.word PFA_TO_R
   1              	>>  PFA_TO_R:
   2              	  push x3
   2 0198 1301C1FF 	>  addi sp,sp,-4
   2 019c 23203100 	>  sw x3,0(sp)
   3 01a0 6FF0DFE9 	  j PFA_DROP
  21              	.include "words/r-from.s"
   1              	CODEWORD "r>", R_FROM
   1              	>  HEADER Flag_visible,"r>",R_FROM,PFA_R_FROM
   1              	>>  .p2align 2,0x55
   1              	>> VE_R_FROM:
   1 01a4 00000000 	>>  .word 99b
   1 01a8 00000000 	>> 99:.word Flag_visible
   1 01ac 00       	>>  .byte 8f-7f
   1 01ad 723E     	>> 7:.ascii "r>"
   1 01af AA       	>> 8:.p2align 2,0xaa
   1 01b0 00000000 	>>  XT_R_FROM:.word PFA_R_FROM
   1              	>>  PFA_R_FROM:
   2              	  savetos
   2 01b4 1302C2FF 	>  addi x4,x4,-4
   2 01b8 23203200 	>  sw x3,0(x4)
   3              	  pop x3
   3 01bc 83210100 	>  lw x3,0(sp)
   3 01c0 13014100 	>  addi sp,sp,4
   4              	  NEXT
   4 01c4 6F004051 	>  j DO_NEXT
  22              	.include "words/r-fetch.s"
   1              	#------------------------------------------------------------------------------
GAS LISTING hifive1.s 			page 11


   2              	  CODEWORD "r@", R_FETCH 
   2              	>  HEADER Flag_visible,"r@",R_FETCH,PFA_R_FETCH
   2              	>>  .p2align 2,0x55
   2              	>> VE_R_FETCH:
   2 01c8 00000000 	>>  .word 99b
   2 01cc 00000000 	>> 99:.word Flag_visible
   2 01d0 00       	>>  .byte 8f-7f
   2 01d1 7240     	>> 7:.ascii "r@"
   2 01d3 AA       	>> 8:.p2align 2,0xaa
   2 01d4 00000000 	>>  XT_R_FETCH:.word PFA_R_FETCH
   2              	>>  PFA_R_FETCH:
   3              	#------------------------------------------------------------------------------
   4              	  savetos
   4 01d8 1302C2FF 	>  addi x4,x4,-4
   4 01dc 23203200 	>  sw x3,0(x4)
   5 01e0 83210100 	  lw x3, 0(sp)
   6              	  NEXT
   6 01e4 6F00404F 	>  j DO_NEXT
  23              	.include "words/rp.s"
   1              	# -----------------------------------------------------------------------------
   2              	  CODEWORD "rp@", RP_FETCH # ( -- a-addr )
   2              	>  HEADER Flag_visible,"rp@",RP_FETCH,PFA_RP_FETCH
   2              	>>  .p2align 2,0x55
   2              	>> VE_RP_FETCH:
   2 01e8 00000000 	>>  .word 99b
   2 01ec 00000000 	>> 99:.word Flag_visible
   2 01f0 00       	>>  .byte 8f-7f
   2 01f1 727040   	>> 7:.ascii "rp@"
   2              	>> 8:.p2align 2,0xaa
   2 01f4 00000000 	>>  XT_RP_FETCH:.word PFA_RP_FETCH
   2              	>>  PFA_RP_FETCH:
   3              	# -----------------------------------------------------------------------------
   4              	  savetos
   4 01f8 1302C2FF 	>  addi x4,x4,-4
   4 01fc 23203200 	>  sw x3,0(x4)
   5 0200 93010100 	  mv x3, sp
   6              	  NEXT
   6 0204 6F00404D 	>  j DO_NEXT
   7              	# -----------------------------------------------------------------------------
   8              	  CODEWORD "rp!", RP_STORE # ( a-addr -- )
   8              	>  HEADER Flag_visible,"rp!",RP_STORE,PFA_RP_STORE
   8              	>>  .p2align 2,0x55
   8              	>> VE_RP_STORE:
   8 0208 00000000 	>>  .word 99b
   8 020c 00000000 	>> 99:.word Flag_visible
   8 0210 00       	>>  .byte 8f-7f
   8 0211 727021   	>> 7:.ascii "rp!"
   8              	>> 8:.p2align 2,0xaa
   8 0214 00000000 	>>  XT_RP_STORE:.word PFA_RP_STORE
   8              	>>  PFA_RP_STORE:
   9              	# -----------------------------------------------------------------------------
  10 0218 13810100 	  mv sp, x3
  11              	  loadtos
  11 021c 83210200 	>  lw x3,0(x4)
  11 0220 13024200 	>  addi x4,x4,4
  12              	  NEXT
  12 0224 6F00404B 	>  j DO_NEXT
GAS LISTING hifive1.s 			page 12


  13              	
  14              	USER "rp", RP, USER_RP
  14              	>  HEADER Flag_visible|Flag_variable,"rp",RP,PFA_DOUSER
  14              	>>  .p2align 2,0x55
  14              	>> VE_RP:
  14 0228 00000000 	>>  .word 99b
  14 022c 01010000 	>> 99:.word Flag_visible|Flag_variable
  14 0230 00       	>>  .byte 8f-7f
  14 0231 7270     	>> 7:.ascii "rp"
  14 0233 AA       	>> 8:.p2align 2,0xaa
  14 0234 00000000 	>>  XT_RP:.word PFA_DOUSER
  14              	>>  PFA_RP:
  14 0238 08000000 	>  .word USER_RP
  14              	>  .equ USER_RP,USER_RP
  24              	.include "words/sp.s"
   1              	# -----------------------------------------------------------------------------
   2              	  CODEWORD "sp@", SP_FETCH # ( -- a-addr )
   2              	>  HEADER Flag_visible,"sp@",SP_FETCH,PFA_SP_FETCH
   2              	>>  .p2align 2,0x55
   2              	>> VE_SP_FETCH:
   2 023c 00000000 	>>  .word 99b
   2 0240 00000000 	>> 99:.word Flag_visible
   2 0244 00       	>>  .byte 8f-7f
   2 0245 737040   	>> 7:.ascii "sp@"
   2              	>> 8:.p2align 2,0xaa
   2 0248 00000000 	>>  XT_SP_FETCH:.word PFA_SP_FETCH
   2              	>>  PFA_SP_FETCH:
   3              	# -----------------------------------------------------------------------------
   4              	  savetos
   4 024c 1302C2FF 	>  addi x4,x4,-4
   4 0250 23203200 	>  sw x3,0(x4)
   5 0254 93010200 	  mv x3, x4
   6              	  NEXT
   6 0258 6F000048 	>  j DO_NEXT
   7              	# -----------------------------------------------------------------------------
   8              	  CODEWORD "sp!", SP_STORE # ( a-addr -- )
   8              	>  HEADER Flag_visible,"sp!",SP_STORE,PFA_SP_STORE
   8              	>>  .p2align 2,0x55
   8              	>> VE_SP_STORE:
   8 025c 00000000 	>>  .word 99b
   8 0260 00000000 	>> 99:.word Flag_visible
   8 0264 00       	>>  .byte 8f-7f
   8 0265 737021   	>> 7:.ascii "sp!"
   8              	>> 8:.p2align 2,0xaa
   8 0268 00000000 	>>  XT_SP_STORE:.word PFA_SP_STORE
   8              	>>  PFA_SP_STORE:
   9              	# -----------------------------------------------------------------------------
  10 026c 13820100 	  mv x4, x3
  11              	  loadtos
  11 0270 83210200 	>  lw x3,0(x4)
  11 0274 13024200 	>  addi x4,x4,4
  12              	
  13              	  NEXT
  13 0278 6F000046 	>  j DO_NEXT
  14              	
  15              	USER "sp", SP, USER_SP
  15              	>  HEADER Flag_visible|Flag_variable,"sp",SP,PFA_DOUSER
GAS LISTING hifive1.s 			page 13


  15              	>>  .p2align 2,0x55
  15              	>> VE_SP:
  15 027c 00000000 	>>  .word 99b
  15 0280 01010000 	>> 99:.word Flag_visible|Flag_variable
  15 0284 00       	>>  .byte 8f-7f
  15 0285 7370     	>> 7:.ascii "sp"
  15 0287 AA       	>> 8:.p2align 2,0xaa
  15 0288 00000000 	>>  XT_SP:.word PFA_DOUSER
  15              	>>  PFA_SP:
  15 028c 10000000 	>  .word USER_SP
  15              	>  .equ USER_SP,USER_SP
  16              	USER "sp0", SP0, USER_SP0
  16              	>  HEADER Flag_visible|Flag_variable,"sp0",SP0,PFA_DOUSER
  16              	>>  .p2align 2,0x55
  16              	>> VE_SP0:
  16 0290 00000000 	>>  .word 99b
  16 0294 01010000 	>> 99:.word Flag_visible|Flag_variable
  16 0298 00       	>>  .byte 8f-7f
  16 0299 737030   	>> 7:.ascii "sp0"
  16              	>> 8:.p2align 2,0xaa
  16 029c 00000000 	>>  XT_SP0:.word PFA_DOUSER
  16              	>>  PFA_SP0:
  16 02a0 0C000000 	>  .word USER_SP0
  16              	>  .equ USER_SP0,USER_SP0
  25              	
  26              	.include "words/fetch.s"
   1              	
   2              	  CODEWORD "@", FETCH # ( 32-addr -- x )
   2              	>  HEADER Flag_visible,"@",FETCH,PFA_FETCH
   2              	>>  .p2align 2,0x55
   2              	>> VE_FETCH:
   2 02a4 00000000 	>>  .word 99b
   2 02a8 00000000 	>> 99:.word Flag_visible
   2 02ac 00       	>>  .byte 8f-7f
   2 02ad 40       	>> 7:.ascii "@"
   2 02ae AAAA     	>> 8:.p2align 2,0xaa
   2 02b0 00000000 	>>  XT_FETCH:.word PFA_FETCH
   2              	>>  PFA_FETCH:
   3 02b4 83A10100 	  lw x3, 0(x3)
   4              	  NEXT
   4 02b8 6F000042 	>  j DO_NEXT
  27              	.include "words/store.s"
   1              	  CODEWORD "!", STORE # ( x 32-addr -- )
   1              	>  HEADER Flag_visible,"!",STORE,PFA_STORE
   1              	>>  .p2align 2,0x55
   1              	>> VE_STORE:
   1 02bc 00000000 	>>  .word 99b
   1 02c0 00000000 	>> 99:.word Flag_visible
   1 02c4 00       	>>  .byte 8f-7f
   1 02c5 21       	>> 7:.ascii "!"
   1 02c6 AAAA     	>> 8:.p2align 2,0xaa
   1 02c8 00000000 	>>  XT_STORE:.word PFA_STORE
   1              	>>  PFA_STORE:
   2 02cc 83220200 	  lw x5, 0(x4)
   3 02d0 23A05100 	  sw x5, 0(x3)
   4 02d4 83214200 	  lw x3, 4(x4)
   5 02d8 13028200 	  addi x4, x4, 8
GAS LISTING hifive1.s 			page 14


   6              	  NEXT
   6 02dc 6F00C03F 	>  j DO_NEXT
  28              	
  29              	.include "words/negate.s"
   1              	# -----------------------------------------------------------------------------
   2              	  CODEWORD "negate", NEGATE # ( n1 -- -n1 )
   2              	>  HEADER Flag_visible,"negate",NEGATE,PFA_NEGATE
   2              	>>  .p2align 2,0x55
   2              	>> VE_NEGATE:
   2 02e0 00000000 	>>  .word 99b
   2 02e4 00000000 	>> 99:.word Flag_visible
   2 02e8 00       	>>  .byte 8f-7f
   2 02e9 6E656761 	>> 7:.ascii "negate"
   2      7465
   2 02ef AA       	>> 8:.p2align 2,0xaa
   2 02f0 00000000 	>>  XT_NEGATE:.word PFA_NEGATE
   2              	>>  PFA_NEGATE:
   3              	# -----------------------------------------------------------------------------
   4 02f4 93C1F1FF 	  xor x3, x3, -1
   5 02f8 93811100 	  addi x3, x3, 1
   6              	  NEXT
   6 02fc 6F00C03D 	>  j DO_NEXT
  30              	.include "words/abs.s"
   1              	# -----------------------------------------------------------------------------
   2              	  CODEWORD "abs", ABS # ( n1 -- |n1| )
   2              	>  HEADER Flag_visible,"abs",ABS,PFA_ABS
   2              	>>  .p2align 2,0x55
   2              	>> VE_ABS:
   2 0300 00000000 	>>  .word 99b
   2 0304 00000000 	>> 99:.word Flag_visible
   2 0308 00       	>>  .byte 8f-7f
   2 0309 616273   	>> 7:.ascii "abs"
   2              	>> 8:.p2align 2,0xaa
   2 030c 00000000 	>>  XT_ABS:.word PFA_ABS
   2              	>>  PFA_ABS:
   3              	# -----------------------------------------------------------------------------
   4 0310 93D2F141 	  srai x5, x3, 31 # Turn MSB into 0xffffffff or 0x00000000
   5 0314 B3815100 	  add x3, x3, x5
   6 0318 B3C15100 	  xor x3, x3, x5
   7              	  NEXT
   7 031c 6F00C03B 	>  j DO_NEXT
  31              	.include "words/multiplydivide.s"
   1              	# -----------------------------------------------------------------------------
   2              	#  Multiplication, Division and Remainder available as opcodes in RV32IM
   3              	#  Rewrite these to get a pure RV32I Forth.
   4              	# -----------------------------------------------------------------------------
   5              	
   6              	# -----------------------------------------------------------------------------
   7              	  CODEWORD  "*", STAR # ( x1 x2 -- x1*x2 )
   7              	>  HEADER Flag_visible,"*",STAR,PFA_STAR
   7              	>>  .p2align 2,0x55
   7              	>> VE_STAR:
   7 0320 00000000 	>>  .word 99b
   7 0324 00000000 	>> 99:.word Flag_visible
   7 0328 00       	>>  .byte 8f-7f
   7 0329 2A       	>> 7:.ascii "*"
   7 032a AAAA     	>> 8:.p2align 2,0xaa
GAS LISTING hifive1.s 			page 15


   7 032c 00000000 	>>  XT_STAR:.word PFA_STAR
   7              	>>  PFA_STAR:
   8              	# -----------------------------------------------------------------------------
   9 0330 83220200 	  lw x5, 0(x4)
  10 0334 13024200 	  addi x4, x4, 4
  11 0338 B3813202 	  mul x3, x5, x3
  12              	  NEXT
  12 033c 6F00C039 	>  j DO_NEXT
  13              	
  14              	# -----------------------------------------------------------------------------
  15              	  CODEWORD  "um*", UMSTAR # ( u1 u2 -- ud )
  15              	>  HEADER Flag_visible,"um*",UMSTAR,PFA_UMSTAR
  15              	>>  .p2align 2,0x55
  15              	>> VE_UMSTAR:
  15 0340 00000000 	>>  .word 99b
  15 0344 00000000 	>> 99:.word Flag_visible
  15 0348 00       	>>  .byte 8f-7f
  15 0349 756D2A   	>> 7:.ascii "um*"
  15              	>> 8:.p2align 2,0xaa
  15 034c 00000000 	>>  XT_UMSTAR:.word PFA_UMSTAR
  15              	>>  PFA_UMSTAR:
  16              	# -----------------------------------------------------------------------------
  17 0350 83220200 	  lw x5, 0(x4)
  18 0354 33833202 	  mul x6, x5, x3
  19 0358 23206200 	  sw x6, 0(x4)
  20 035c B3B13202 	  mulhu x3, x5, x3
  21              	  NEXT
  21 0360 6F008037 	>  j DO_NEXT
  22              	
  23              	# -----------------------------------------------------------------------------
  24              	  CODEWORD  "m*", MSTAR # ( n1 n2 -- d )
  24              	>  HEADER Flag_visible,"m*",MSTAR,PFA_MSTAR
  24              	>>  .p2align 2,0x55
  24              	>> VE_MSTAR:
  24 0364 00000000 	>>  .word 99b
  24 0368 00000000 	>> 99:.word Flag_visible
  24 036c 00       	>>  .byte 8f-7f
  24 036d 6D2A     	>> 7:.ascii "m*"
  24 036f AA       	>> 8:.p2align 2,0xaa
  24 0370 00000000 	>>  XT_MSTAR:.word PFA_MSTAR
  24              	>>  PFA_MSTAR:
  25              	# -----------------------------------------------------------------------------
  26 0374 83220200 	  lw x5, 0(x4)
  27 0378 33833202 	  mul x6, x5, x3
  28 037c 23206200 	  sw x6, 0(x4)
  29 0380 B3913202 	  mulh x3, x5, x3
  30              	  NEXT
  30 0384 6F004035 	>  j DO_NEXT
  31              	
  32              	# -----------------------------------------------------------------------------
  33              	  CODEWORD  "/", SLASH # ( n1 n2 -- n1/n2 )
  33              	>  HEADER Flag_visible,"/",SLASH,PFA_SLASH
  33              	>>  .p2align 2,0x55
  33              	>> VE_SLASH:
  33 0388 00000000 	>>  .word 99b
  33 038c 00000000 	>> 99:.word Flag_visible
  33 0390 00       	>>  .byte 8f-7f
GAS LISTING hifive1.s 			page 16


  33 0391 2F       	>> 7:.ascii "/"
  33 0392 AAAA     	>> 8:.p2align 2,0xaa
  33 0394 00000000 	>>  XT_SLASH:.word PFA_SLASH
  33              	>>  PFA_SLASH:
  34              	# -----------------------------------------------------------------------------
  35 0398 83220200 	  lw x5, 0(x4)
  36 039c 13024200 	  addi x4, x4, 4
  37 03a0 B3C13202 	  div x3, x5, x3
  38              	  NEXT
  38 03a4 6F004033 	>  j DO_NEXT
  39              	
  40              	# -----------------------------------------------------------------------------
  41              	  CODEWORD  "mod", MOD # ( n1 n2 -- n1%n2 )
  41              	>  HEADER Flag_visible,"mod",MOD,PFA_MOD
  41              	>>  .p2align 2,0x55
  41              	>> VE_MOD:
  41 03a8 00000000 	>>  .word 99b
  41 03ac 00000000 	>> 99:.word Flag_visible
  41 03b0 00       	>>  .byte 8f-7f
  41 03b1 6D6F64   	>> 7:.ascii "mod"
  41              	>> 8:.p2align 2,0xaa
  41 03b4 00000000 	>>  XT_MOD:.word PFA_MOD
  41              	>>  PFA_MOD:
  42              	# -----------------------------------------------------------------------------
  43 03b8 83220200 	  lw x5, 0(x4)
  44 03bc 13024200 	  addi x4, x4, 4
  45 03c0 B3E13202 	  rem x3, x5, x3
  46              	  NEXT
  46 03c4 6F004031 	>  j DO_NEXT
  47              	
  48              	# -----------------------------------------------------------------------------
  49              	  CODEWORD  "u/mod", U_SLASH_MOD # ( u1 u2 -- rem quot )
  49              	>  HEADER Flag_visible,"u/mod",U_SLASH_MOD,PFA_U_SLASH_MOD
  49              	>>  .p2align 2,0x55
  49              	>> VE_U_SLASH_MOD:
  49 03c8 00000000 	>>  .word 99b
  49 03cc 00000000 	>> 99:.word Flag_visible
  49 03d0 00       	>>  .byte 8f-7f
  49 03d1 752F6D6F 	>> 7:.ascii "u/mod"
  49      64
  49 03d6 AAAA     	>> 8:.p2align 2,0xaa
  49 03d8 00000000 	>>  XT_U_SLASH_MOD:.word PFA_U_SLASH_MOD
  49              	>>  PFA_U_SLASH_MOD:
  50              	# -----------------------------------------------------------------------------
  51 03dc 83220200 	  lw x5, 0(x4)
  52 03e0 33F33202 	  remu x6, x5, x3
  53 03e4 23206200 	  sw x6, 0(x4)
  54 03e8 B3D13202 	  divu x3, x5, x3
  55              	  NEXT
  55 03ec 6F00C02E 	>  j DO_NEXT
  56              	
  57              	# -----------------------------------------------------------------------------
  58              	  CODEWORD  "/mod", SLASHMOD # ( n1 n2 -- rem quot )
  58              	>  HEADER Flag_visible,"/mod",SLASHMOD,PFA_SLASHMOD
  58              	>>  .p2align 2,0x55
  58              	>> VE_SLASHMOD:
  58 03f0 00000000 	>>  .word 99b
GAS LISTING hifive1.s 			page 17


  58 03f4 00000000 	>> 99:.word Flag_visible
  58 03f8 00       	>>  .byte 8f-7f
  58 03f9 2F6D6F64 	>> 7:.ascii "/mod"
  58 03fd AAAAAA   	>> 8:.p2align 2,0xaa
  58 0400 00000000 	>>  XT_SLASHMOD:.word PFA_SLASHMOD
  58              	>>  PFA_SLASHMOD:
  59              	# -----------------------------------------------------------------------------
  60 0404 83220200 	  lw x5, 0(x4)
  61 0408 33E33202 	  rem x6, x5, x3
  62 040c 23206200 	  sw x6, 0(x4)
  63 0410 B3C13202 	  div x3, x5, x3
  64              	  NEXT
  64 0414 6F00402C 	>  j DO_NEXT
  65              	 
  32              	.include "words/stack.s"
   1              	
   2              	
   3              	# -----------------------------------------------------------------------------
   4              	  CODEWORD  "depth", DEPTH # ( -- Zahl der Elemente, die vorher auf den Datenstack waren )
   4              	>  HEADER Flag_visible,"depth",DEPTH,PFA_DEPTH
   4              	>>  .p2align 2,0x55
   4              	>> VE_DEPTH:
   4 0418 00000000 	>>  .word 99b
   4 041c 00000000 	>> 99:.word Flag_visible
   4 0420 00       	>>  .byte 8f-7f
   4 0421 64657074 	>> 7:.ascii "depth"
   4      68
   4 0426 AAAA     	>> 8:.p2align 2,0xaa
   4 0428 00000000 	>>  XT_DEPTH:.word PFA_DEPTH
   4              	>>  PFA_DEPTH:
   5              	                                  # ( -- Number of elements that have been on datastack before )
   6              	# -----------------------------------------------------------------------------
   7              	  # Berechne den Stackfüllstand
   8 042c B7020080 	  li x5, RAM_upper_datastack # Anfang laden  Calculate stack fill gauge
   8      93820208 
   9 0434 B3824240 	  sub x5, x5, x4            # und aktuellen Stackpointer abziehen
  10              	  savetos
  10 0438 1302C2FF 	>  addi x4,x4,-4
  10 043c 23203200 	>  sw x3,0(x4)
  11 0440 93D12240 	  srai x3, x5, 2 # Durch 4 teilen  Divide through 4 Bytes/element.
  12              	  NEXT
  12 0444 6F004029 	>  j DO_NEXT
  13              	
  14              	# -----------------------------------------------------------------------------
  15              	  CODEWORD  "rdepth", RDEPTH
  15              	>  HEADER Flag_visible,"rdepth",RDEPTH,PFA_RDEPTH
  15              	>>  .p2align 2,0x55
  15              	>> VE_RDEPTH:
  15 0448 00000000 	>>  .word 99b
  15 044c 00000000 	>> 99:.word Flag_visible
  15 0450 00       	>>  .byte 8f-7f
  15 0451 72646570 	>> 7:.ascii "rdepth"
  15      7468
  15 0457 AA       	>> 8:.p2align 2,0xaa
  15 0458 00000000 	>>  XT_RDEPTH:.word PFA_RDEPTH
  15              	>>  PFA_RDEPTH:
  16              	# -----------------------------------------------------------------------------
GAS LISTING hifive1.s 			page 18


  17              	  # Berechne den Stackfüllstand
  18 045c B7020080 	  li x5, RAM_upper_returnstack # Anfang laden  Calculate stack fill gauge
  18      93820210 
  19 0464 B3822240 	  sub x5, x5, sp          # und aktuellen Stackpointer abziehen
  20              	  savetos
  20 0468 1302C2FF 	>  addi x4,x4,-4
  20 046c 23203200 	>  sw x3,0(x4)
  21 0470 93D12240 	  srai x3, x5, 2 # Durch 4 teilen  Divide through 4 Bytes/element.
  22              	  NEXT
  22 0474 6F004026 	>  j DO_NEXT
  23              	
  24              	
  25              	#------------------------------------------------------------------------------
  26              	  CODEWORD  "rdrop", RDROP # Entfernt das oberste Element des Returnstacks
  26              	>  HEADER Flag_visible,"rdrop",RDROP,PFA_RDROP
  26              	>>  .p2align 2,0x55
  26              	>> VE_RDROP:
  26 0478 00000000 	>>  .word 99b
  26 047c 00000000 	>> 99:.word Flag_visible
  26 0480 00       	>>  .byte 8f-7f
  26 0481 7264726F 	>> 7:.ascii "rdrop"
  26      70
  26 0486 AAAA     	>> 8:.p2align 2,0xaa
  26 0488 00000000 	>>  XT_RDROP:.word PFA_RDROP
  26              	>>  PFA_RDROP:
  27              	#------------------------------------------------------------------------------
  28 048c 13014100 	  addi sp, sp, 4
  29              	  NEXT
  29 0490 6F008024 	>  j DO_NEXT
  33              	.include "words/logic.s"
   1              	# Logic.
   2              	
   3              	# -----------------------------------------------------------------------------
   4              	  CODEWORD  "and", AND # ( x1 x2 -- x1&x2 )
   4              	>  HEADER Flag_visible,"and",AND,PFA_AND
   4              	>>  .p2align 2,0x55
   4              	>> VE_AND:
   4 0494 00000000 	>>  .word 99b
   4 0498 00000000 	>> 99:.word Flag_visible
   4 049c 00       	>>  .byte 8f-7f
   4 049d 616E64   	>> 7:.ascii "and"
   4              	>> 8:.p2align 2,0xaa
   4 04a0 00000000 	>>  XT_AND:.word PFA_AND
   4              	>>  PFA_AND:
   5              	                        # Combines the top two stack elements using bitwise AND.
   6              	# -----------------------------------------------------------------------------
   7 04a4 83220200 	  lw x5, 0(x4)
   8 04a8 13024200 	  addi x4, x4, 4
   9 04ac B3F13200 	  and x3, x5, x3
  10              	  NEXT
  10 04b0 6F008022 	>  j DO_NEXT
  11              	
  12              	# -----------------------------------------------------------------------------
  13              	  CODEWORD  "or", OR # ( x1 x2 -- x1|x2 )
  13              	>  HEADER Flag_visible,"or",OR,PFA_OR
  13              	>>  .p2align 2,0x55
  13              	>> VE_OR:
GAS LISTING hifive1.s 			page 19


  13 04b4 00000000 	>>  .word 99b
  13 04b8 00000000 	>> 99:.word Flag_visible
  13 04bc 00       	>>  .byte 8f-7f
  13 04bd 6F72     	>> 7:.ascii "or"
  13 04bf AA       	>> 8:.p2align 2,0xaa
  13 04c0 00000000 	>>  XT_OR:.word PFA_OR
  13              	>>  PFA_OR:
  14              	                       # Combines the top two stack elements using bitwise OR.
  15              	# -----------------------------------------------------------------------------
  16 04c4 83220200 	  lw x5, 0(x4)
  17 04c8 13024200 	  addi x4, x4, 4
  18 04cc B3E13200 	  or x3, x5, x3
  19              	  NEXT
  19 04d0 6F008020 	>  j DO_NEXT
  20              	
  21              	# -----------------------------------------------------------------------------
  22              	  CODEWORD  "xor", XOR # ( x1 x2 -- x1|x2 )
  22              	>  HEADER Flag_visible,"xor",XOR,PFA_XOR
  22              	>>  .p2align 2,0x55
  22              	>> VE_XOR:
  22 04d4 00000000 	>>  .word 99b
  22 04d8 00000000 	>> 99:.word Flag_visible
  22 04dc 00       	>>  .byte 8f-7f
  22 04dd 786F72   	>> 7:.ascii "xor"
  22              	>> 8:.p2align 2,0xaa
  22 04e0 00000000 	>>  XT_XOR:.word PFA_XOR
  22              	>>  PFA_XOR:
  23              	                        # Combines the top two stack elements using bitwise exclusive-OR.
  24              	# -----------------------------------------------------------------------------
  25 04e4 83220200 	  lw x5, 0(x4)
  26 04e8 13024200 	  addi x4, x4, 4
  27 04ec B3C13200 	  xor x3, x5, x3
  28              	  NEXT
  28 04f0 6F00801E 	>  j DO_NEXT
  29              	
  30              	# -----------------------------------------------------------------------------
  31              	  CODEWORD  "not", NOT # ( x -- ~x )
  31              	>  HEADER Flag_visible,"not",NOT,PFA_NOT
  31              	>>  .p2align 2,0x55
  31              	>> VE_NOT:
  31 04f4 00000000 	>>  .word 99b
  31 04f8 00000000 	>> 99:.word Flag_visible
  31 04fc 00       	>>  .byte 8f-7f
  31 04fd 6E6F74   	>> 7:.ascii "not"
  31              	>> 8:.p2align 2,0xaa
  31 0500 00000000 	>>  XT_NOT:.word PFA_NOT
  31              	>>  PFA_NOT:
  32              	# -----------------------------------------------------------------------------
  33 0504 93C1F1FF 	  xori x3, x3, -1
  34              	  NEXT
  34 0508 6F00001D 	>  j DO_NEXT
  35              	
  36              	# -----------------------------------------------------------------------------
  37              	  CODEWORD  "invert", INVERT # ( x -- ~x )
  37              	>  HEADER Flag_visible,"invert",INVERT,PFA_INVERT
  37              	>>  .p2align 2,0x55
  37              	>> VE_INVERT:
GAS LISTING hifive1.s 			page 20


  37 050c 00000000 	>>  .word 99b
  37 0510 00000000 	>> 99:.word Flag_visible
  37 0514 00       	>>  .byte 8f-7f
  37 0515 696E7665 	>> 7:.ascii "invert"
  37      7274
  37 051b AA       	>> 8:.p2align 2,0xaa
  37 051c 00000000 	>>  XT_INVERT:.word PFA_INVERT
  37              	>>  PFA_INVERT:
  38              	# -----------------------------------------------------------------------------
  39 0520 93C1F1FF 	  xori x3, x3, -1
  40              	  NEXT
  40 0524 6F00401B 	>  j DO_NEXT
  41              	
  42              	# -----------------------------------------------------------------------------
  43              	  CODEWORD  "rshift", RSHIFT # ( x n -- x )
  43              	>  HEADER Flag_visible,"rshift",RSHIFT,PFA_RSHIFT
  43              	>>  .p2align 2,0x55
  43              	>> VE_RSHIFT:
  43 0528 00000000 	>>  .word 99b
  43 052c 00000000 	>> 99:.word Flag_visible
  43 0530 00       	>>  .byte 8f-7f
  43 0531 72736869 	>> 7:.ascii "rshift"
  43      6674
  43 0537 AA       	>> 8:.p2align 2,0xaa
  43 0538 00000000 	>>  XT_RSHIFT:.word PFA_RSHIFT
  43              	>>  PFA_RSHIFT:
  44              	# -----------------------------------------------------------------------------
  45 053c 83220200 	  lw x5, 0(x4)
  46 0540 13024200 	  addi x4, x4, 4
  47 0544 B3D13200 	  srl x3, x5, x3
  48              	  NEXT
  48 0548 6F000019 	>  j DO_NEXT
  49              	
  50              	  CODEWORD  "lshift", LSHIFT # ( x n -- x )
  50              	>  HEADER Flag_visible,"lshift",LSHIFT,PFA_LSHIFT
  50              	>>  .p2align 2,0x55
  50              	>> VE_LSHIFT:
  50 054c 00000000 	>>  .word 99b
  50 0550 00000000 	>> 99:.word Flag_visible
  50 0554 00       	>>  .byte 8f-7f
  50 0555 6C736869 	>> 7:.ascii "lshift"
  50      6674
  50 055b AA       	>> 8:.p2align 2,0xaa
  50 055c 00000000 	>>  XT_LSHIFT:.word PFA_LSHIFT
  50              	>>  PFA_LSHIFT:
  51 0560 83220200 	  lw x5, 0(x4)
  52 0564 13024200 	  addi x4, x4, 4
  53 0568 B3913200 	  sll x3, x5, x3
  54              	  NEXT
  54 056c 6F00C016 	>  j DO_NEXT
  34              	.include "words/memory.s"
   1              	# Memory access
   2              	
   3              	# -----------------------------------------------------------------------------
   4              	  CODEWORD  "move",MOVE  # Move some bytes around. This can cope with overlapping memory areas.
   4              	>  HEADER Flag_visible,"move",MOVE,PFA_MOVE
   4              	>>  .p2align 2,0x55
GAS LISTING hifive1.s 			page 21


   4              	>> VE_MOVE:
   4 0570 00000000 	>>  .word 99b
   4 0574 00000000 	>> 99:.word Flag_visible
   4 0578 00       	>>  .byte 8f-7f
   4 0579 6D6F7665 	>> 7:.ascii "move"
   4 057d AAAAAA   	>> 8:.p2align 2,0xaa
   4 0580 00000000 	>>  XT_MOVE:.word PFA_MOVE
   4              	>>  PFA_MOVE:
   5              	# -----------------------------------------------------------------------------
   6 0584 130141FF 	  addi sp, sp, -12
   7 0588 23241100 	  sw x1,  8(sp)
   8 058c 2322A100 	  sw x10, 4(sp)
   9 0590 2320B100 	  sw x11, 0(sp)   
  10              	
  11              	  popdadouble x10, x11
  11 0594 13850100 	>  mv x10,x3
  11 0598 83250200 	>  lw x11,0(x4)
  11 059c 83214200 	>  lw x3,4(x4)
  11 05a0 13028200 	>  addi x4,x4,8
  12              	
  13              	  # Count > 0 ?
  14 05a4 63040504 	  beq x10, zero, 3f # Nothing to do if count is zero.
  15              	
  16              	  # Compare source and destination address to find out which direction to copy.
  17 05a8 63823504 	  beq x11, x3, 3f # If source and destionation are the same, nothing to do.
  18 05ac 63E43602 	  bltu x13, x3, 2f
  19              	  
  20 05b0 9381F1FF 	  addi x3, x3, -1
  21 05b4 1381F5FF 	  addi x2, x11, -1
  22              	
  23              	1:# Source > Destination --> Backward move
  24 05b8 B382A100 	  add x5, x3, x10
  25 05bc 83C20200 	  lbu x5, 0(x5)
  26              	  
  27 05c0 3383A500 	  add x6, x11, x10
  28 05c4 23005300 	  sb x5, 0(x6)
  29              	  
  30 05c8 1305F5FF 	  addi x10, x10, -1
  31 05cc E31605FE 	  bne x10, zero, 1b
  32 05d0 6F00C001 	  j 3f
  33              	
  34              	2:# Source < Destination --> Forward move
  35 05d4 83C20100 	  lbu x5, 0(x3)
  36 05d8 23805500 	  sb x5, 0(x11)
  37              	  
  38 05dc 93811100 	  addi x3, x3, 1
  39 05e0 93851500 	  addi x11, x11, 1
  40 05e4 1305F5FF 	  addi x10, x10, -1
  41 05e8 E31605FE 	  bne x10, zero, 2b
  42              	
  43              	3:
  44 05ec 83210200 	  lw x3, 0(x4)
  45 05f0 13024200 	  addi x4, x4, 4
  46              	
  47 05f4 83208100 	  lw x1,  8(sp)
  48 05f8 03254100 	  lw x10, 4(sp)
  49 05fc 83250100 	  lw x11, 0(sp)
GAS LISTING hifive1.s 			page 22


  50 0600 1301C100 	  addi sp, sp, 12
  51              	
  52              	  NEXT
  52 0604 6F00400D 	>  j DO_NEXT
  53              	
  54              	
  55              	# -----------------------------------------------------------------------------
  56              	  CODEWORD  "fill", FILL  # Fill memory with given byte.
  56              	>  HEADER Flag_visible,"fill",FILL,PFA_FILL
  56              	>>  .p2align 2,0x55
  56              	>> VE_FILL:
  56 0608 00000000 	>>  .word 99b
  56 060c 00000000 	>> 99:.word Flag_visible
  56 0610 00       	>>  .byte 8f-7f
  56 0611 66696C6C 	>> 7:.ascii "fill"
  56 0615 AAAAAA   	>> 8:.p2align 2,0xaa
  56 0618 00000000 	>>  XT_FILL:.word PFA_FILL
  56              	>>  PFA_FILL:
  57              	  # ( Destination Count Filling -- )
  58              	# -----------------------------------------------------------------------------
  59              	  # 6.1.1540 FILL CORE ( c-addr u char -- ) If u is greater than zero, store char in each of u cons
  60              	
  61 061c 130181FF 	  addi sp, sp, -8
  62 0620 2322A100 	  sw x10,  4(sp)
  63 0624 2320B100 	  sw x11, 0(sp)
  64              	
  65              	  popdadouble x10, x11
  65 0628 13850100 	>  mv x10,x3
  65 062c 83250200 	>  lw x11,0(x4)
  65 0630 83214200 	>  lw x3,4(x4)
  65 0634 13028200 	>  addi x4,x4,8
  66              	  #popda x10 # Filling byte
  67              	  #popda x11 # Count
  68              	  # TOS       Destination
  69              	
  70 0638 638A0500 	  beq x11, zero, 2f
  71              	
  72 063c 9385F5FF 	1:addi x11, x11, -1
  73 0640 B382B100 	  add x5, x3, x11
  74 0644 2380A200 	  sb x10, 0(x5)
  75 0648 E39A05FE 	  bne x11, zero, 1b
  76              	
  77              	2:
  78 064c 83210200 	  lw x3, 0(x4)
  79 0650 13024200 	  addi x4, x4, 4
  80              	
  81 0654 03254100 	  lw x10,  4(sp)
  82 0658 83250100 	  lw x11, 0(sp)
  83 065c 13018100 	  addi sp, sp, 8
  84              	
  85              	  NEXT
  85 0660 6F008007 	>  j DO_NEXT
  86              	
  87              	
  88              	# -----------------------------------------------------------------------------
  89              	  CODEWORD  "+!", PLUSSTORE # ( x 32-addr -- )
  89              	>  HEADER Flag_visible,"+!",PLUSSTORE,PFA_PLUSSTORE
GAS LISTING hifive1.s 			page 23


  89              	>>  .p2align 2,0x55
  89              	>> VE_PLUSSTORE:
  89 0664 00000000 	>>  .word 99b
  89 0668 00000000 	>> 99:.word Flag_visible
  89 066c 00       	>>  .byte 8f-7f
  89 066d 2B21     	>> 7:.ascii "+!"
  89 066f AA       	>> 8:.p2align 2,0xaa
  89 0670 00000000 	>>  XT_PLUSSTORE:.word PFA_PLUSSTORE
  89              	>>  PFA_PLUSSTORE:
  90              	                               # Adds 'x' to the memory cell at 'addr'.
  91              	# -----------------------------------------------------------------------------
  92 0674 83220200 	  lw x5, 0(x4)
  93 0678 03A30100 	    lw x6, 0(x3)
  94 067c B3826200 	    add x5, x5, x6
  95 0680 23A05100 	    sw x5, 0(x3)
  96 0684 83214200 	  lw x3, 4(x4)
  97 0688 13028200 	  addi x4, x4, 8
  98              	  NEXT
  98 068c 6F00C004 	>  j DO_NEXT
  99              	
 100              	# -----------------------------------------------------------------------------
 101              	  CODEWORD  "c@", CFETCH # ( 8-addr -- x )
 101              	>  HEADER Flag_visible,"c@",CFETCH,PFA_CFETCH
 101              	>>  .p2align 2,0x55
 101              	>> VE_CFETCH:
 101 0690 00000000 	>>  .word 99b
 101 0694 00000000 	>> 99:.word Flag_visible
 101 0698 00       	>>  .byte 8f-7f
 101 0699 6340     	>> 7:.ascii "c@"
 101 069b AA       	>> 8:.p2align 2,0xaa
 101 069c 00000000 	>>  XT_CFETCH:.word PFA_CFETCH
 101              	>>  PFA_CFETCH:
 102              	                              # Loads the byte at 'addr'.
 103              	# -----------------------------------------------------------------------------
 104 06a0 83C10100 	  lbu x3, 0(x3)
 105              	  NEXT
 105 06a4 6F004003 	>  j DO_NEXT
 106              	
 107              	# -----------------------------------------------------------------------------
 108              	  CODEWORD  "c!", CSTORE # ( x 8-addr -- )
 108              	>  HEADER Flag_visible,"c!",CSTORE,PFA_CSTORE
 108              	>>  .p2align 2,0x55
 108              	>> VE_CSTORE:
 108 06a8 00000000 	>>  .word 99b
 108 06ac 00000000 	>> 99:.word Flag_visible
 108 06b0 00       	>>  .byte 8f-7f
 108 06b1 6321     	>> 7:.ascii "c!"
 108 06b3 AA       	>> 8:.p2align 2,0xaa
 108 06b4 00000000 	>>  XT_CSTORE:.word PFA_CSTORE
 108              	>>  PFA_CSTORE:
 109              	# Given a value 'x' and an 8-bit-aligned address 'addr', stores 'x' to memory at 'addr', consuming 
 110              	# -----------------------------------------------------------------------------
 111 06b8 83220200 	  lw x5, 0(x4)
 112 06bc 23805100 	  sb x5, 0(x3)
 113 06c0 83214200 	  lw x3, 4(x4)
 114 06c4 13028200 	  addi x4, x4, 8
 115              	  NEXT
GAS LISTING hifive1.s 			page 24


 115 06c8 6F000001 	>  j DO_NEXT
  35              	
  36              	DOCOLON: 
  37              	        push x16   # IP
  37 06cc 1301C1FF 	>  addi sp,sp,-4
  37 06d0 23200101 	>  sw x16,0(sp)
  38 06d4 13880800 	        mv x16,x17  # W->IP
  39              	DO_NEXT:
  40 06d8 83280800 	        lw x17, 0(x16) # @IP -> W 
  41 06dc 13084800 	        addi x16,x16,4 # INC IP
  42              	DO_EXECUTE:
  43 06e0 03A50800 	        lw x10, 0(x17) # @W, address of some executable code
  44 06e4 93884800 	        addi x17,x17,4 # INC W, points now to PFA
  45 06e8 67000500 	        jalr zero,x10,0 # jump to code
  46              	
  47              	
  48              	.include "words/comparisions.s"
   1              	# Comparision operators
   2              	
   3              	# -----------------------------------------------------------------------------
   4              	  CODEWORD "0=",ZEROEQUAL 
   4              	>  HEADER Flag_visible,"0=",ZEROEQUAL,PFA_ZEROEQUAL
   4              	>>  .p2align 2,0x55
   4              	>> VE_ZEROEQUAL:
   4 06ec 00000000 	>>  .word 99b
   4 06f0 00000000 	>> 99:.word Flag_visible
   4 06f4 00       	>>  .byte 8f-7f
   4 06f5 303D     	>> 7:.ascii "0="
   4 06f7 AA       	>> 8:.p2align 2,0xaa
   4 06f8 00000000 	>>  XT_ZEROEQUAL:.word PFA_ZEROEQUAL
   4              	>>  PFA_ZEROEQUAL:
   5              	# ( x -- ? )
   6              	# -----------------------------------------------------------------------------
   7 06fc 93B11100 	  sltiu x3, x3, 1
   8 0700 9381F1FF 	  addi x3, x3, -1
   9 0704 93C1F1FF 	  xori x3, x3, -1
  10              	  NEXT
  10 0708 6FF01FFD 	>  j DO_NEXT
  11              	
  12              	# -----------------------------------------------------------------------------
  13              	  CODEWORD  "0<>", NOTZEROEQUAL # ( x -- ? )
  13              	>  HEADER Flag_visible,"0<>",NOTZEROEQUAL,PFA_NOTZEROEQUAL
  13              	>>  .p2align 2,0x55
  13              	>> VE_NOTZEROEQUAL:
  13 070c 00000000 	>>  .word 99b
  13 0710 00000000 	>> 99:.word Flag_visible
  13 0714 00       	>>  .byte 8f-7f
  13 0715 303C3E   	>> 7:.ascii "0<>"
  13              	>> 8:.p2align 2,0xaa
  13 0718 00000000 	>>  XT_NOTZEROEQUAL:.word PFA_NOTZEROEQUAL
  13              	>>  PFA_NOTZEROEQUAL:
  14              	# -----------------------------------------------------------------------------
  15 071c 93B11100 	  sltiu x3, x3, 1
  16 0720 9381F1FF 	  addi x3, x3, -1
  17              	  NEXT
  17 0724 6FF05FFB 	>  j DO_NEXT
  18              	
GAS LISTING hifive1.s 			page 25


  19              	# -----------------------------------------------------------------------------
  20              	  CODEWORD  "0<", ZEROLESS # ( n -- ? )
  20              	>  HEADER Flag_visible,"0<",ZEROLESS,PFA_ZEROLESS
  20              	>>  .p2align 2,0x55
  20              	>> VE_ZEROLESS:
  20 0728 00000000 	>>  .word 99b
  20 072c 00000000 	>> 99:.word Flag_visible
  20 0730 00       	>>  .byte 8f-7f
  20 0731 303C     	>> 7:.ascii "0<"
  20 0733 AA       	>> 8:.p2align 2,0xaa
  20 0734 00000000 	>>  XT_ZEROLESS:.word PFA_ZEROLESS
  20              	>>  PFA_ZEROLESS:
  21              	# -----------------------------------------------------------------------------
  22 0738 93D1F141 	  srai x3, x3, 31
  23              	  NEXT
  23 073c 6FF0DFF9 	>  j DO_NEXT
  24              	
  25              	# -----------------------------------------------------------------------------
  26              	  CODEWORD  ">=", GREATEREQUAL # ( x1 x2 -- ? )
  26              	>  HEADER Flag_visible,">=",GREATEREQUAL,PFA_GREATEREQUAL
  26              	>>  .p2align 2,0x55
  26              	>> VE_GREATEREQUAL:
  26 0740 00000000 	>>  .word 99b
  26 0744 00000000 	>> 99:.word Flag_visible
  26 0748 00       	>>  .byte 8f-7f
  26 0749 3E3D     	>> 7:.ascii ">="
  26 074b AA       	>> 8:.p2align 2,0xaa
  26 074c 00000000 	>>  XT_GREATEREQUAL:.word PFA_GREATEREQUAL
  26              	>>  PFA_GREATEREQUAL:
  27              	# -----------------------------------------------------------------------------
  28 0750 83220200 	  lw x5, 0(x4)
  29 0754 13024200 	  addi x4, x4, 4
  30 0758 B3A13200 	  slt x3, x5, x3
  31 075c 9381F1FF 	  addi x3, x3, -1
  32              	  NEXT
  32 0760 6FF09FF7 	>  j DO_NEXT
  33              	
  34              	# -----------------------------------------------------------------------------
  35              	  CODEWORD  "<=", LESSEQUAL # ( x1 x2 -- ? )          
  35              	>  HEADER Flag_visible,"<=",LESSEQUAL,PFA_LESSEQUAL
  35              	>>  .p2align 2,0x55
  35              	>> VE_LESSEQUAL:
  35 0764 00000000 	>>  .word 99b
  35 0768 00000000 	>> 99:.word Flag_visible
  35 076c 00       	>>  .byte 8f-7f
  35 076d 3C3D     	>> 7:.ascii "<="
  35 076f AA       	>> 8:.p2align 2,0xaa
  35 0770 00000000 	>>  XT_LESSEQUAL:.word PFA_LESSEQUAL
  35              	>>  PFA_LESSEQUAL:
  36              	# -----------------------------------------------------------------------------
  37 0774 83220200 	  lw x5, 0(x4)
  38 0778 13024200 	  addi x4, x4, 4
  39 077c B3A15100 	  slt x3, x3, x5
  40 0780 9381F1FF 	  addi x3, x3, -1
  41              	  NEXT
  41 0784 6FF05FF5 	>  j DO_NEXT
  42              	
GAS LISTING hifive1.s 			page 26


  43              	# -----------------------------------------------------------------------------
  44              	  CODEWORD  "<", LESS # ( x1 x2 -- ? )
  44              	>  HEADER Flag_visible,"<",LESS,PFA_LESS
  44              	>>  .p2align 2,0x55
  44              	>> VE_LESS:
  44 0788 00000000 	>>  .word 99b
  44 078c 00000000 	>> 99:.word Flag_visible
  44 0790 00       	>>  .byte 8f-7f
  44 0791 3C       	>> 7:.ascii "<"
  44 0792 AAAA     	>> 8:.p2align 2,0xaa
  44 0794 00000000 	>>  XT_LESS:.word PFA_LESS
  44              	>>  PFA_LESS:
  45              	                      # Checks if x2 is less than x1.
  46              	# -----------------------------------------------------------------------------
  47 0798 83220200 	  lw x5, 0(x4)
  48 079c 13024200 	  addi x4, x4, 4
  49 07a0 B3A13200 	  slt x3, x5, x3
  50 07a4 9381F1FF 	  addi x3, x3, -1
  51 07a8 93C1F1FF 	  xori x3, x3, -1
  52              	  NEXT
  52 07ac 6FF0DFF2 	>  j DO_NEXT
  53              	
  54              	# -----------------------------------------------------------------------------
  55              	  CODEWORD  ">", GREATER # ( x1 x2 -- ? )
  55              	>  HEADER Flag_visible,">",GREATER,PFA_GREATER
  55              	>>  .p2align 2,0x55
  55              	>> VE_GREATER:
  55 07b0 00000000 	>>  .word 99b
  55 07b4 00000000 	>> 99:.word Flag_visible
  55 07b8 00       	>>  .byte 8f-7f
  55 07b9 3E       	>> 7:.ascii ">"
  55 07ba AAAA     	>> 8:.p2align 2,0xaa
  55 07bc 00000000 	>>  XT_GREATER:.word PFA_GREATER
  55              	>>  PFA_GREATER:
  56              	                      # Checks if x2 is greater than x1.
  57              	# -----------------------------------------------------------------------------
  58 07c0 83220200 	  lw x5, 0(x4)
  59 07c4 13024200 	  addi x4, x4, 4
  60 07c8 B3A15100 	  slt x3, x3, x5
  61 07cc 9381F1FF 	  addi x3, x3, -1
  62 07d0 93C1F1FF 	  xori x3, x3, -1
  63              	  NEXT
  63 07d4 6FF05FF0 	>  j DO_NEXT
  64              	
  65              	# -----------------------------------------------------------------------------
  66              	  CODEWORD  "u>=", UGREATEREQUAL # ( u1 u2 -- ? )
  66              	>  HEADER Flag_visible,"u>=",UGREATEREQUAL,PFA_UGREATEREQUAL
  66              	>>  .p2align 2,0x55
  66              	>> VE_UGREATEREQUAL:
  66 07d8 00000000 	>>  .word 99b
  66 07dc 00000000 	>> 99:.word Flag_visible
  66 07e0 00       	>>  .byte 8f-7f
  66 07e1 753E3D   	>> 7:.ascii "u>="
  66              	>> 8:.p2align 2,0xaa
  66 07e4 00000000 	>>  XT_UGREATEREQUAL:.word PFA_UGREATEREQUAL
  66              	>>  PFA_UGREATEREQUAL:
  67              	# -----------------------------------------------------------------------------
GAS LISTING hifive1.s 			page 27


  68 07e8 83220200 	  lw x5, 0(x4)
  69 07ec 13024200 	  addi x4, x4, 4
  70 07f0 B3B13200 	  sltu x3, x5, x3
  71 07f4 9381F1FF 	  addi x3, x3, -1
  72              	  NEXT
  72 07f8 6FF01FEE 	>  j DO_NEXT
  73              	
  74              	# -----------------------------------------------------------------------------
  75              	  CODEWORD  "u<=", ULESSEQUAL # ( u1 u2 -- ? )
  75              	>  HEADER Flag_visible,"u<=",ULESSEQUAL,PFA_ULESSEQUAL
  75              	>>  .p2align 2,0x55
  75              	>> VE_ULESSEQUAL:
  75 07fc 00000000 	>>  .word 99b
  75 0800 00000000 	>> 99:.word Flag_visible
  75 0804 00       	>>  .byte 8f-7f
  75 0805 753C3D   	>> 7:.ascii "u<="
  75              	>> 8:.p2align 2,0xaa
  75 0808 00000000 	>>  XT_ULESSEQUAL:.word PFA_ULESSEQUAL
  75              	>>  PFA_ULESSEQUAL:
  76              	# -----------------------------------------------------------------------------
  77 080c 83220200 	  lw x5, 0(x4)
  78 0810 13024200 	  addi x4, x4, 4
  79 0814 B3B15100 	  sltu x3, x3, x5
  80 0818 9381F1FF 	  addi x3, x3, -1
  81              	  NEXT
  81 081c 6FF0DFEB 	>  j DO_NEXT
  82              	
  83              	# -----------------------------------------------------------------------------
  84              	  CODEWORD  "u<", ULESS # ( u1 u2 -- ? )
  84              	>  HEADER Flag_visible,"u<",ULESS,PFA_ULESS
  84              	>>  .p2align 2,0x55
  84              	>> VE_ULESS:
  84 0820 00000000 	>>  .word 99b
  84 0824 00000000 	>> 99:.word Flag_visible
  84 0828 00       	>>  .byte 8f-7f
  84 0829 753C     	>> 7:.ascii "u<"
  84 082b AA       	>> 8:.p2align 2,0xaa
  84 082c 00000000 	>>  XT_ULESS:.word PFA_ULESS
  84              	>>  PFA_ULESS:
  85              	# -----------------------------------------------------------------------------
  86 0830 83220200 	  lw x5, 0(x4)
  87 0834 13024200 	  addi x4, x4, 4
  88 0838 B3B13200 	  sltu x3, x5, x3
  89 083c 9381F1FF 	  addi x3, x3, -1
  90 0840 93C1F1FF 	  xori x3, x3, -1
  91              	  NEXT
  91 0844 6FF05FE9 	>  j DO_NEXT
  92              	
  93              	# -----------------------------------------------------------------------------
  94              	  CODEWORD  "u>", UGREATER # ( u1 u2 -- ? )
  94              	>  HEADER Flag_visible,"u>",UGREATER,PFA_UGREATER
  94              	>>  .p2align 2,0x55
  94              	>> VE_UGREATER:
  94 0848 00000000 	>>  .word 99b
  94 084c 00000000 	>> 99:.word Flag_visible
  94 0850 00       	>>  .byte 8f-7f
  94 0851 753E     	>> 7:.ascii "u>"
GAS LISTING hifive1.s 			page 28


  94 0853 AA       	>> 8:.p2align 2,0xaa
  94 0854 00000000 	>>  XT_UGREATER:.word PFA_UGREATER
  94              	>>  PFA_UGREATER:
  95              	# -----------------------------------------------------------------------------
  96 0858 83220200 	  lw x5, 0(x4)
  97 085c 13024200 	  addi x4, x4, 4
  98 0860 B3B15100 	  sltu x3, x3, x5
  99 0864 9381F1FF 	  addi x3, x3, -1
 100 0868 93C1F1FF 	  xori x3, x3, -1
 101              	  NEXT
 101 086c 6FF0DFE6 	>  j DO_NEXT
 102              	
 103              	# -----------------------------------------------------------------------------
 104              	  CODEWORD  "<>", NOTEQUAL # ( x1 x2 -- ? )
 104              	>  HEADER Flag_visible,"<>",NOTEQUAL,PFA_NOTEQUAL
 104              	>>  .p2align 2,0x55
 104              	>> VE_NOTEQUAL:
 104 0870 00000000 	>>  .word 99b
 104 0874 00000000 	>> 99:.word Flag_visible
 104 0878 00       	>>  .byte 8f-7f
 104 0879 3C3E     	>> 7:.ascii "<>"
 104 087b AA       	>> 8:.p2align 2,0xaa
 104 087c 00000000 	>>  XT_NOTEQUAL:.word PFA_NOTEQUAL
 104              	>>  PFA_NOTEQUAL:
 105              	
 106              	                       # Compares the top two stack elements for inequality.
 107              	# -----------------------------------------------------------------------------
 108 0880 83220200 	  lw x5, 0(x4)
 109 0884 13024200 	  addi x4, x4, 4
 110 0888 B3C15100 	  xor x3, x3, x5
 111 088c 93B11100 	  sltiu x3, x3, 1
 112 0890 9381F1FF 	  addi x3, x3, -1
 113              	  NEXT
 113 0894 6FF05FE4 	>  j DO_NEXT
 114              	
 115              	# -----------------------------------------------------------------------------
 116              	  CODEWORD  "=", EQUAL # ( x1 x2 -- ? )
 116              	>  HEADER Flag_visible,"=",EQUAL,PFA_EQUAL
 116              	>>  .p2align 2,0x55
 116              	>> VE_EQUAL:
 116 0898 00000000 	>>  .word 99b
 116 089c 00000000 	>> 99:.word Flag_visible
 116 08a0 00       	>>  .byte 8f-7f
 116 08a1 3D       	>> 7:.ascii "="
 116 08a2 AAAA     	>> 8:.p2align 2,0xaa
 116 08a4 00000000 	>>  XT_EQUAL:.word PFA_EQUAL
 116              	>>  PFA_EQUAL:
 117              	                      # Compares the top two stack elements for equality.
 118              	# -----------------------------------------------------------------------------
 119              	equal_einsprung:
 120 08a8 83220200 	  lw x5, 0(x4)
 121 08ac 13024200 	  addi x4, x4, 4
 122 08b0 B3C15100 	  xor x3, x3, x5
 123 08b4 93B11100 	  sltiu x3, x3, 1
 124 08b8 9381F1FF 	  addi x3, x3, -1
 125 08bc 93C1F1FF 	  xori x3, x3, -1
 126              	  NEXT
GAS LISTING hifive1.s 			page 29


 126 08c0 6FF09FE1 	>  j DO_NEXT
 127              	
 128              	# -----------------------------------------------------------------------------
 129              	  CODEWORD  "min", MIN # ( x1 x2 -- x3 )
 129              	>  HEADER Flag_visible,"min",MIN,PFA_MIN
 129              	>>  .p2align 2,0x55
 129              	>> VE_MIN:
 129 08c4 00000000 	>>  .word 99b
 129 08c8 00000000 	>> 99:.word Flag_visible
 129 08cc 00       	>>  .byte 8f-7f
 129 08cd 6D696E   	>> 7:.ascii "min"
 129              	>> 8:.p2align 2,0xaa
 129 08d0 00000000 	>>  XT_MIN:.word PFA_MIN
 129              	>>  PFA_MIN:
 130              	                        # x3 is the lesser of x1 and x2.
 131              	# -----------------------------------------------------------------------------
 132 08d4 83220200 	  lw x5, 0(x4)
 133 08d8 13024200 	  addi x4, x4, 4
 134 08dc 63C45100 	  blt x3, x5, 1f
 135 08e0 93810200 	    mv x3, x5
 136              	1:NEXT
 136 08e4 6FF05FDF 	>  j DO_NEXT
 137              	
 138              	# -----------------------------------------------------------------------------
 139              	  CODEWORD  "max", MAX # ( x1 x2 -- x3 )
 139              	>  HEADER Flag_visible,"max",MAX,PFA_MAX
 139              	>>  .p2align 2,0x55
 139              	>> VE_MAX:
 139 08e8 00000000 	>>  .word 99b
 139 08ec 00000000 	>> 99:.word Flag_visible
 139 08f0 00       	>>  .byte 8f-7f
 139 08f1 6D6178   	>> 7:.ascii "max"
 139              	>> 8:.p2align 2,0xaa
 139 08f4 00000000 	>>  XT_MAX:.word PFA_MAX
 139              	>>  PFA_MAX:
 140              	                        # x3 is the greater of x1 and x2.
 141              	# -----------------------------------------------------------------------------
 142 08f8 83220200 	  lw x5, 0(x4)
 143 08fc 13024200 	  addi x4, x4, 4
 144 0900 63C43200 	  blt x5, x3, 1f
 145 0904 93810200 	    mv x3, x5
 146              	1:NEXT
 146 0908 6FF01FDD 	>  j DO_NEXT
 147              	
 148              	# -----------------------------------------------------------------------------
 149              	  CODEWORD  "umin", UMIN # ( u1 u2 -- u1|u2 )
 149              	>  HEADER Flag_visible,"umin",UMIN,PFA_UMIN
 149              	>>  .p2align 2,0x55
 149              	>> VE_UMIN:
 149 090c 00000000 	>>  .word 99b
 149 0910 00000000 	>> 99:.word Flag_visible
 149 0914 00       	>>  .byte 8f-7f
 149 0915 756D696E 	>> 7:.ascii "umin"
 149 0919 AAAAAA   	>> 8:.p2align 2,0xaa
 149 091c 00000000 	>>  XT_UMIN:.word PFA_UMIN
 149              	>>  PFA_UMIN:
 150              	# -----------------------------------------------------------------------------
GAS LISTING hifive1.s 			page 30


 151 0920 83220200 	  lw x5, 0(x4)
 152 0924 13024200 	  addi x4, x4, 4
 153 0928 63E45100 	  bltu x3, x5, 1f
 154 092c 93810200 	    mv x3, x5
 155              	1:NEXT
 155 0930 6FF09FDA 	>  j DO_NEXT
 156              	
 157              	# -----------------------------------------------------------------------------
 158              	  CODEWORD  "umax", UMAX # ( u1 u2 -- u1|u2 )
 158              	>  HEADER Flag_visible,"umax",UMAX,PFA_UMAX
 158              	>>  .p2align 2,0x55
 158              	>> VE_UMAX:
 158 0934 00000000 	>>  .word 99b
 158 0938 00000000 	>> 99:.word Flag_visible
 158 093c 00       	>>  .byte 8f-7f
 158 093d 756D6178 	>> 7:.ascii "umax"
 158 0941 AAAAAA   	>> 8:.p2align 2,0xaa
 158 0944 00000000 	>>  XT_UMAX:.word PFA_UMAX
 158              	>>  PFA_UMAX:
 159              	# -----------------------------------------------------------------------------
 160 0948 83220200 	  lw x5, 0(x4)
 161 094c 13024200 	  addi x4, x4, 4
 162 0950 63E43200 	  bltu x5, x3, 1f
 163 0954 93810200 	    mv x3, x5
 164              	1:NEXT
 164 0958 6FF01FD8 	>  j DO_NEXT
  49              	
  50              	.include "words/2swap.s"
   1              	# -----------------------------------------------------------------------------
   2              	  CODEWORD "2swap", 2SWAP # ( 4 3 2 1 -- 2 1 4 3 )
   2              	>  HEADER Flag_visible,"2swap",2SWAP,PFA_2SWAP
   2              	>>  .p2align 2,0x55
   2              	>> VE_2SWAP:
   2 095c 00000000 	>>  .word 99b
   2 0960 00000000 	>> 99:.word Flag_visible
   2 0964 00       	>>  .byte 8f-7f
   2 0965 32737761 	>> 7:.ascii "2swap"
   2      70
   2 096a AAAA     	>> 8:.p2align 2,0xaa
   2 096c 00000000 	>>  XT_2SWAP:.word PFA_2SWAP
   2              	>>  PFA_2SWAP:
   3              	# -----------------------------------------------------------------------------
   4 0970 93820100 	  mv x5, x3
   5 0974 83214200 	  lw x3, 4(x4)
   6 0978 23225200 	  sw x5, 4(x4)
   7              	
   8 097c 83220200 	  lw x5, 0(x4)
   9 0980 03238200 	  lw x6, 8(x4)
  10 0984 23245200 	  sw x5, 8(x4)
  11 0988 23206200 	  sw x6, 0(x4)
  12              	  NEXT
  12 098c 6FF0DFD4 	>  j DO_NEXT
  13              	
  51              	.include "words/2nip.s"
   1              	# -----------------------------------------------------------------------------
   2              	  CODEWORD "2nip", 2NIP # ( 4 3 2 1 -- 2 1 )
   2              	>  HEADER Flag_visible,"2nip",2NIP,PFA_2NIP
GAS LISTING hifive1.s 			page 31


   2              	>>  .p2align 2,0x55
   2              	>> VE_2NIP:
   2 0990 00000000 	>>  .word 99b
   2 0994 00000000 	>> 99:.word Flag_visible
   2 0998 00       	>>  .byte 8f-7f
   2 0999 326E6970 	>> 7:.ascii "2nip"
   2 099d AAAAAA   	>> 8:.p2align 2,0xaa
   2 09a0 00000000 	>>  XT_2NIP:.word PFA_2NIP
   2              	>>  PFA_2NIP:
   3              	# -----------------------------------------------------------------------------
   4 09a4 83220200 	  lw x5, 0(x4)
   5 09a8 13028200 	  addi x4, x4, 8
   6 09ac 23205200 	  sw x5, 0(x4)
   7              	  NEXT
   7 09b0 6FF09FD2 	>  j DO_NEXT
  52              	.include "words/2drop.s"
   1              	CODEWORD "2drop", 2DROP
   1              	>  HEADER Flag_visible,"2drop",2DROP,PFA_2DROP
   1              	>>  .p2align 2,0x55
   1              	>> VE_2DROP:
   1 09b4 00000000 	>>  .word 99b
   1 09b8 00000000 	>> 99:.word Flag_visible
   1 09bc 00       	>>  .byte 8f-7f
   1 09bd 3264726F 	>> 7:.ascii "2drop"
   1      70
   1 09c2 AAAA     	>> 8:.p2align 2,0xaa
   1 09c4 00000000 	>>  XT_2DROP:.word PFA_2DROP
   1              	>>  PFA_2DROP:
   2 09c8 83214200 	  lw x3, 4(x4)
   3 09cc 13028200 	  addi x4, x4, 8
   4              	  NEXT
   4 09d0 6FF09FD0 	>  j DO_NEXT
  53              	.include "words/2over.s"
   1              	# -----------------------------------------------------------------------------
   2              	  CODEWORD "2over", 2OVER # ( 4 3 2 1 -- 4 3 2 1 4 3 )
   2              	>  HEADER Flag_visible,"2over",2OVER,PFA_2OVER
   2              	>>  .p2align 2,0x55
   2              	>> VE_2OVER:
   2 09d4 00000000 	>>  .word 99b
   2 09d8 00000000 	>> 99:.word Flag_visible
   2 09dc 00       	>>  .byte 8f-7f
   2 09dd 326F7665 	>> 7:.ascii "2over"
   2      72
   2 09e2 AAAA     	>> 8:.p2align 2,0xaa
   2 09e4 00000000 	>>  XT_2OVER:.word PFA_2OVER
   2              	>>  PFA_2OVER:
   3              	# -----------------------------------------------------------------------------
   4              	  savetos
   4 09e8 1302C2FF 	>  addi x4,x4,-4
   4 09ec 23203200 	>  sw x3,0(x4)
   5 09f0 8321C200 	  lw x3, 12(x4)
   6              	  savetos
   6 09f4 1302C2FF 	>  addi x4,x4,-4
   6 09f8 23203200 	>  sw x3,0(x4)
   7 09fc 8321C200 	  lw x3, 12(x4)
   8              	  NEXT
   8 0a00 6FF09FCD 	>  j DO_NEXT
GAS LISTING hifive1.s 			page 32


  54              	.include "words/2r-fetch.s"
   1              	  CODEWORD "2r@", 2RFETCH # ( -- 2 1 R: 2 1 -- 2 1 )
   1              	>  HEADER Flag_visible,"2r@",2RFETCH,PFA_2RFETCH
   1              	>>  .p2align 2,0x55
   1              	>> VE_2RFETCH:
   1 0a04 00000000 	>>  .word 99b
   1 0a08 00000000 	>> 99:.word Flag_visible
   1 0a0c 00       	>>  .byte 8f-7f
   1 0a0d 327240   	>> 7:.ascii "2r@"
   1              	>> 8:.p2align 2,0xaa
   1 0a10 00000000 	>>  XT_2RFETCH:.word PFA_2RFETCH
   1              	>>  PFA_2RFETCH:
   2              	  savetos
   2 0a14 1302C2FF 	>  addi x4,x4,-4
   2 0a18 23203200 	>  sw x3,0(x4)
   3 0a1c 83214100 	  lw x3, 4(sp)
   4              	  savetos
   4 0a20 1302C2FF 	>  addi x4,x4,-4
   4 0a24 23203200 	>  sw x3,0(x4)
   5 0a28 83210100 	  lw x3, 0(sp)
   6              	  NEXT
   6 0a2c 6FF0DFCA 	>  j DO_NEXT
  55              	.include "words/2to-r.s"
   1              	# -----------------------------------------------------------------------------
   2              	  CODEWORD "2>r", 2TO_R # ( 2 1 -- R: -- 2 1 )
   2              	>  HEADER Flag_visible,"2>r",2TO_R,PFA_2TO_R
   2              	>>  .p2align 2,0x55
   2              	>> VE_2TO_R:
   2 0a30 00000000 	>>  .word 99b
   2 0a34 00000000 	>> 99:.word Flag_visible
   2 0a38 00       	>>  .byte 8f-7f
   2 0a39 323E72   	>> 7:.ascii "2>r"
   2              	>> 8:.p2align 2,0xaa
   2 0a3c 00000000 	>>  XT_2TO_R:.word PFA_2TO_R
   2              	>>  PFA_2TO_R:
   3              	# -----------------------------------------------------------------------------
   4 0a40 93820100 	  mv x5,x3
   5              	  loadtos
   5 0a44 83210200 	>  lw x3,0(x4)
   5 0a48 13024200 	>  addi x4,x4,4
   6              	  push x3
   6 0a4c 1301C1FF 	>  addi sp,sp,-4
   6 0a50 23203100 	>  sw x3,0(sp)
   7              	  loadtos
   7 0a54 83210200 	>  lw x3,0(x4)
   7 0a58 13024200 	>  addi x4,x4,4
   8              	  push x5
   8 0a5c 1301C1FF 	>  addi sp,sp,-4
   8 0a60 23205100 	>  sw x5,0(sp)
   9              	  NEXT
   9 0a64 6FF05FC7 	>  j DO_NEXT
  56              	.include "words/2r-from.s"
   1              	# -----------------------------------------------------------------------------
   2              	  CODEWORD "2r>", 2R_FROM # ( -- 2 1 R: 2 1 -- )
   2              	>  HEADER Flag_visible,"2r>",2R_FROM,PFA_2R_FROM
   2              	>>  .p2align 2,0x55
   2              	>> VE_2R_FROM:
GAS LISTING hifive1.s 			page 33


   2 0a68 00000000 	>>  .word 99b
   2 0a6c 00000000 	>> 99:.word Flag_visible
   2 0a70 00       	>>  .byte 8f-7f
   2 0a71 32723E   	>> 7:.ascii "2r>"
   2              	>> 8:.p2align 2,0xaa
   2 0a74 00000000 	>>  XT_2R_FROM:.word PFA_2R_FROM
   2              	>>  PFA_2R_FROM:
   3              	# -----------------------------------------------------------------------------
   4              	  savetos
   4 0a78 1302C2FF 	>  addi x4,x4,-4
   4 0a7c 23203200 	>  sw x3,0(x4)
   5              	  pop x5
   5 0a80 83220100 	>  lw x5,0(sp)
   5 0a84 13014100 	>  addi sp,sp,4
   6              	  pop x3
   6 0a88 83210100 	>  lw x3,0(sp)
   6 0a8c 13014100 	>  addi sp,sp,4
   7              	  savetos
   7 0a90 1302C2FF 	>  addi x4,x4,-4
   7 0a94 23203200 	>  sw x3,0(x4)
   8 0a98 93810200 	  mv x3,x5
   9              	  NEXT
   9 0a9c 6FF0DFC3 	>  j DO_NEXT
  57              	.include "words/d-2star.s"
   1              	#------------------------------------------------------------------------------
   2              	  CODEWORD "d2*", D2STAR
   2              	>  HEADER Flag_visible,"d2*",D2STAR,PFA_D2STAR
   2              	>>  .p2align 2,0x55
   2              	>> VE_D2STAR:
   2 0aa0 00000000 	>>  .word 99b
   2 0aa4 00000000 	>> 99:.word Flag_visible
   2 0aa8 00       	>>  .byte 8f-7f
   2 0aa9 64322A   	>> 7:.ascii "d2*"
   2              	>> 8:.p2align 2,0xaa
   2 0aac 00000000 	>>  XT_D2STAR:.word PFA_D2STAR
   2              	>>  PFA_D2STAR:
   3              	#------------------------------------------------------------------------------
   4 0ab0 83220200 	  lw x5, 0(x4) # Low
   5              	
   6 0ab4 13D3F201 	  srli x6, x5, 31
   7 0ab8 B3825200 	  add x5, x5, x5
   8              	
   9 0abc B3813100 	  add x3, x3, x3
  10 0ac0 B3E16100 	  or x3, x3, x6
  11              	
  12 0ac4 23205200 	  sw x5, 0(x4)
  13              	  NEXT
  13 0ac8 6FF01FC1 	>  j DO_NEXT
  58              	.include "words/d-2slash.s"
   1              	#------------------------------------------------------------------------------
   2              	  CODEWORD "d2/", D2SLASH
   2              	>  HEADER Flag_visible,"d2/",D2SLASH,PFA_D2SLASH
   2              	>>  .p2align 2,0x55
   2              	>> VE_D2SLASH:
   2 0acc 00000000 	>>  .word 99b
   2 0ad0 00000000 	>> 99:.word Flag_visible
   2 0ad4 00       	>>  .byte 8f-7f
GAS LISTING hifive1.s 			page 34


   2 0ad5 64322F   	>> 7:.ascii "d2/"
   2              	>> 8:.p2align 2,0xaa
   2 0ad8 00000000 	>>  XT_D2SLASH:.word PFA_D2SLASH
   2              	>>  PFA_D2SLASH:
   3              	#------------------------------------------------------------------------------
   4 0adc 83220200 	  lw x5, 0(x4) # Low
   5              	  
   6 0ae0 1393F101 	  slli x6, x3, 31
   7 0ae4 93D11140 	  srai x3, x3, 1
   8              	
   9 0ae8 93D21200 	  srli x5, x5, 1
  10 0aec B3E26200 	  or x5, x5, x6
  11              	
  12 0af0 23205200 	  sw x5, 0(x4)
  13              	  NEXT
  13 0af4 6FF05FBE 	>  j DO_NEXT
  14              	
  59              	.include "words/dabs.s"
   1              	COLON "dabs", DABS
   1              	>  HEADER Flag_visible,"dabs",DABS,DOCOLON
   1              	>>  .p2align 2,0x55
   1              	>> VE_DABS:
   1 0af8 00000000 	>>  .word 99b
   1 0afc 00000000 	>> 99:.word Flag_visible
   1 0b00 00       	>>  .byte 8f-7f
   1 0b01 64616273 	>> 7:.ascii "dabs"
   1 0b05 AAAAAA   	>> 8:.p2align 2,0xaa
   1 0b08 00000000 	>>  XT_DABS:.word DOCOLON
   1              	>>  PFA_DABS:
   2 0b0c 00000000 	  .word XT_DUP,XT_ZEROLESS, XT_DOCONDBRANCH,DABS_LEAVE
   2      00000000 
   2      00000000 
   2      00000000 
   3 0b1c 00000000 	    .word XT_DNEGATE
   4              	DABS_LEAVE:
   5 0b20 00000000 	  .word XT_EXIT
   6              	
  60              	.include "words/dnegate.s"
   1              	#------------------------------------------------------------------------------
   2              	  CODEWORD "dnegate", DNEGATE
   2              	>  HEADER Flag_visible,"dnegate",DNEGATE,PFA_DNEGATE
   2              	>>  .p2align 2,0x55
   2              	>> VE_DNEGATE:
   2 0b24 00000000 	>>  .word 99b
   2 0b28 00000000 	>> 99:.word Flag_visible
   2 0b2c 00       	>>  .byte 8f-7f
   2 0b2d 646E6567 	>> 7:.ascii "dnegate"
   2      617465
   2              	>> 8:.p2align 2,0xaa
   2 0b34 00000000 	>>  XT_DNEGATE:.word PFA_DNEGATE
   2              	>>  PFA_DNEGATE:
   3              	#------------------------------------------------------------------------------
   4              	
   5 0b38 83220200 	  lw x5, 0(x4) # Low
   6 0b3c 93C2F2FF 	  xori x5, x5, -1
   7 0b40 93C1F1FF 	  xori x3, x3, -1
   8 0b44 23205200 	  sw x5, 0(x4)
GAS LISTING hifive1.s 			page 35


   9              	
  10              	  savetos
  10 0b48 1302C2FF 	>  addi x4,x4,-4
  10 0b4c 23203200 	>  sw x3,0(x4)
  11 0b50 93011000 	  li x3, 1
  12              	  savetos
  12 0b54 1302C2FF 	>  addi x4,x4,-4
  12 0b58 23203200 	>  sw x3,0(x4)
  13 0b5c 93010000 	  li x3, 0
  14              	
  15 0b60 6F004001 	  j PFA_DPLUS
  61              	.include "words/d-plus.s"
   1              	#------------------------------------------------------------------------------
   2              	  CODEWORD "d+",DPLUS # ( 1L 1H 2L 2H )
   2              	>  HEADER Flag_visible,"d+",DPLUS,PFA_DPLUS
   2              	>>  .p2align 2,0x55
   2              	>> VE_DPLUS:
   2 0b64 00000000 	>>  .word 99b
   2 0b68 00000000 	>> 99:.word Flag_visible
   2 0b6c 00       	>>  .byte 8f-7f
   2 0b6d 642B     	>> 7:.ascii "d+"
   2 0b6f AA       	>> 8:.p2align 2,0xaa
   2 0b70 00000000 	>>  XT_DPLUS:.word PFA_DPLUS
   2              	>>  PFA_DPLUS:
   3              	#------------------------------------------------------------------------------
   4              	
   5              	  push x10
   5 0b74 1301C1FF 	>  addi sp,sp,-4
   5 0b78 2320A100 	>  sw x10,0(sp)
   6              	
   7 0b7c 83228200 	  lw x5, 8(x4)
   8 0b80 03230200 	  lw x6, 0(x4)
   9              	
  10 0b84 33856200 	  add x10, x5, x6
  11 0b88 2324A200 	  sw x10, 8(x4)
  12              	
  13 0b8c 33355500 	  sltu x10, x10, x5
  14              	
  15 0b90 83224200 	  lw x5, 4(x4)
  16 0b94 B3813200 	  add x3, x5, x3
  17 0b98 B381A100 	  add x3, x3, x10
  18              	
  19 0b9c 13028200 	  addi x4, x4, 8
  20              	
  21              	  pop x10
  21 0ba0 03250100 	>  lw x10,0(sp)
  21 0ba4 13014100 	>  addi sp,sp,4
  22              	
  23              	  NEXT
  23 0ba8 6FF01FB3 	>  j DO_NEXT
  62              	.include "words/d-minus.s"
   1              	.macro subc dest, sour1, sour2
   2              	  sub x7, \sour1, \sour2
   3              	  sltu x8, \sour1, \sour2
   4              	  sub \dest, x7, x5
   5              	  sltu x9, x7, x5
   6              	  or x5, x8, x9
GAS LISTING hifive1.s 			page 36


   7              	.endm
   8              	
   9              	#------------------------------------------------------------------------------
  10              	  CODEWORD  "d-", DMINUS # ( 1L 1H 2L 2H )
  10              	>  HEADER Flag_visible,"d-",DMINUS,PFA_DMINUS
  10              	>>  .p2align 2,0x55
  10              	>> VE_DMINUS:
  10 0bac 00000000 	>>  .word 99b
  10 0bb0 00000000 	>> 99:.word Flag_visible
  10 0bb4 00       	>>  .byte 8f-7f
  10 0bb5 642D     	>> 7:.ascii "d-"
  10 0bb7 AA       	>> 8:.p2align 2,0xaa
  10 0bb8 00000000 	>>  XT_DMINUS:.word PFA_DMINUS
  10              	>>  PFA_DMINUS:
  11              	#------------------------------------------------------------------------------
  12              	  push x10
  12 0bbc 1301C1FF 	>  addi sp,sp,-4
  12 0bc0 2320A100 	>  sw x10,0(sp)
  13              	
  14 0bc4 83228200 	  lw x5, 8(x4)
  15 0bc8 03230200 	  lw x6, 0(x4)
  16              	
  17 0bcc 33856240 	  sub x10, x5, x6
  18 0bd0 2324A200 	  sw x10, 8(x4)
  19              	
  20 0bd4 33B56200 	  sltu x10, x5, x6
  21              	
  22 0bd8 83224200 	  lw x5, 4(x4)
  23 0bdc B3813240 	  sub x3, x5, x3
  24 0be0 B381A140 	  sub x3, x3, x10
  25              	
  26 0be4 13028200 	  addi x4, x4, 8
  27              	
  28              	  pop x10
  28 0be8 03250100 	>  lw x10,0(sp)
  28 0bec 13014100 	>  addi sp,sp,4
  29              	
  30              	  NEXT
  30 0bf0 6FF09FAE 	>  j DO_NEXT
  63              	.include "words/2dup.s"
   1              	CODEWORD "2dup", 2DUP
   1              	>  HEADER Flag_visible,"2dup",2DUP,PFA_2DUP
   1              	>>  .p2align 2,0x55
   1              	>> VE_2DUP:
   1 0bf4 00000000 	>>  .word 99b
   1 0bf8 00000000 	>> 99:.word Flag_visible
   1 0bfc 00       	>>  .byte 8f-7f
   1 0bfd 32647570 	>> 7:.ascii "2dup"
   1 0c01 AAAAAA   	>> 8:.p2align 2,0xaa
   1 0c04 00000000 	>>  XT_2DUP:.word PFA_2DUP
   1              	>>  PFA_2DUP:
   2 0c08 83220200 	  lw x5, 0(x4)
   3 0c0c 130282FF 	  addi x4, x4, -8
   4 0c10 23223200 	  sw x3, 4(x4)
   5 0c14 23205200 	  sw x5, 0(x4)  
   6              	  NEXT
   6 0c18 6FF01FAC 	>  j DO_NEXT
GAS LISTING hifive1.s 			page 37


  64              	.include "words/double.s"
   1              	
   2              	#------------------------------------------------------------------------------
   3              	  CODEWORD  "s>d", S2D # ( n - dl dh ) Single --> Double conversion
   3              	>  HEADER Flag_visible,"s>d",S2D,PFA_S2D
   3              	>>  .p2align 2,0x55
   3              	>> VE_S2D:
   3 0c1c 00000000 	>>  .word 99b
   3 0c20 00000000 	>> 99:.word Flag_visible
   3 0c24 00       	>>  .byte 8f-7f
   3 0c25 733E64   	>> 7:.ascii "s>d"
   3              	>> 8:.p2align 2,0xaa
   3 0c28 00000000 	>>  XT_S2D:.word PFA_S2D
   3              	>>  PFA_S2D:
   4              	#------------------------------------------------------------------------------
   5              	  savetos
   5 0c2c 1302C2FF 	>  addi x4,x4,-4
   5 0c30 23203200 	>  sw x3,0(x4)
   6 0c34 93D1F141 	  srai x3, x3, 31    # Turn MSB into 0xffffffff or 0x00000000
   7              	  NEXT
   7 0c38 6FF01FAA 	>  j DO_NEXT
   8              	
   9              	#------------------------------------------------------------------------------
  10              	  COLON "um/mod", UMSLASHMOD
  10              	>  HEADER Flag_visible,"um/mod",UMSLASHMOD,DOCOLON
  10              	>>  .p2align 2,0x55
  10              	>> VE_UMSLASHMOD:
  10 0c3c 00000000 	>>  .word 99b
  10 0c40 00000000 	>> 99:.word Flag_visible
  10 0c44 00       	>>  .byte 8f-7f
  10 0c45 756D2F6D 	>> 7:.ascii "um/mod"
  10      6F64
  10 0c4b AA       	>> 8:.p2align 2,0xaa
  10 0c4c 00000000 	>>  XT_UMSLASHMOD:.word DOCOLON
  10              	>>  PFA_UMSLASHMOD:
  11              	um_slash_mod: # ( ud u -- u u ) Dividend Divisor -- Rest Ergebnis
  12              	             # 64/32 = 32 Rest 32
  13              	#------------------------------------------------------------------------------
  14 0c50 00000000 	  .word XT_ZERO, XT_UDSLASHMOD,XT_NIP,XT_NIP,XT_EXIT
  14      00000000 
  14      00000000 
  14      00000000 
  14      00000000 
  15              	
  16              	#------------------------------------------------------------------------------
  17              	  CODEWORD  "ud/mod", UDSLASHMOD
  17              	>  HEADER Flag_visible,"ud/mod",UDSLASHMOD,PFA_UDSLASHMOD
  17              	>>  .p2align 2,0x55
  17              	>> VE_UDSLASHMOD:
  17 0c64 00000000 	>>  .word 99b
  17 0c68 00000000 	>> 99:.word Flag_visible
  17 0c6c 00       	>>  .byte 8f-7f
  17 0c6d 75642F6D 	>> 7:.ascii "ud/mod"
  17      6F64
  17 0c73 AA       	>> 8:.p2align 2,0xaa
  17 0c74 00000000 	>>  XT_UDSLASHMOD:.word PFA_UDSLASHMOD
  17              	>>  PFA_UDSLASHMOD:
GAS LISTING hifive1.s 			page 38


  18              	         # Unsigned divide 64/64 = 64 remainder 64
  19              	         # ( ud1 ud2 -- ud ud)
  20              	         # ( 1L 1H 2L tos: 2H -- Rem-L Rem-H Quot-L tos: Quot-H )
  21              	#------------------------------------------------------------------------------
  22              	.macro addc dest, sour1, sour2
  23              	  add x7, \sour1, \sour2
  24              	  sltu x8, x7, \sour1
  25              	  add \dest, x7, x5
  26              	  sltu x9, \dest, x7
  27              	  or x5, x8, x9
  28              	.endm
  29              	
  30              	ud_slash_mod:
  31              	
  32              	
  33              	   # ( DividendL DividendH DivisorL DivisorH -- RemainderL RemainderH ResultL ResultH )
  34              	   #   8         4         0        tos      -- 8          4          0       tos
  35              	
  36              	
  37              	   # Shift-High Shift-Low Dividend-High Dividend-Low
  38              	   #        x13       x12           x11          x10
  39              	
  40 0c78 130101FF 	  addi sp, sp, -16
  41 0c7c 2326A100 	  sw x10, 12(sp)
  42 0c80 2324B100 	  sw x11, 8(sp)
  43 0c84 2322C100 	  sw x12, 4(sp)   
  44 0c88 2320D100 	  sw x13, 0(sp)
  45              	
  46              	
  47 0c8c 93060000 	   li x13, 0
  48 0c90 13060000 	   li x12, 0
  49 0c94 83254200 	   lw x11, 4(x4)
  50 0c98 03258200 	   lw x10, 8(x4)
  51              	
  52              	   # Divisor-High Divisor-Low
  53              	   #         x15          x14
  54              	
  55              	ud_slash_mod_internal:
  56              	
  57              	   push x14
  57 0c9c 1301C1FF 	>  addi sp,sp,-4
  57 0ca0 2320E100 	>  sw x14,0(sp)
  58              	   push x15
  58 0ca4 1301C1FF 	>  addi sp,sp,-4
  58 0ca8 2320F100 	>  sw x15,0(sp)
  59              	
  60              	   push x7
  60 0cac 1301C1FF 	>  addi sp,sp,-4
  60 0cb0 23207100 	>  sw x7,0(sp)
  61              	   push x8
  61 0cb4 1301C1FF 	>  addi sp,sp,-4
  61 0cb8 23208100 	>  sw x8,0(sp)
  62              	   push x9
  62 0cbc 1301C1FF 	>  addi sp,sp,-4
  62 0cc0 23209100 	>  sw x9,0(sp)
  63              	  
  64 0cc4 93870100 	   mv x15, x3
GAS LISTING hifive1.s 			page 39


  65 0cc8 03270200 	   lw x14, 0(x4)
  66              	
  67              	   # For this long division, we need 64 individual division steps.
  68 0ccc 93010004 	   li x3, 64
  69              	
  70              	3: 
  71              	
  72              	
  73              	    # Shift the long chain of four registers.
  74 0cd0 93020000 	    li x5, 0
  75              	
  76              	    addc x10, x10, x10
  76 0cd4 B303A500 	>  add x7,x10,x10
  76 0cd8 33B4A300 	>  sltu x8,x7,x10
  76 0cdc 33855300 	>  add x10,x7,x5
  76 0ce0 B3347500 	>  sltu x9,x10,x7
  76 0ce4 B3629400 	>  or x5,x8,x9
  77              	    addc x11, x11, x11
  77 0ce8 B383B500 	>  add x7,x11,x11
  77 0cec 33B4B300 	>  sltu x8,x7,x11
  77 0cf0 B3855300 	>  add x11,x7,x5
  77 0cf4 B3B47500 	>  sltu x9,x11,x7
  77 0cf8 B3629400 	>  or x5,x8,x9
  78              	    addc x12, x12, x12
  78 0cfc B303C600 	>  add x7,x12,x12
  78 0d00 33B4C300 	>  sltu x8,x7,x12
  78 0d04 33865300 	>  add x12,x7,x5
  78 0d08 B3347600 	>  sltu x9,x12,x7
  78 0d0c B3629400 	>  or x5,x8,x9
  79              	    addc x13, x13, x13
  79 0d10 B383D600 	>  add x7,x13,x13
  79 0d14 33B4D300 	>  sltu x8,x7,x13
  79 0d18 B3865300 	>  add x13,x7,x5
  79 0d1c B3B47600 	>  sltu x9,x13,x7
  79 0d20 B3629400 	>  or x5,x8,x9
  80              	
  81              	    # Compare Divisor with top two registers
  82 0d24 63E6D700 	    bltu x15, x13, 1f # Check high part first
  83 0d28 63ECF602 	    bltu x13, x15, 2f
  84              	    # cmp r3, r5 # Check high part first
  85              	    # bhi 1f
  86              	    # blo 2f
  87              	
  88 0d2c 636AE602 	    bltu x12, x14, 2f # High part is identical. Low part decides.
  89              	    # cmp r2, r4 
  90              	    # blo 2f
  91              	
  92              	    # Subtract Divisor from two top registers
  93 0d30 93020000 	1:  li x5, 0
  94              	    subc x12, x12, x14
  94 0d34 B303E640 	>  sub x7,x12,x14
  94 0d38 3334E600 	>  sltu x8,x12,x14
  94 0d3c 33865340 	>  sub x12,x7,x5
  94 0d40 B3B45300 	>  sltu x9,x7,x5
  94 0d44 B3629400 	>  or x5,x8,x9
  95              	    subc x13, x13, x15
  95 0d48 B383F640 	>  sub x7,x13,x15
GAS LISTING hifive1.s 			page 40


  95 0d4c 33B4F600 	>  sltu x8,x13,x15
  95 0d50 B3865340 	>  sub x13,x7,x5
  95 0d54 B3B45300 	>  sltu x9,x7,x5
  95 0d58 B3629400 	>  or x5,x8,x9
  96              	
  97              	    # subs r2, r4 # Subtract low part
  98              	    # sbcs r3, r5 # Subtract high part with carry
  99              	
 100              	    # Insert a bit into Result which is inside LSB of the long register.
 101 0d5c 13051500 	    addi x10, x10, 1
 102              	2:
 103              	
 104              	
 105 0d60 9381F1FF 	   addi x3, x3, -1
 106 0d64 E39601F6 	   bne x3, zero, 3b
 107              	
 108              	   # Now place all values to their destination.
 109 0d68 93810500 	   mv x3, x11    # Result-High
 110 0d6c 2320A200 	   sw x10, 0(x4) # Result-Low
 111 0d70 2322D200 	   sw x13, 4(x4) # Remainder-High
 112 0d74 2324C200 	   sw x12, 8(x4) # Remainder-Low
 113              	
 114              	   pop x9
 114 0d78 83240100 	>  lw x9,0(sp)
 114 0d7c 13014100 	>  addi sp,sp,4
 115              	   pop x8
 115 0d80 03240100 	>  lw x8,0(sp)
 115 0d84 13014100 	>  addi sp,sp,4
 116              	   pop x7
 116 0d88 83230100 	>  lw x7,0(sp)
 116 0d8c 13014100 	>  addi sp,sp,4
 117              	
 118 0d90 03254101 	   lw x10, 20(sp)
 119 0d94 83250101 	   lw x11, 16(sp)
 120 0d98 0326C100 	   lw x12, 12(sp)
 121 0d9c 83268100 	   lw x13, 8(sp)
 122 0da0 03274100 	   lw x14, 4(sp)
 123 0da4 83270100 	   lw x15, 0(sp)    
 124 0da8 13018101 	   addi sp, sp, 24
 125              	
 126              	   NEXT
 126 0dac 6FF0DF92 	>  j DO_NEXT
 127              	
 128              	#------------------------------------------------------------------------------
 129              	  CODEWORD  "d0<", DZEROLESS # ( 1L 1H -- Flag ) Is double number negative ?
 129              	>  HEADER Flag_visible,"d0<",DZEROLESS,PFA_DZEROLESS
 129              	>>  .p2align 2,0x55
 129              	>> VE_DZEROLESS:
 129 0db0 00000000 	>>  .word 99b
 129 0db4 00000000 	>> 99:.word Flag_visible
 129 0db8 00       	>>  .byte 8f-7f
 129 0db9 64303C   	>> 7:.ascii "d0<"
 129              	>> 8:.p2align 2,0xaa
 129 0dbc 00000000 	>>  XT_DZEROLESS:.word PFA_DZEROLESS
 129              	>>  PFA_DZEROLESS:
 130              	#------------------------------------------------------------------------------
 131 0dc0 13024200 	  addi x4, x4, 4
GAS LISTING hifive1.s 			page 41


 132 0dc4 93D1F141 	  srai x3, x3, 31    # Turn MSB into 0xffffffff or 0x00000000
 133              	  NEXT
 133 0dc8 6FF01F91 	>  j DO_NEXT
 134              	
 135              	#------------------------------------------------------------------------------
 136              	  CODEWORD  "d0=", DZEROEQUAL # ( 1L 1H -- Flag )
 136              	>  HEADER Flag_visible,"d0=",DZEROEQUAL,PFA_DZEROEQUAL
 136              	>>  .p2align 2,0x55
 136              	>> VE_DZEROEQUAL:
 136 0dcc 00000000 	>>  .word 99b
 136 0dd0 00000000 	>> 99:.word Flag_visible
 136 0dd4 00       	>>  .byte 8f-7f
 136 0dd5 64303D   	>> 7:.ascii "d0="
 136              	>> 8:.p2align 2,0xaa
 136 0dd8 00000000 	>>  XT_DZEROEQUAL:.word PFA_DZEROEQUAL
 136              	>>  PFA_DZEROEQUAL:
 137              	#------------------------------------------------------------------------------
 138 0ddc 83220200 	  lw x5, 0(x4)
 139 0de0 13024200 	  addi x4, x4, 4
 140 0de4 B3E15100 	  or x3, x3, x5
 141              	
 142 0de8 93B11100 	  sltiu x3, x3, 1
 143 0dec 9381F1FF 	  addi x3, x3, -1
 144 0df0 93C1F1FF 	  xori x3, x3, -1
 145              	
 146              	  NEXT
 146 0df4 6FF05F8E 	>  j DO_NEXT
  65              	.include "words/base.s"
   1              	  USER "base", BASE, USER_BASE
   1              	>  HEADER Flag_visible|Flag_variable,"base",BASE,PFA_DOUSER
   1              	>>  .p2align 2,0x55
   1              	>> VE_BASE:
   1 0df8 00000000 	>>  .word 99b
   1 0dfc 01010000 	>> 99:.word Flag_visible|Flag_variable
   1 0e00 00       	>>  .byte 8f-7f
   1 0e01 62617365 	>> 7:.ascii "base"
   1 0e05 AAAAAA   	>> 8:.p2align 2,0xaa
   1 0e08 00000000 	>>  XT_BASE:.word PFA_DOUSER
   1              	>>  PFA_BASE:
   1 0e0c 18000000 	>  .word USER_BASE
   1              	>  .equ USER_BASE,USER_BASE
  66              	.include "words/plus.s"
   1              	# -----------------------------------------------------------------------------
   2              	  CODEWORD "+", PLUS # ( x1 x2 -- x1+x2 )
   2              	>  HEADER Flag_visible,"+",PLUS,PFA_PLUS
   2              	>>  .p2align 2,0x55
   2              	>> VE_PLUS:
   2 0e10 00000000 	>>  .word 99b
   2 0e14 00000000 	>> 99:.word Flag_visible
   2 0e18 00       	>>  .byte 8f-7f
   2 0e19 2B       	>> 7:.ascii "+"
   2 0e1a AAAA     	>> 8:.p2align 2,0xaa
   2 0e1c 00000000 	>>  XT_PLUS:.word PFA_PLUS
   2              	>>  PFA_PLUS:
   3              	# -----------------------------------------------------------------------------
   4 0e20 83220200 	  lw x5, 0(x4)
   5 0e24 13024200 	  addi x4, x4, 4
GAS LISTING hifive1.s 			page 42


   6 0e28 B3813200 	  add x3, x5, x3
   7              	  NEXT
   7 0e2c 6FF0DF8A 	>  j DO_NEXT
  67              	.include "words/minus.s"
   1              	# -----------------------------------------------------------------------------
   2              	  CODEWORD "-", MINUS # ( x1 x2 -- x1-x2 )
   2              	>  HEADER Flag_visible,"-",MINUS,PFA_MINUS
   2              	>>  .p2align 2,0x55
   2              	>> VE_MINUS:
   2 0e30 00000000 	>>  .word 99b
   2 0e34 00000000 	>> 99:.word Flag_visible
   2 0e38 00       	>>  .byte 8f-7f
   2 0e39 2D       	>> 7:.ascii "-"
   2 0e3a AAAA     	>> 8:.p2align 2,0xaa
   2 0e3c 00000000 	>>  XT_MINUS:.word PFA_MINUS
   2              	>>  PFA_MINUS:
   3              	# -----------------------------------------------------------------------------
   4 0e40 83220200 	  lw x5, 0(x4)
   5 0e44 13024200 	  addi x4, x4, 4
   6 0e48 B3813240 	  sub x3, x5, x3
   7              	  NEXT
   7 0e4c 6FF0DF88 	>  j DO_NEXT
  68              	.include "words/1-plus.s"
   1              	# -----------------------------------------------------------------------------
   2              	  CODEWORD "1+", 1PLUS # ( u -- u+1 )
   2              	>  HEADER Flag_visible,"1+",1PLUS,PFA_1PLUS
   2              	>>  .p2align 2,0x55
   2              	>> VE_1PLUS:
   2 0e50 00000000 	>>  .word 99b
   2 0e54 00000000 	>> 99:.word Flag_visible
   2 0e58 00       	>>  .byte 8f-7f
   2 0e59 312B     	>> 7:.ascii "1+"
   2 0e5b AA       	>> 8:.p2align 2,0xaa
   2 0e5c 00000000 	>>  XT_1PLUS:.word PFA_1PLUS
   2              	>>  PFA_1PLUS:
   3              	# -----------------------------------------------------------------------------
   4 0e60 93811100 	  addi x3, x3, 1
   5              	  NEXT
   5 0e64 6FF05F87 	>  j DO_NEXT
  69              	.include "words/1-minus.s"
   1              	# -----------------------------------------------------------------------------
   2              	  CODEWORD "1-", 1MINUS # ( u -- u-1 )
   2              	>  HEADER Flag_visible,"1-",1MINUS,PFA_1MINUS
   2              	>>  .p2align 2,0x55
   2              	>> VE_1MINUS:
   2 0e68 00000000 	>>  .word 99b
   2 0e6c 00000000 	>> 99:.word Flag_visible
   2 0e70 00       	>>  .byte 8f-7f
   2 0e71 312D     	>> 7:.ascii "1-"
   2 0e73 AA       	>> 8:.p2align 2,0xaa
   2 0e74 00000000 	>>  XT_1MINUS:.word PFA_1MINUS
   2              	>>  PFA_1MINUS:
   3              	# -----------------------------------------------------------------------------
   4 0e78 9381F1FF 	  addi x3, x3, -1
   5              	  NEXT
   5 0e7c 6FF0DF85 	>  j DO_NEXT
  70              	.include "words/2-plus.s"
GAS LISTING hifive1.s 			page 43


   1              	# -----------------------------------------------------------------------------
   2              	  CODEWORD "2+", 2PLUS # ( u -- u+1 )
   2              	>  HEADER Flag_visible,"2+",2PLUS,PFA_2PLUS
   2              	>>  .p2align 2,0x55
   2              	>> VE_2PLUS:
   2 0e80 00000000 	>>  .word 99b
   2 0e84 00000000 	>> 99:.word Flag_visible
   2 0e88 00       	>>  .byte 8f-7f
   2 0e89 322B     	>> 7:.ascii "2+"
   2 0e8b AA       	>> 8:.p2align 2,0xaa
   2 0e8c 00000000 	>>  XT_2PLUS:.word PFA_2PLUS
   2              	>>  PFA_2PLUS:
   3              	# -----------------------------------------------------------------------------
   4 0e90 93812100 	  addi x3, x3, 2
   5              	  NEXT
   5 0e94 6FF05F84 	>  j DO_NEXT
  71              	.include "words/2-minus.s"
   1              	# -----------------------------------------------------------------------------
   2              	  CODEWORD "2-", 2MINUS # ( u -- u-1 )
   2              	>  HEADER Flag_visible,"2-",2MINUS,PFA_2MINUS
   2              	>>  .p2align 2,0x55
   2              	>> VE_2MINUS:
   2 0e98 00000000 	>>  .word 99b
   2 0e9c 00000000 	>> 99:.word Flag_visible
   2 0ea0 00       	>>  .byte 8f-7f
   2 0ea1 322D     	>> 7:.ascii "2-"
   2 0ea3 AA       	>> 8:.p2align 2,0xaa
   2 0ea4 00000000 	>>  XT_2MINUS:.word PFA_2MINUS
   2              	>>  PFA_2MINUS:
   3              	# -----------------------------------------------------------------------------
   4 0ea8 9381E1FF 	  addi x3, x3, -2
   5              	  NEXT
   5 0eac 6FF0DF82 	>  j DO_NEXT
  72              	.include "words/2-star.s"
   1              	# -----------------------------------------------------------------------------
   2              	  CODEWORD "2*", 2STAR # ( n -- n*2 )
   2              	>  HEADER Flag_visible,"2*",2STAR,PFA_2STAR
   2              	>>  .p2align 2,0x55
   2              	>> VE_2STAR:
   2 0eb0 00000000 	>>  .word 99b
   2 0eb4 00000000 	>> 99:.word Flag_visible
   2 0eb8 00       	>>  .byte 8f-7f
   2 0eb9 322A     	>> 7:.ascii "2*"
   2 0ebb AA       	>> 8:.p2align 2,0xaa
   2 0ebc 00000000 	>>  XT_2STAR:.word PFA_2STAR
   2              	>>  PFA_2STAR:
   3              	# -----------------------------------------------------------------------------
   4 0ec0 B3813100 	  add x3, x3, x3
   5              	  NEXT
   5 0ec4 6FF05F81 	>  j DO_NEXT
  73              	.include "words/2-slash.s"
   1              	# -----------------------------------------------------------------------------
   2              	  CODEWORD "2/", 2SLASH # ( n -- n/2 )
   2              	>  HEADER Flag_visible,"2/",2SLASH,PFA_2SLASH
   2              	>>  .p2align 2,0x55
   2              	>> VE_2SLASH:
   2 0ec8 00000000 	>>  .word 99b
GAS LISTING hifive1.s 			page 44


   2 0ecc 00000000 	>> 99:.word Flag_visible
   2 0ed0 00       	>>  .byte 8f-7f
   2 0ed1 322F     	>> 7:.ascii "2/"
   2 0ed3 AA       	>> 8:.p2align 2,0xaa
   2 0ed4 00000000 	>>  XT_2SLASH:.word PFA_2SLASH
   2              	>>  PFA_2SLASH:
   3              	# -----------------------------------------------------------------------------
   4 0ed8 93D11140 	  srai x3, x3, 1
   5              	  NEXT
   5 0edc 6FF0CFFF 	>  j DO_NEXT
  74              	.include "words/cell-plus.s"
   1              	# -----------------------------------------------------------------------------
   2              	  CODEWORD "cell+", CELLPLUS # ( x -- x+4 )
   2              	>  HEADER Flag_visible,"cell+",CELLPLUS,PFA_CELLPLUS
   2              	>>  .p2align 2,0x55
   2              	>> VE_CELLPLUS:
   2 0ee0 00000000 	>>  .word 99b
   2 0ee4 00000000 	>> 99:.word Flag_visible
   2 0ee8 00       	>>  .byte 8f-7f
   2 0ee9 63656C6C 	>> 7:.ascii "cell+"
   2      2B
   2 0eee AAAA     	>> 8:.p2align 2,0xaa
   2 0ef0 00000000 	>>  XT_CELLPLUS:.word PFA_CELLPLUS
   2              	>>  PFA_CELLPLUS:
   3              	# -----------------------------------------------------------------------------
   4 0ef4 93814100 	  addi x3, x3, 4
   5              	  NEXT
   5 0ef8 6FF00FFE 	>  j DO_NEXT
  75              	.include "words/cells.s"
   1              	# -----------------------------------------------------------------------------
   2              	  CODEWORD "cells", CELLS # ( x -- 4*x )
   2              	>  HEADER Flag_visible,"cells",CELLS,PFA_CELLS
   2              	>>  .p2align 2,0x55
   2              	>> VE_CELLS:
   2 0efc 00000000 	>>  .word 99b
   2 0f00 00000000 	>> 99:.word Flag_visible
   2 0f04 00       	>>  .byte 8f-7f
   2 0f05 63656C6C 	>> 7:.ascii "cells"
   2      73
   2 0f0a AAAA     	>> 8:.p2align 2,0xaa
   2 0f0c 00000000 	>>  XT_CELLS:.word PFA_CELLS
   2              	>>  PFA_CELLS:
   3              	# -----------------------------------------------------------------------------
   4 0f10 93912100 	  slli x3, x3, 2
   5              	  NEXT
   5 0f14 6FF04FFC 	>  j DO_NEXT
  76              	
  77              	.include "words/state.s"
   1              	
   2              	VARIABLE "state", STATE
   2              	>  HEADER Flag_visible|Flag_variable,"state",STATE,PFA_DOVARIABLE
   2              	>>  .p2align 2,0x55
   2              	>> VE_STATE:
   2 0f18 00000000 	>>  .word 99b
   2 0f1c 01010000 	>> 99:.word Flag_visible|Flag_variable
   2 0f20 00       	>>  .byte 8f-7f
   2 0f21 73746174 	>> 7:.ascii "state"
GAS LISTING hifive1.s 			page 45


   2      65
   2 0f26 AAAA     	>> 8:.p2align 2,0xaa
   2 0f28 00000000 	>>  XT_STATE:.word PFA_DOVARIABLE
   2              	>>  PFA_STATE:
   2 0f2c 08020080 	>  .word rampointer
   2              	>  .set rampointer,rampointer+4
  78              	.include "words/tib.s"
   1              	# -----------------------------------------------------------------------------
   2              	  CODEWORD "tib", TIB # ( -- addr )
   2              	>  HEADER Flag_visible,"tib",TIB,PFA_TIB
   2              	>>  .p2align 2,0x55
   2              	>> VE_TIB:
   2 0f30 00000000 	>>  .word 99b
   2 0f34 00000000 	>> 99:.word Flag_visible
   2 0f38 00       	>>  .byte 8f-7f
   2 0f39 746962   	>> 7:.ascii "tib"
   2              	>> 8:.p2align 2,0xaa
   2 0f3c 00000000 	>>  XT_TIB:.word PFA_TIB
   2              	>>  PFA_TIB:
   3              	# -----------------------------------------------------------------------------
   4              	  savetos
   4 0f40 1302C2FF 	>  addi x4,x4,-4
   4 0f44 23203200 	>  sw x3,0(x4)
   5 0f48 B7010080 	  li x3, RAM_lower_refill_buf
   5      93810110 
   6              	  NEXT
   6 0f50 6FF08FF8 	>  j DO_NEXT
   7              	
   8              	VARIABLE "#tib", NUMBERTIB
   8              	>  HEADER Flag_visible|Flag_variable,"#tib",NUMBERTIB,PFA_DOVARIABLE
   8              	>>  .p2align 2,0x55
   8              	>> VE_NUMBERTIB:
   8 0f54 00000000 	>>  .word 99b
   8 0f58 01010000 	>> 99:.word Flag_visible|Flag_variable
   8 0f5c 00       	>>  .byte 8f-7f
   8 0f5d 23746962 	>> 7:.ascii "#tib"
   8 0f61 AAAAAA   	>> 8:.p2align 2,0xaa
   8 0f64 00000000 	>>  XT_NUMBERTIB:.word PFA_DOVARIABLE
   8              	>>  PFA_NUMBERTIB:
   8 0f68 0C020080 	>  .word rampointer
   8              	>  .set rampointer,rampointer+4
   9              	
  79              	.include "words/cold.s"
   1              	
   2              	.equ PRCI_BASE, 0x10008000
   3              	
   4              	.equ PRCI_HFROSCCFG  , PRCI_BASE + 0x00
   5              	.equ PRCI_HFXOSCCFG  , PRCI_BASE + 0x04
   6              	.equ PRCI_PLLCFG     , PRCI_BASE + 0x08
   7              	.equ PRCI_PLLDIV     , PRCI_BASE + 0x0C
   8              	.equ PRCI_PROCMONCFG , PRCI_BASE + 0xF0
   9              	
  10              	
  11              	CODEWORD "cold", COLD
  11              	>  HEADER Flag_visible,"cold",COLD,PFA_COLD
  11              	>>  .p2align 2,0x55
  11              	>> VE_COLD:
GAS LISTING hifive1.s 			page 46


  11 0f6c 00000000 	>>  .word 99b
  11 0f70 00000000 	>> 99:.word Flag_visible
  11 0f74 00       	>>  .byte 8f-7f
  11 0f75 636F6C64 	>> 7:.ascii "cold"
  11 0f79 AAAAAA   	>> 8:.p2align 2,0xaa
  11 0f7c 00000000 	>>  XT_COLD:.word PFA_COLD
  11              	>>  PFA_COLD:
  12              	
  13              	  # set up the clock system and make it run
  14              	
  15 0f80 37850010 	1:li x10, PRCI_HFXOSCCFG   # 0x10008004
  15      13054500 
  16 0f88 83250500 	  lw x11, 0(x10)
  17 0f8c 370600C0 	  li x12, 0xC0000000
  18 0f90 E398C5FE 	  bne x11, x12, 1b
  19              	
  20              	  # Select crystal as main clock source
  21              	
  22 0f94 37850010 	  li x10, PRCI_PLLCFG
  22      13058500 
  23 0f9c B7150700 	  li x11, 0x00070df1 # 0x00060df1 | (1<<16) | (1<<17) | (1<<18)  # Reset value | PLLSEL | PLLREFSEL
  23      938515DF 
  24 0fa4 2320B500 	  sw x11, 0(x10)
  25              	
  26              	
  27              	  # This is the same as in quit, in order to prepare for whatever the user might want to do within 
  28              	
  29 0fa8 37010080 	  li sp, RAM_upper_returnstack
  29      13010110 
  30 0fb0 37020080 	  li x4, RAM_upper_datastack
  30      13020208 
  31              	
  32              	  .ifdef initflash
  33              	  call initflash
  34              	  .endif
  35              	
  36 0fb8 97080000 	  la x17, XT_WARM
  36      93880800 
  37 0fc0 6FF00FF2 	  j DO_EXECUTE
  80              	.include "words/quit.s"
   1              	COLON "quit", QUIT
   1              	>  HEADER Flag_visible,"quit",QUIT,DOCOLON
   1              	>>  .p2align 2,0x55
   1              	>> VE_QUIT:
   1 0fc4 00000000 	>>  .word 99b
   1 0fc8 00000000 	>> 99:.word Flag_visible
   1 0fcc 00       	>>  .byte 8f-7f
   1 0fcd 71756974 	>> 7:.ascii "quit"
   1 0fd1 AAAAAA   	>> 8:.p2align 2,0xaa
   1 0fd4 00000000 	>>  XT_QUIT:.word DOCOLON
   1              	>>  PFA_QUIT:
   2              	
   3 0fd8 00000000 	    .word XT_LP0,XT_LP,XT_STORE
   3      00000000 
   3      00000000 
   4              	#    .dw XT_SP0
   5              	#    .dw XT_SP_STORE
GAS LISTING hifive1.s 			page 47


   6              	#    .dw XT_RP0
   7              	#    .dw XT_RP_STORE
   8 0fe4 00000000 	    .word XT_LBRACKET
   9              	
  10              	PFA_QUIT2:
  11 0fe8 00000000 	    .word XT_STATE, XT_FETCH,XT_ZEROEQUAL
  11      00000000 
  11      00000000 
  12 0ff4 00000000 	    .word XT_DOCONDBRANCH, PFA_QUIT4
  12      00000000 
  13 0ffc 00000000 	    .word XT_PROMPTREADY
  14              	PFA_QUIT4:
  15 1000 00000000 	    .word XT_REFILL
  16 1004 00000000 	    .word XT_PROMPTINPUT
  17 1008 00000000 	    .word XT_DOCONDBRANCH,PFA_QUIT3
  17      00000000 
  18 1010 00000000 	    .word XT_DOLITERAL
  19 1014 00000000 	    .word XT_INTERPRET
  20 1018 00000000 	    .word XT_CATCH
  21 101c 00000000 	    .word XT_QDUP
  22 1020 00000000 	    .word XT_DOCONDBRANCH,PFA_QUIT3
  22      00000000 
  23 1028 00000000 		.word XT_DUP
  24 102c 00000000 		.word XT_DOLITERAL, -2, XT_LESS
  24      FEFFFFFF 
  24      00000000 
  25 1038 00000000 		.word XT_DOCONDBRANCH, PFA_QUIT5
  25      00000000 
  26 1040 00000000 		.word XT_PROMPTERROR
  27              	PFA_QUIT5:
  28 1044 00000000 		.word XT_DOBRANCH, PFA_QUIT
  28      00000000 
  29              	PFA_QUIT3:
  30 104c 00000000 	    .word XT_PROMPTOK
  31 1050 00000000 	    .word XT_DOBRANCH,PFA_QUIT2
  31      00000000 
  32              	
  81              	.include "words/execute.s"
   1              	
   2              	CODEWORD "execute",EXECUTE
   2              	>  HEADER Flag_visible,"execute",EXECUTE,PFA_EXECUTE
   2              	>>  .p2align 2,0x55
   2              	>> VE_EXECUTE:
   2 1058 00000000 	>>  .word 99b
   2 105c 00000000 	>> 99:.word Flag_visible
   2 1060 00       	>>  .byte 8f-7f
   2 1061 65786563 	>> 7:.ascii "execute"
   2      757465
   2              	>> 8:.p2align 2,0xaa
   2 1068 00000000 	>>  XT_EXECUTE:.word PFA_EXECUTE
   2              	>>  PFA_EXECUTE:
   3              	
   4 106c 93880100 	  mv x17,x3
   5              	  loadtos
   5 1070 83210200 	>  lw x3,0(x4)
   5 1074 13024200 	>  addi x4,x4,4
   6 1078 6FF08FE6 	  j DO_EXECUTE
GAS LISTING hifive1.s 			page 48


  82              	
  83              	.include "words/key.s"
   1              	  DEFER "key", KEY, XT_KEY_PAUSE
   1              	>  HEADER Flag_visible|Flag_defer|Flag_init,"key",KEY,PFA_DODEFER
   1              	>>  .p2align 2,0x55
   1              	>> VE_KEY:
   1 107c 00000000 	>>  .word 99b
   1 1080 C0000000 	>> 99:.word Flag_visible|Flag_defer|Flag_init
   1 1084 00       	>>  .byte 8f-7f
   1 1085 6B6579   	>> 7:.ascii "key"
   1              	>> 8:.p2align 2,0xaa
   1 1088 00000000 	>>  XT_KEY:.word PFA_DODEFER
   1              	>>  PFA_KEY:
   1 108c 10020080 	>  .word rampointer
   1              	>  .equ DEFER_RAM_KEY,rampointer
   1              	>  .set rampointer,rampointer+4
   1 1090 00000000 	>  .word XT_KEY_PAUSE
   1 1094 00000000 	>  .word XT_FETCH
   1 1098 00000000 	>  .word XT_STORE
   2              	
   3              	NONAME KEY_PAUSE
   3 109c 00000000 	>  XT_KEY_PAUSE:.word DOCOLON
   3              	>  PFA_KEY_PAUSE:
   4 10a0 00000000 	    .word XT_PAUSE,XT_SERIAL_KEYQ, XT_DOCONDBRANCH, PFA_KEY_PAUSE
   4      00000000 
   4      00000000 
   4      00000000 
   5 10b0 00000000 	    .word XT_SERIAL_KEY
   6 10b4 00000000 	    .word XT_EXIT
  84              	.include "words/keyq.s"
   1              	  DEFER "key?",KEYQ, XT_SERIAL_KEYQ
   1              	>  HEADER Flag_visible|Flag_defer|Flag_init,"key?",KEYQ,PFA_DODEFER
   1              	>>  .p2align 2,0x55
   1              	>> VE_KEYQ:
   1 10b8 00000000 	>>  .word 99b
   1 10bc C0000000 	>> 99:.word Flag_visible|Flag_defer|Flag_init
   1 10c0 00       	>>  .byte 8f-7f
   1 10c1 6B65793F 	>> 7:.ascii "key?"
   1 10c5 AAAAAA   	>> 8:.p2align 2,0xaa
   1 10c8 00000000 	>>  XT_KEYQ:.word PFA_DODEFER
   1              	>>  PFA_KEYQ:
   1 10cc 14020080 	>  .word rampointer
   1              	>  .equ DEFER_RAM_KEYQ,rampointer
   1              	>  .set rampointer,rampointer+4
   1 10d0 00000000 	>  .word XT_SERIAL_KEYQ
   1 10d4 00000000 	>  .word XT_FETCH
   1 10d8 00000000 	>  .word XT_STORE
   2              	
  85              	.include "words/emit.s"
   1              	  DEFER "emit", EMIT, XT_EMIT_PAUSE
   1              	>  HEADER Flag_visible|Flag_defer|Flag_init,"emit",EMIT,PFA_DODEFER
   1              	>>  .p2align 2,0x55
   1              	>> VE_EMIT:
   1 10dc 00000000 	>>  .word 99b
   1 10e0 C0000000 	>> 99:.word Flag_visible|Flag_defer|Flag_init
   1 10e4 00       	>>  .byte 8f-7f
   1 10e5 656D6974 	>> 7:.ascii "emit"
GAS LISTING hifive1.s 			page 49


   1 10e9 AAAAAA   	>> 8:.p2align 2,0xaa
   1 10ec 00000000 	>>  XT_EMIT:.word PFA_DODEFER
   1              	>>  PFA_EMIT:
   1 10f0 18020080 	>  .word rampointer
   1              	>  .equ DEFER_RAM_EMIT,rampointer
   1              	>  .set rampointer,rampointer+4
   1 10f4 00000000 	>  .word XT_EMIT_PAUSE
   1 10f8 00000000 	>  .word XT_FETCH
   1 10fc 00000000 	>  .word XT_STORE
   2              	
   3              	NONAME EMIT_PAUSE
   3 1100 00000000 	>  XT_EMIT_PAUSE:.word DOCOLON
   3              	>  PFA_EMIT_PAUSE:
   4 1104 00000000 	    .word XT_PAUSE,XT_SERIAL_EMITQ, XT_DOCONDBRANCH, PFA_EMIT_PAUSE
   4      00000000 
   4      00000000 
   4      00000000 
   5 1114 00000000 	    .word XT_SERIAL_EMIT
   6 1118 00000000 	    .word XT_EXIT
  86              	.include "words/emitq.s"
   1              	  DEFER "emit?",EMITQ, XT_SERIAL_EMITQ
   1              	>  HEADER Flag_visible|Flag_defer|Flag_init,"emit?",EMITQ,PFA_DODEFER
   1              	>>  .p2align 2,0x55
   1              	>> VE_EMITQ:
   1 111c 00000000 	>>  .word 99b
   1 1120 C0000000 	>> 99:.word Flag_visible|Flag_defer|Flag_init
   1 1124 00       	>>  .byte 8f-7f
   1 1125 656D6974 	>> 7:.ascii "emit?"
   1      3F
   1 112a AAAA     	>> 8:.p2align 2,0xaa
   1 112c 00000000 	>>  XT_EMITQ:.word PFA_DODEFER
   1              	>>  PFA_EMITQ:
   1 1130 1C020080 	>  .word rampointer
   1              	>  .equ DEFER_RAM_EMITQ,rampointer
   1              	>  .set rampointer,rampointer+4
   1 1134 00000000 	>  .word XT_SERIAL_EMITQ
   1 1138 00000000 	>  .word XT_FETCH
   1 113c 00000000 	>  .word XT_STORE
  87              	.include "words/pause.s"
   1              	  DEFER "pause",PAUSE, XT_NOOP
   1              	>  HEADER Flag_visible|Flag_defer|Flag_init,"pause",PAUSE,PFA_DODEFER
   1              	>>  .p2align 2,0x55
   1              	>> VE_PAUSE:
   1 1140 00000000 	>>  .word 99b
   1 1144 C0000000 	>> 99:.word Flag_visible|Flag_defer|Flag_init
   1 1148 00       	>>  .byte 8f-7f
   1 1149 70617573 	>> 7:.ascii "pause"
   1      65
   1 114e AAAA     	>> 8:.p2align 2,0xaa
   1 1150 00000000 	>>  XT_PAUSE:.word PFA_DODEFER
   1              	>>  PFA_PAUSE:
   1 1154 20020080 	>  .word rampointer
   1              	>  .equ DEFER_RAM_PAUSE,rampointer
   1              	>  .set rampointer,rampointer+4
   1 1158 00000000 	>  .word XT_NOOP
   1 115c 00000000 	>  .word XT_FETCH
   1 1160 00000000 	>  .word XT_STORE
GAS LISTING hifive1.s 			page 50


  88              	.include "words/nop.s"
   1              	#------------------------------------------------------------------------------
   2              	  CODEWORD "nop",NOOP # ( -- )
   2              	>  HEADER Flag_visible,"nop",NOOP,PFA_NOOP
   2              	>>  .p2align 2,0x55
   2              	>> VE_NOOP:
   2 1164 00000000 	>>  .word 99b
   2 1168 00000000 	>> 99:.word Flag_visible
   2 116c 00       	>>  .byte 8f-7f
   2 116d 6E6F70   	>> 7:.ascii "nop"
   2              	>> 8:.p2align 2,0xaa
   2 1170 00000000 	>>  XT_NOOP:.word PFA_NOOP
   2              	>>  PFA_NOOP:
   3              	#------------------------------------------------------------------------------
   4              	  NEXT
   4 1174 6FF04FD6 	>  j DO_NEXT
   5              	
  89              	.include "words/bounds.s"
   1              	COLON "bounds", BOUNDS
   1              	>  HEADER Flag_visible,"bounds",BOUNDS,DOCOLON
   1              	>>  .p2align 2,0x55
   1              	>> VE_BOUNDS:
   1 1178 00000000 	>>  .word 99b
   1 117c 00000000 	>> 99:.word Flag_visible
   1 1180 00       	>>  .byte 8f-7f
   1 1181 626F756E 	>> 7:.ascii "bounds"
   1      6473
   1 1187 AA       	>> 8:.p2align 2,0xaa
   1 1188 00000000 	>>  XT_BOUNDS:.word DOCOLON
   1              	>>  PFA_BOUNDS:
   2 118c 00000000 	  .word XT_OVER,XT_PLUS,XT_SWAP,XT_EXIT
   2      00000000 
   2      00000000 
   2      00000000 
  90              	
  91              	.include "words/do-do.s"
   1              	
   2              	HEADLESS DODO
   2 119c 00000000 	>  XT_DODO:.word PFA_DODO
   2              	>  PFA_DODO:
   3              	    # save loop sys
   4 11a0 130181FF 	    addi sp, sp, -8
   5 11a4 23228100 	    sw x8, 4(sp)
   6 11a8 23209100 	    sw x9, 0(sp)
   7              	    # save loop limits and leave address on stack
   8 11ac 13840100 	    mv x8,x3
   9              	    loadtos
   9 11b0 83210200 	>  lw x3,0(x4)
   9 11b4 13024200 	>  addi x4,x4,4
  10 11b8 93840100 	    mv x9,x3
  11              	    loadtos
  11 11bc 83210200 	>  lw x3,0(x4)
  11 11c0 13024200 	>  addi x4,x4,4
  12              	    # 0x800000 magic
  13 11c4 37030080 	    li x6, 0x80000000
  14 11c8 B3846400 	    add x9, x9, x6
  15 11cc 33049440 	    sub  x8, x8, x9
GAS LISTING hifive1.s 			page 51


  16              	NEXT
  16 11d0 6FF08FD0 	>  j DO_NEXT
  92              	.include "words/do-loop.s"
   1              	
   2              	HEADLESS DOLOOP
   2 11d4 00000000 	>  XT_DOLOOP:.word PFA_DOLOOP
   2              	>  PFA_DOLOOP:
   3 11d8 93021000 	  li x5, 1
   4 11dc 6F004001 	  j PFA_DOPLUSLOOP1
   5              	
   6              	HEADLESS DOPLUSLOOP
   6 11e0 00000000 	>  XT_DOPLUSLOOP:.word PFA_DOPLUSLOOP
   6              	>  PFA_DOPLUSLOOP:
   7 11e4 93820100 	  mv x5, x3
   8              	  loadtos
   8 11e8 83210200 	>  lw x3,0(x4)
   8 11ec 13024200 	>  addi x4,x4,4
   9              	PFA_DOPLUSLOOP1:
  10 11f0 33035400 	  add x6,x8,x5
  11 11f4 93A50200 	  slti x11,x5,0
  12 11f8 33268300 	  slt x12,x6,x8
  13 11fc 6398C500 	  bne x11, x12, PFA_DOLOOP_LEAVE
  14 1200 13040300 	  mv x8, x6
  15 1204 03280800 	  lw x16,0(x16)
  16              	  NEXT
  16 1208 6FF00FCD 	>  j DO_NEXT
  17              	PFA_DOLOOP_LEAVE:
  18              	  # restore loop-sys
  19 120c 83240100 	  lw x9, 0(sp)
  20 1210 03244100 	  lw x8, 4(sp)
  21 1214 13018100 	  addi sp, sp, 8
  22              	
  23              	  # skip loop address
  24 1218 13084800 	  addi x16,x16,4
  25              	NEXT
  25 121c 6FF0CFCB 	>  j DO_NEXT
  93              	.include "words/unloop.s"
   1              	
   2              	CODEWORD "unloop", UNLOOP
   2              	>  HEADER Flag_visible,"unloop",UNLOOP,PFA_UNLOOP
   2              	>>  .p2align 2,0x55
   2              	>> VE_UNLOOP:
   2 1220 00000000 	>>  .word 99b
   2 1224 00000000 	>> 99:.word Flag_visible
   2 1228 00       	>>  .byte 8f-7f
   2 1229 756E6C6F 	>> 7:.ascii "unloop"
   2      6F70
   2 122f AA       	>> 8:.p2align 2,0xaa
   2 1230 00000000 	>>  XT_UNLOOP:.word PFA_UNLOOP
   2              	>>  PFA_UNLOOP:
   3              	    # restore loop-sys
   4 1234 83240100 	    lw x9, 0(sp)
   5 1238 03244100 	    lw x8, 4(sp)
   6 123c 13018100 	    addi sp, sp, 8
   7              	    NEXT
   7 1240 6FF08FC9 	>  j DO_NEXT
  94              	.include "words/i.s"
GAS LISTING hifive1.s 			page 52


   1              	
   2              	CODEWORD "i", I
   2              	>  HEADER Flag_visible,"i",I,PFA_I
   2              	>>  .p2align 2,0x55
   2              	>> VE_I:
   2 1244 00000000 	>>  .word 99b
   2 1248 00000000 	>> 99:.word Flag_visible
   2 124c 00       	>>  .byte 8f-7f
   2 124d 69       	>> 7:.ascii "i"
   2 124e AAAA     	>> 8:.p2align 2,0xaa
   2 1250 00000000 	>>  XT_I:.word PFA_I
   2              	>>  PFA_I:
   3              	    savetos
   3 1254 1302C2FF 	>  addi x4,x4,-4
   3 1258 23203200 	>  sw x3,0(x4)
   4 125c B3019400 	    add x3, x8, x9
   5              	NEXT
   5 1260 6FF08FC7 	>  j DO_NEXT
  95              	.include "words/j.s"
   1              	CODEWORD "j", J
   1              	>  HEADER Flag_visible,"j",J,PFA_J
   1              	>>  .p2align 2,0x55
   1              	>> VE_J:
   1 1264 00000000 	>>  .word 99b
   1 1268 00000000 	>> 99:.word Flag_visible
   1 126c 00       	>>  .byte 8f-7f
   1 126d 6A       	>> 7:.ascii "j"
   1 126e AAAA     	>> 8:.p2align 2,0xaa
   1 1270 00000000 	>>  XT_J:.word PFA_J
   1              	>>  PFA_J:
   2              	  savetos
   2 1274 1302C2FF 	>  addi x4,x4,-4
   2 1278 23203200 	>  sw x3,0(x4)
   3 127c 83210100 	  lw x3,0(sp) # usual assumptions about J
   4 1280 83224100 	  lw x5,4(sp)
   5 1284 B3815100 	  add x3,x3,x5
   6              	NEXT
   6 1288 6FF00FC5 	>  j DO_NEXT
  96              	
  97              	.include "words/aligned.s"
   1              	  CODEWORD "aligned", ALIGNED # ( c-addr -- a-addr )
   1              	>  HEADER Flag_visible,"aligned",ALIGNED,PFA_ALIGNED
   1              	>>  .p2align 2,0x55
   1              	>> VE_ALIGNED:
   1 128c 00000000 	>>  .word 99b
   1 1290 00000000 	>> 99:.word Flag_visible
   1 1294 00       	>>  .byte 8f-7f
   1 1295 616C6967 	>> 7:.ascii "aligned"
   1      6E6564
   1              	>> 8:.p2align 2,0xaa
   1 129c 00000000 	>>  XT_ALIGNED:.word PFA_ALIGNED
   1              	>>  PFA_ALIGNED:
   2 12a0 93F21100 	  andi x5, x3, 1
   3 12a4 B3815100 	  add x3, x3, x5
   4 12a8 93F22100 	  andi x5, x3, 2
   5 12ac B3815100 	  add x3, x3, x5
   6              	  NEXT
GAS LISTING hifive1.s 			page 53


   6 12b0 6FF08FC2 	>  j DO_NEXT
  98              	.include "words/do-sliteral.s"
   1              	
   2              	NONAME DOSLITERAL
   2 12b4 00000000 	>  XT_DOSLITERAL:.word DOCOLON
   2              	>  PFA_DOSLITERAL:
   3              	
   4 12b8 00000000 	  .word XT_R_FROM,XT_COUNT,XT_2DUP,XT_PLUS,XT_ALIGNED,XT_TO_R
   4      00000000 
   4      00000000 
   4      00000000 
   4      00000000 
   5 12d0 00000000 	  .word XT_EXIT
  99              	.include "words/do-variable.s"
   1              	
   2              	HEADLESS DOVARIABLE
   2 12d4 00000000 	>  XT_DOVARIABLE:.word PFA_DOVARIABLE
   2              	>  PFA_DOVARIABLE:
   3              	  savetos
   3 12d8 1302C2FF 	>  addi x4,x4,-4
   3 12dc 23203200 	>  sw x3,0(x4)
   4 12e0 83A10800 	  lw x3,0(x17)
   5              	NEXT
   5 12e4 6FF04FBF 	>  j DO_NEXT
 100              	.include "words/do-data.s"
   1              	HEADLESS DODATA
   1 12e8 00000000 	>  XT_DODATA:.word PFA_DODATA
   1              	>  PFA_DODATA:
   2              	  savetos
   2 12ec 1302C2FF 	>  addi x4,x4,-4
   2 12f0 23203200 	>  sw x3,0(x4)
   3 12f4 93810800 	  mv x3,x17
   4              	NEXT
   4 12f8 6FF00FBE 	>  j DO_NEXT
 101              	.include "words/do-value.s"
   1              	
   2              	HEADLESS DOVALUE
   2 12fc 00000000 	>  XT_DOVALUE:.word PFA_DOVALUE
   2              	>  PFA_DOVALUE:
   3              	  savetos
   3 1300 1302C2FF 	>  addi x4,x4,-4
   3 1304 23203200 	>  sw x3,0(x4)
   4 1308 83A10800 	  lw x3,0(x17)
   5 130c 83A10100 	  lw x3,0(x3)
   6              	NEXT
   6 1310 6FF08FBC 	>  j DO_NEXT
 102              	.include "words/do-defer.s"
   1              	
   2              	HEADLESS DODEFER
   2 1314 00000000 	>  XT_DODEFER:.word PFA_DODEFER
   2              	>  PFA_DODEFER:
   3 1318 83A80800 	  lw x17,0(x17)
   4 131c 83A80800 	  lw x17,0(x17)
   5 1320 6FF00FBC 	  j DO_EXECUTE
 103              	.include "words/do-user.s"
   1              	HEADLESS DOUSER
   1 1324 00000000 	>  XT_DOUSER:.word PFA_DOUSER
GAS LISTING hifive1.s 			page 54


   1              	>  PFA_DOUSER:
   2              	  savetos
   2 1328 1302C2FF 	>  addi x4,x4,-4
   2 132c 23203200 	>  sw x3,0(x4)
   3 1330 83A10800 	  lw x3,0(x17)
   4 1334 B3812101 	  add x3,x3,x18
   5              	NEXT
   5 1338 6FF00FBA 	>  j DO_NEXT
 104              	.include "words/do-does.s"
   1              	HEADLESS DODOES
   1 133c 00000000 	>  XT_DODOES:.word PFA_DODOES
   1              	>  PFA_DODOES:
   2              	  savetos
   2 1340 1302C2FF 	>  addi x4,x4,-4
   2 1344 23203200 	>  sw x3,0(x4)
   3 1348 93810800 	  mv x3, x17
   4              	  push x16
   4 134c 1301C1FF 	>  addi sp,sp,-4
   4 1350 23200101 	>  sw x16,0(sp)
   5 1354 03A8C8FF 	  lw x16, -4(x17)
   6 1358 13084800 	  addi x16, x16, 4
   7              	NEXT
   7 135c 6FF0CFB7 	>  j DO_NEXT
 105              	.include "words/up.s"
   1              	
   2              	CODEWORD "up@", UP_FETCH
   2              	>  HEADER Flag_visible,"up@",UP_FETCH,PFA_UP_FETCH
   2              	>>  .p2align 2,0x55
   2              	>> VE_UP_FETCH:
   2 1360 00000000 	>>  .word 99b
   2 1364 00000000 	>> 99:.word Flag_visible
   2 1368 00       	>>  .byte 8f-7f
   2 1369 757040   	>> 7:.ascii "up@"
   2              	>> 8:.p2align 2,0xaa
   2 136c 00000000 	>>  XT_UP_FETCH:.word PFA_UP_FETCH
   2              	>>  PFA_UP_FETCH:
   3              	    savetos
   3 1370 1302C2FF 	>  addi x4,x4,-4
   3 1374 23203200 	>  sw x3,0(x4)
   4 1378 93010900 	    mv x3, x18
   5              	    NEXT
   5 137c 6FF0CFB5 	>  j DO_NEXT
   6              	
   7              	CODEWORD "up!", UP_STORE
   7              	>  HEADER Flag_visible,"up!",UP_STORE,PFA_UP_STORE
   7              	>>  .p2align 2,0x55
   7              	>> VE_UP_STORE:
   7 1380 00000000 	>>  .word 99b
   7 1384 00000000 	>> 99:.word Flag_visible
   7 1388 00       	>>  .byte 8f-7f
   7 1389 757021   	>> 7:.ascii "up!"
   7              	>> 8:.p2align 2,0xaa
   7 138c 00000000 	>>  XT_UP_STORE:.word PFA_UP_STORE
   7              	>>  PFA_UP_STORE:
   8 1390 13890100 	    mv x18,x3
   9              	    loadtos
   9 1394 83210200 	>  lw x3,0(x4)
GAS LISTING hifive1.s 			page 55


   9 1398 13024200 	>  addi x4,x4,4
  10              	    NEXT
  10 139c 6FF0CFB3 	>  j DO_NEXT
  11              	
 106              	
 107              	.include "words/1ms.s"
   1              	
   2              	CODEWORD "1ms", 1MS
   2              	>  HEADER Flag_visible,"1ms",1MS,PFA_1MS
   2              	>>  .p2align 2,0x55
   2              	>> VE_1MS:
   2 13a0 00000000 	>>  .word 99b
   2 13a4 00000000 	>> 99:.word Flag_visible
   2 13a8 00       	>>  .byte 8f-7f
   2 13a9 316D73   	>> 7:.ascii "1ms"
   2              	>> 8:.p2align 2,0xaa
   2 13ac 00000000 	>>  XT_1MS:.word PFA_1MS
   2              	>>  PFA_1MS:
   3              	
   4 13b0 B7929800 	  li x5, 10000000 # approx 1s, for the hifive1-board
   4      93820268 
   5 13b8 B7220000 	  li x5, 10000 # approx 0.001s, for the hifive1-board
   5      93820271 
   6              	1:
   7 13c0 9382F2FF 	  addi x5,x5,-1
   8 13c4 E39E02FE 	  bne x5,zero,1b
   9              	NEXT
   9 13c8 6FF00FB1 	>  j DO_NEXT
 108              	.include "words/dobranch.s"
   1              	
   2              	HEADLESS DOBRANCH
   2 13cc 00000000 	>  XT_DOBRANCH:.word PFA_DOBRANCH
   2              	>  PFA_DOBRANCH:
   3 13d0 03280800 	   lw x16,0(x16)
   4              	   NEXT
   4 13d4 6FF04FB0 	>  j DO_NEXT
 109              	.include "words/docondbranch.s"
   1              	
   2              	HEADLESS DOCONDBRANCH
   2 13d8 00000000 	>  XT_DOCONDBRANCH:.word PFA_DOCONDBRANCH
   2              	>  PFA_DOCONDBRANCH:
   3 13dc 93820100 	    addi x5,x3,0
   4              	    loadtos
   4 13e0 83210200 	>  lw x3,0(x4)
   4 13e4 13024200 	>  addi x4,x4,4
   5 13e8 E30450FE 	    beq zero,x5,PFA_DOBRANCH
   6 13ec 13084800 	    addi x16,x16,4
   7              	    NEXT
   7 13f0 6FF08FAE 	>  j DO_NEXT
 110              	.include "words/doliteral.s"
   1              	
   2              	HEADLESS DOLITERAL
   2 13f4 00000000 	>  XT_DOLITERAL:.word PFA_DOLITERAL
   2              	>  PFA_DOLITERAL:
   3              	    savetos
   3 13f8 1302C2FF 	>  addi x4,x4,-4
   3 13fc 23203200 	>  sw x3,0(x4)
GAS LISTING hifive1.s 			page 56


   4 1400 83210800 	    lw x3,0(x16)
   5 1404 13084800 	    addi x16,x16,4
   6              	    NEXT
   6 1408 6FF00FAD 	>  j DO_NEXT
 111              	.include "words/compare.s"
   1              	# -----------------------------------------------------------------------------
   2              	  CODEWORD "compare",COMPARE
   2              	>  HEADER Flag_visible,"compare",COMPARE,PFA_COMPARE
   2              	>>  .p2align 2,0x55
   2              	>> VE_COMPARE:
   2 140c 00000000 	>>  .word 99b
   2 1410 00000000 	>> 99:.word Flag_visible
   2 1414 00       	>>  .byte 8f-7f
   2 1415 636F6D70 	>> 7:.ascii "compare"
   2      617265
   2              	>> 8:.p2align 2,0xaa
   2 141c 00000000 	>>  XT_COMPARE:.word PFA_COMPARE
   2              	>>  PFA_COMPARE:
   3              	# -----------------------------------------------------------------------------
   4              	
   5              	.if WANT_IGNORECASE==1
   6              	.macro lowercase Register # Convert to lowercase.
   7              	  #    Hex Dec  Hex Dec
   8              	  # A  41  65   61  97  a
   9              	  # Z  5A  90   7A  122 z
  10              	  
  11              	  sltiu x14, \Register, 0x41
  12              	  bne x14, zero, 5f
  13              	    sltiu x14, \Register, 0x5B
  14              	    beq x14, zero, 5f
  15              	      addi \Register, \Register, 0x20    
  16              	5:
  17              	.endm
  18              	.endif
  19              	
  20 1420 13850100 	  mv x10, x3
  21 1424 83250200 	  lw x11, 0(x4)
  22 1428 03264200 	  lw x12, 4(x4)
  23 142c 83218200 	  lw x3, 8(x4)
  24 1430 1302C200 	  addi x4, x4, 12
  25              	
  26 1434 6306C500 	  beq x10, x12, 2f
  27              	    # Lengths not equal.
  28 1438 9301F0FF 	1:  li x3, -1
  29 143c 6F000005 	    j 4f
  30              	
  31              	  # Lengths are equal. Compare characters.
  32              	  
  33 1440 63040504 	2:beq x10, zero, 3f    # Any characters to compare left ?
  34              	
  35 1444 03C60500 	  lbu x12, 0(x11)
  36              	.if WANT_IGNORECASE==1
  37              	  lowercase x12
  37              	>  
  37              	>  
  37              	>  
  37              	>  
GAS LISTING hifive1.s 			page 57


  37 1448 13371604 	>  sltiu x14,x12,0x41
  37 144c 63180700 	>  bne x14,zero,5f
  37 1450 1337B605 	>  sltiu x14,x12,0x5B
  37 1454 63040700 	>  beq x14,zero,5f
  37 1458 13060602 	>  addi x12,x12,0x20
  37              	> 5:
  38              	.endif
  39 145c 83C60100 	  lbu x13, 0(x3)
  40              	.if WANT_IGNORECASE==1
  41              	  lowercase x13
  41              	>  
  41              	>  
  41              	>  
  41              	>  
  41 1460 13B71604 	>  sltiu x14,x13,0x41
  41 1464 63180700 	>  bne x14,zero,5f
  41 1468 13B7B605 	>  sltiu x14,x13,0x5B
  41 146c 63040700 	>  beq x14,zero,5f
  41 1470 93860602 	>  addi x13,x13,0x20
  41              	> 5:
  42              	.endif
  43 1474 E312D6FC 	  bne x12, x13, 1b
  44              	  
  45 1478 1305F5FF 	  addi x10, x10, -1
  46 147c 93851500 	  addi x11, x11, 1
  47 1480 93811100 	  addi x3,  x3,  1
  48 1484 6FF0DFFB 	  j 2b
  49              	  
  50 1488 93010000 	3: mv x3, zero
  51              	
  52              	4:
  53              	  NEXT
  53 148c 6FF0CFA4 	>  j DO_NEXT
 112              	.include "words/n_to_r.s"
   1              	CODEWORD "n>r", N_TO_R
   1              	>  HEADER Flag_visible,"n>r",N_TO_R,PFA_N_TO_R
   1              	>>  .p2align 2,0x55
   1              	>> VE_N_TO_R:
   1 1490 00000000 	>>  .word 99b
   1 1494 00000000 	>> 99:.word Flag_visible
   1 1498 00       	>>  .byte 8f-7f
   1 1499 6E3E72   	>> 7:.ascii "n>r"
   1              	>> 8:.p2align 2,0xaa
   1 149c 00000000 	>>  XT_N_TO_R:.word PFA_N_TO_R
   1              	>>  PFA_N_TO_R:
   2 14a0 93820100 	    mv x5, x3
   3 14a4 13830100 	    mv x6, x3
   4              	N_TO_R_LOOP:
   5              	    loadtos
   5 14a8 83210200 	>  lw x3,0(x4)
   5 14ac 13024200 	>  addi x4,x4,4
   6              	    push x3
   6 14b0 1301C1FF 	>  addi sp,sp,-4
   6 14b4 23203100 	>  sw x3,0(sp)
   7 14b8 9382F2FF 	    addi x5,x5,-1
   8 14bc E39602FE 	    bne x5,zero,N_TO_R_LOOP
   9              	    push x6
GAS LISTING hifive1.s 			page 58


   9 14c0 1301C1FF 	>  addi sp,sp,-4
   9 14c4 23206100 	>  sw x6,0(sp)
  10              	    loadtos
  10 14c8 83210200 	>  lw x3,0(x4)
  10 14cc 13024200 	>  addi x4,x4,4
  11              	NEXT
  11 14d0 6FF08FA0 	>  j DO_NEXT
 113              	.include "words/n_r_from.s"
   1              	CODEWORD "nr>", N_R_FROM
   1              	>  HEADER Flag_visible,"nr>",N_R_FROM,PFA_N_R_FROM
   1              	>>  .p2align 2,0x55
   1              	>> VE_N_R_FROM:
   1 14d4 00000000 	>>  .word 99b
   1 14d8 00000000 	>> 99:.word Flag_visible
   1 14dc 00       	>>  .byte 8f-7f
   1 14dd 6E723E   	>> 7:.ascii "nr>"
   1              	>> 8:.p2align 2,0xaa
   1 14e0 00000000 	>>  XT_N_R_FROM:.word PFA_N_R_FROM
   1              	>>  PFA_N_R_FROM:
   2              	    pop x5
   2 14e4 83220100 	>  lw x5,0(sp)
   2 14e8 13014100 	>  addi sp,sp,4
   3 14ec 13830200 	    mv x6, x5
   4              	    savetos
   4 14f0 1302C2FF 	>  addi x4,x4,-4
   4 14f4 23203200 	>  sw x3,0(x4)
   5              	N_R_FROM_LOOP:
   6              	    pop x3
   6 14f8 83210100 	>  lw x3,0(sp)
   6 14fc 13014100 	>  addi sp,sp,4
   7              	    savetos
   7 1500 1302C2FF 	>  addi x4,x4,-4
   7 1504 23203200 	>  sw x3,0(x4)
   8 1508 9382F2FF 	    addi x5,x5,-1
   9 150c E39602FE 	    bne x5,zero,N_R_FROM_LOOP
  10 1510 93010300 	    mv x3, x6
  11              	NEXT
  11 1514 6FF04F9C 	>  j DO_NEXT
  15              	.include "dict_secs.inc"
   1              	#
   2              	# all secondaries / colon words
   3              	# they represend data instead of code
   4              	#
   5              	
   6              	.include "words/num-constants.s"
   1              	
   2              	CONSTANT "0", ZERO, 0
   2              	>  HEADER Flag_visible,"0",ZERO,PFA_DOVARIABLE
   2              	>>  .p2align 2,0x55
   2              	>> VE_ZERO:
   2 1518 00000000 	>>  .word 99b
   2 151c 00000000 	>> 99:.word Flag_visible
   2 1520 00       	>>  .byte 8f-7f
   2 1521 30       	>> 7:.ascii "0"
   2 1522 AAAA     	>> 8:.p2align 2,0xaa
   2 1524 00000000 	>>  XT_ZERO:.word PFA_DOVARIABLE
   2              	>>  PFA_ZERO:
GAS LISTING hifive1.s 			page 59


   2 1528 00000000 	>  .word 0
   3              	CONSTANT "1", ONE, 1
   3              	>  HEADER Flag_visible,"1",ONE,PFA_DOVARIABLE
   3              	>>  .p2align 2,0x55
   3              	>> VE_ONE:
   3 152c 00000000 	>>  .word 99b
   3 1530 00000000 	>> 99:.word Flag_visible
   3 1534 00       	>>  .byte 8f-7f
   3 1535 31       	>> 7:.ascii "1"
   3 1536 AAAA     	>> 8:.p2align 2,0xaa
   3 1538 00000000 	>>  XT_ONE:.word PFA_DOVARIABLE
   3              	>>  PFA_ONE:
   3 153c 01000000 	>  .word 1
   4              	CONSTANT "2", TWO, 2
   4              	>  HEADER Flag_visible,"2",TWO,PFA_DOVARIABLE
   4              	>>  .p2align 2,0x55
   4              	>> VE_TWO:
   4 1540 00000000 	>>  .word 99b
   4 1544 00000000 	>> 99:.word Flag_visible
   4 1548 00       	>>  .byte 8f-7f
   4 1549 32       	>> 7:.ascii "2"
   4 154a AAAA     	>> 8:.p2align 2,0xaa
   4 154c 00000000 	>>  XT_TWO:.word PFA_DOVARIABLE
   4              	>>  PFA_TWO:
   4 1550 02000000 	>  .word 2
   5              	CONSTANT "4", FOUR, 4
   5              	>  HEADER Flag_visible,"4",FOUR,PFA_DOVARIABLE
   5              	>>  .p2align 2,0x55
   5              	>> VE_FOUR:
   5 1554 00000000 	>>  .word 99b
   5 1558 00000000 	>> 99:.word Flag_visible
   5 155c 00       	>>  .byte 8f-7f
   5 155d 34       	>> 7:.ascii "4"
   5 155e AAAA     	>> 8:.p2align 2,0xaa
   5 1560 00000000 	>>  XT_FOUR:.word PFA_DOVARIABLE
   5              	>>  PFA_FOUR:
   5 1564 04000000 	>  .word 4
   6              	CONSTANT "-1", MINUSONE, -1
   6              	>  HEADER Flag_visible,"-1",MINUSONE,PFA_DOVARIABLE
   6              	>>  .p2align 2,0x55
   6              	>> VE_MINUSONE:
   6 1568 00000000 	>>  .word 99b
   6 156c 00000000 	>> 99:.word Flag_visible
   6 1570 00       	>>  .byte 8f-7f
   6 1571 2D31     	>> 7:.ascii "-1"
   6 1573 AA       	>> 8:.p2align 2,0xaa
   6 1574 00000000 	>>  XT_MINUSONE:.word PFA_DOVARIABLE
   6              	>>  PFA_MINUSONE:
   6 1578 FFFFFFFF 	>  .word -1
   7              	CONSTANT "true", TRUE, -1
   7              	>  HEADER Flag_visible,"true",TRUE,PFA_DOVARIABLE
   7              	>>  .p2align 2,0x55
   7              	>> VE_TRUE:
   7 157c 00000000 	>>  .word 99b
   7 1580 00000000 	>> 99:.word Flag_visible
   7 1584 00       	>>  .byte 8f-7f
   7 1585 74727565 	>> 7:.ascii "true"
GAS LISTING hifive1.s 			page 60


   7 1589 AAAAAA   	>> 8:.p2align 2,0xaa
   7 158c 00000000 	>>  XT_TRUE:.word PFA_DOVARIABLE
   7              	>>  PFA_TRUE:
   7 1590 FFFFFFFF 	>  .word -1
   8              	CONSTANT "false", FALSE, 0
   8              	>  HEADER Flag_visible,"false",FALSE,PFA_DOVARIABLE
   8              	>>  .p2align 2,0x55
   8              	>> VE_FALSE:
   8 1594 00000000 	>>  .word 99b
   8 1598 00000000 	>> 99:.word Flag_visible
   8 159c 00       	>>  .byte 8f-7f
   8 159d 66616C73 	>> 7:.ascii "false"
   8      65
   8 15a2 AAAA     	>> 8:.p2align 2,0xaa
   8 15a4 00000000 	>>  XT_FALSE:.word PFA_DOVARIABLE
   8              	>>  PFA_FALSE:
   8 15a8 00000000 	>  .word 0
   7              	.include "words/warm.s"
   1              	
   2              	COLON "warm", WARM
   2              	>  HEADER Flag_visible,"warm",WARM,DOCOLON
   2              	>>  .p2align 2,0x55
   2              	>> VE_WARM:
   2 15ac 00000000 	>>  .word 99b
   2 15b0 00000000 	>> 99:.word Flag_visible
   2 15b4 00       	>>  .byte 8f-7f
   2 15b5 7761726D 	>> 7:.ascii "warm"
   2 15b9 AAAAAA   	>> 8:.p2align 2,0xaa
   2 15bc 00000000 	>>  XT_WARM:.word DOCOLON
   2              	>>  PFA_WARM:
   3 15c0 00000000 	  .word XT_INIT_RAM
   4 15c4 00000000 	  .word XT_LBRACKET
   5 15c8 00000000 	  .word XT_TURNKEY
   6 15cc 00000000 	  .word XT_QUIT
   7 15d0 00000000 	  .word XT_EXIT
   8              	.include "words/ms.s"
   1              	
   2              	COLON "ms", MS
   2              	>  HEADER Flag_visible,"ms",MS,DOCOLON
   2              	>>  .p2align 2,0x55
   2              	>> VE_MS:
   2 15d4 00000000 	>>  .word 99b
   2 15d8 00000000 	>> 99:.word Flag_visible
   2 15dc 00       	>>  .byte 8f-7f
   2 15dd 6D73     	>> 7:.ascii "ms"
   2 15df AA       	>> 8:.p2align 2,0xaa
   2 15e0 00000000 	>>  XT_MS:.word DOCOLON
   2              	>>  PFA_MS:
   3              	
   4              	XT_MS_LOOP:
   5 15e4 00000000 	  .word XT_1MINUS
   6 15e8 00000000 	  .word XT_1MS
   7 15ec 00000000 	  .word XT_DUP,XT_ZEROEQUAL
   7      00000000 
   8 15f4 00000000 	  .word XT_DOCONDBRANCH
   9 15f8 00000000 	  .word XT_MS_LOOP
  10 15fc 00000000 	.word XT_DROP,XT_EXIT
GAS LISTING hifive1.s 			page 61


  10      00000000 
   9              	.include "words/cr.s"
   1              	COLON "cr", CR
   1              	>  HEADER Flag_visible,"cr",CR,DOCOLON
   1              	>>  .p2align 2,0x55
   1              	>> VE_CR:
   1 1604 00000000 	>>  .word 99b
   1 1608 00000000 	>> 99:.word Flag_visible
   1 160c 00       	>>  .byte 8f-7f
   1 160d 6372     	>> 7:.ascii "cr"
   1 160f AA       	>> 8:.p2align 2,0xaa
   1 1610 00000000 	>>  XT_CR:.word DOCOLON
   1              	>>  PFA_CR:
   2              	
   3 1614 00000000 	.word XT_DOLITERAL,13,XT_EMIT
   3      0D000000 
   3      00000000 
   4 1620 00000000 	.word XT_DOLITERAL,10,XT_EMIT
   4      0A000000 
   4      00000000 
   5 162c 00000000 	.word XT_EXIT
  10              	.include "words/bl.s"
   1              	
   2              	CONSTANT "bl", BL, 32
   2              	>  HEADER Flag_visible,"bl",BL,PFA_DOVARIABLE
   2              	>>  .p2align 2,0x55
   2              	>> VE_BL:
   2 1630 00000000 	>>  .word 99b
   2 1634 00000000 	>> 99:.word Flag_visible
   2 1638 00       	>>  .byte 8f-7f
   2 1639 626C     	>> 7:.ascii "bl"
   2 163b AA       	>> 8:.p2align 2,0xaa
   2 163c 00000000 	>>  XT_BL:.word PFA_DOVARIABLE
   2              	>>  PFA_BL:
   2 1640 20000000 	>  .word 32
  11              	.include "words/space.s"
   1              	
   2              	COLON "space", SPACE
   2              	>  HEADER Flag_visible,"space",SPACE,DOCOLON
   2              	>>  .p2align 2,0x55
   2              	>> VE_SPACE:
   2 1644 00000000 	>>  .word 99b
   2 1648 00000000 	>> 99:.word Flag_visible
   2 164c 00       	>>  .byte 8f-7f
   2 164d 73706163 	>> 7:.ascii "space"
   2      65
   2 1652 AAAA     	>> 8:.p2align 2,0xaa
   2 1654 00000000 	>>  XT_SPACE:.word DOCOLON
   2              	>>  PFA_SPACE:
   3              	
   4 1658 00000000 	.word XT_BL,XT_EMIT,XT_EXIT
   4      00000000 
   4      00000000 
  12              	.include "words/spaces.s"
   1              	
   2              	COLON "spaces", SPACES
   2              	>  HEADER Flag_visible,"spaces",SPACES,DOCOLON
GAS LISTING hifive1.s 			page 62


   2              	>>  .p2align 2,0x55
   2              	>> VE_SPACES:
   2 1664 00000000 	>>  .word 99b
   2 1668 00000000 	>> 99:.word Flag_visible
   2 166c 00       	>>  .byte 8f-7f
   2 166d 73706163 	>> 7:.ascii "spaces"
   2      6573
   2 1673 AA       	>> 8:.p2align 2,0xaa
   2 1674 00000000 	>>  XT_SPACES:.word DOCOLON
   2              	>>  PFA_SPACES:
   3              	
   4 1678 00000000 	.word XT_ZERO, XT_MAX
   4      00000000 
   5              	SPCS1:
   6 1680 00000000 	  .word XT_DUP,XT_DOCONDBRANCH,SPCS2
   6      00000000 
   6      00000000 
   7 168c 00000000 	  .word XT_SPACE,XT_1MINUS,XT_DOBRANCH,SPCS1
   7      00000000 
   7      00000000 
   7      00000000 
   8              	SPCS2:  
   9 169c 00000000 	  .word XT_DROP,XT_EXIT
   9      00000000 
  13              	.include "words/left-bracket.s"
   1              	
   2              	COLON "[", LBRACKET
   2              	>  HEADER Flag_visible,"[",LBRACKET,DOCOLON
   2              	>>  .p2align 2,0x55
   2              	>> VE_LBRACKET:
   2 16a4 00000000 	>>  .word 99b
   2 16a8 00000000 	>> 99:.word Flag_visible
   2 16ac 00       	>>  .byte 8f-7f
   2 16ad 5B       	>> 7:.ascii "["
   2 16ae AAAA     	>> 8:.p2align 2,0xaa
   2 16b0 00000000 	>>  XT_LBRACKET:.word DOCOLON
   2              	>>  PFA_LBRACKET:
   3 16b4 00000000 	.word XT_ZERO, XT_STATE, XT_STORE
   3      00000000 
   3      00000000 
   4 16c0 00000000 	.word XT_EXIT
  14              	.include "words/l-paren.s"
   1              	
   2              	IMMED "(", LPAREN
   2              	>  HEADER Flag_visible|Flag_immediate,(,LPAREN,DOCOLON
   2              	>>  .p2align 2,0x55
   2              	>> VE_LPAREN:
   2 16c4 00000000 	>>  .word 99b
   2 16c8 10000000 	>> 99:.word Flag_visible|Flag_immediate
   2 16cc 00       	>>  .byte 8f-7f
   2 16cd 28       	>> 7:.ascii "("
   2 16ce AAAA     	>> 8:.p2align 2,0xaa
   2 16d0 00000000 	>>  XT_LPAREN:.word DOCOLON
   2              	>>  PFA_LPAREN:
   3 16d4 00000000 	    .word XT_DOLITERAL, 0x29
   3      29000000 
   4 16dc 00000000 	    .word XT_PARSE
GAS LISTING hifive1.s 			page 63


   5 16e0 00000000 	    .word XT_2DROP
   6 16e4 00000000 	    .word XT_EXIT
  15              	.include "words/decimal.s"
   1              	
   2              	COLON "decimal", DECIMAL
   2              	>  HEADER Flag_visible,"decimal",DECIMAL,DOCOLON
   2              	>>  .p2align 2,0x55
   2              	>> VE_DECIMAL:
   2 16e8 00000000 	>>  .word 99b
   2 16ec 00000000 	>> 99:.word Flag_visible
   2 16f0 00       	>>  .byte 8f-7f
   2 16f1 64656369 	>> 7:.ascii "decimal"
   2      6D616C
   2              	>> 8:.p2align 2,0xaa
   2 16f8 00000000 	>>  XT_DECIMAL:.word DOCOLON
   2              	>>  PFA_DECIMAL:
   3 16fc 00000000 	.word XT_DOLITERAL,10,XT_BASE,XT_STORE,XT_EXIT
   3      0A000000 
   3      00000000 
   3      00000000 
   3      00000000 
  16              	.include "words/hex.s"
   1              	
   2              	COLON "hex", HEX
   2              	>  HEADER Flag_visible,"hex",HEX,DOCOLON
   2              	>>  .p2align 2,0x55
   2              	>> VE_HEX:
   2 1710 00000000 	>>  .word 99b
   2 1714 00000000 	>> 99:.word Flag_visible
   2 1718 00       	>>  .byte 8f-7f
   2 1719 686578   	>> 7:.ascii "hex"
   2              	>> 8:.p2align 2,0xaa
   2 171c 00000000 	>>  XT_HEX:.word DOCOLON
   2              	>>  PFA_HEX:
   3 1720 00000000 	.word XT_DOLITERAL,16,XT_BASE,XT_STORE,XT_EXIT
   3      10000000 
   3      00000000 
   3      00000000 
   3      00000000 
  17              	
  18              	.include "words/pad.s"
   1              	COLON "pad", PAD
   1              	>  HEADER Flag_visible,"pad",PAD,DOCOLON
   1              	>>  .p2align 2,0x55
   1              	>> VE_PAD:
   1 1734 00000000 	>>  .word 99b
   1 1738 00000000 	>> 99:.word Flag_visible
   1 173c 00       	>>  .byte 8f-7f
   1 173d 706164   	>> 7:.ascii "pad"
   1              	>> 8:.p2align 2,0xaa
   1 1740 00000000 	>>  XT_PAD:.word DOCOLON
   1              	>>  PFA_PAD:
   2 1744 00000000 	    .word XT_HERE, XT_DOLITERAL, 40
   2      00000000 
   2      28000000 
   3 1750 00000000 	    .word XT_PLUS, XT_EXIT
   3      00000000 
GAS LISTING hifive1.s 			page 64


  19              	.include "words/here.s"
   1              	
   2              	COLON "here", HERE
   2              	>  HEADER Flag_visible,"here",HERE,DOCOLON
   2              	>>  .p2align 2,0x55
   2              	>> VE_HERE:
   2 1758 00000000 	>>  .word 99b
   2 175c 00000000 	>> 99:.word Flag_visible
   2 1760 00       	>>  .byte 8f-7f
   2 1761 68657265 	>> 7:.ascii "here"
   2 1765 AAAAAA   	>> 8:.p2align 2,0xaa
   2 1768 00000000 	>>  XT_HERE:.word DOCOLON
   2              	>>  PFA_HERE:
   3 176c 00000000 	  .word XT_DP, XT_EXIT
   3      00000000 
  20              	.include "words/allot.s"
   1              	
   2              	COLON "allot", ALLOT
   2              	>  HEADER Flag_visible,"allot",ALLOT,DOCOLON
   2              	>>  .p2align 2,0x55
   2              	>> VE_ALLOT:
   2 1774 00000000 	>>  .word 99b
   2 1778 00000000 	>> 99:.word Flag_visible
   2 177c 00       	>>  .byte 8f-7f
   2 177d 616C6C6F 	>> 7:.ascii "allot"
   2      74
   2 1782 AAAA     	>> 8:.p2align 2,0xaa
   2 1784 00000000 	>>  XT_ALLOT:.word DOCOLON
   2              	>>  PFA_ALLOT:
   3 1788 00000000 	    .word XT_DP
   4 178c 00000000 	    .word XT_PLUS
   5 1790 00000000 	    .word XT_DOTO, XT_DP
   5      00000000 
   6 1798 00000000 	    .word XT_EXIT
  21              	
  22              	.include "words/hold.s"
   1              	
   2              	VARIABLE "hld", HLD
   2              	>  HEADER Flag_visible|Flag_variable,"hld",HLD,PFA_DOVARIABLE
   2              	>>  .p2align 2,0x55
   2              	>> VE_HLD:
   2 179c 00000000 	>>  .word 99b
   2 17a0 01010000 	>> 99:.word Flag_visible|Flag_variable
   2 17a4 00       	>>  .byte 8f-7f
   2 17a5 686C64   	>> 7:.ascii "hld"
   2              	>> 8:.p2align 2,0xaa
   2 17a8 00000000 	>>  XT_HLD:.word PFA_DOVARIABLE
   2              	>>  PFA_HLD:
   2 17ac 24020080 	>  .word rampointer
   2              	>  .set rampointer,rampointer+4
   3              	
   4              	COLON "hold", HOLD
   4              	>  HEADER Flag_visible,"hold",HOLD,DOCOLON
   4              	>>  .p2align 2,0x55
   4              	>> VE_HOLD:
   4 17b0 00000000 	>>  .word 99b
   4 17b4 00000000 	>> 99:.word Flag_visible
GAS LISTING hifive1.s 			page 65


   4 17b8 00       	>>  .byte 8f-7f
   4 17b9 686F6C64 	>> 7:.ascii "hold"
   4 17bd AAAAAA   	>> 8:.p2align 2,0xaa
   4 17c0 00000000 	>>  XT_HOLD:.word DOCOLON
   4              	>>  PFA_HOLD:
   5 17c4 00000000 	    .word XT_HLD, XT_DUP, XT_FETCH
   5      00000000 
   5      00000000 
   6 17d0 00000000 	    .word XT_1MINUS, XT_DUP, XT_TO_R
   6      00000000 
   6      00000000 
   7 17dc 00000000 	    .word XT_SWAP, XT_STORE, XT_R_FROM
   7      00000000 
   7      00000000 
   8 17e8 00000000 	    .word XT_CSTORE, XT_EXIT
   8      00000000 
  23              	.include "words/sharp.s"
   1              	
   2              	COLON "<#", L_SHARP
   2              	>  HEADER Flag_visible,"<#",L_SHARP,DOCOLON
   2              	>>  .p2align 2,0x55
   2              	>> VE_L_SHARP:
   2 17f0 00000000 	>>  .word 99b
   2 17f4 00000000 	>> 99:.word Flag_visible
   2 17f8 00       	>>  .byte 8f-7f
   2 17f9 3C23     	>> 7:.ascii "<#"
   2 17fb AA       	>> 8:.p2align 2,0xaa
   2 17fc 00000000 	>>  XT_L_SHARP:.word DOCOLON
   2              	>>  PFA_L_SHARP:
   3              	
   4 1800 00000000 	    .word XT_PAD, XT_HLD, XT_STORE
   4      00000000 
   4      00000000 
   5 180c 00000000 	    .word XT_EXIT
   6              	
   7              	COLON "#", SHARP
   7              	>  HEADER Flag_visible,"#",SHARP,DOCOLON
   7              	>>  .p2align 2,0x55
   7              	>> VE_SHARP:
   7 1810 00000000 	>>  .word 99b
   7 1814 00000000 	>> 99:.word Flag_visible
   7 1818 00       	>>  .byte 8f-7f
   7 1819 23       	>> 7:.ascii "#"
   7 181a AAAA     	>> 8:.p2align 2,0xaa
   7 181c 00000000 	>>  XT_SHARP:.word DOCOLON
   7              	>>  PFA_SHARP:
   8              	
   9 1820 00000000 	    .word XT_BASE, XT_FETCH
   9      00000000 
  10 1828 00000000 	    .word XT_UDSLASHMOD, XT_ROT
  10      00000000 
  11 1830 00000000 	    .word XT_DOLITERAL, 9
  11      09000000 
  12 1838 00000000 	    .word XT_OVER, XT_LESS
  12      00000000 
  13 1840 00000000 	    .word XT_DOCONDBRANCH, PFA_SHARP1
  13      00000000 
GAS LISTING hifive1.s 			page 66


  14 1848 00000000 	    .word XT_DOLITERAL, 7, XT_PLUS
  14      07000000 
  14      00000000 
  15              	PFA_SHARP1:
  16 1854 00000000 	    .word XT_DOLITERAL, 48, XT_PLUS
  16      30000000 
  16      00000000 
  17 1860 00000000 	    .word XT_HOLD, XT_EXIT
  17      00000000 
  18              	
  19              	COLON "#s", SHARP_S
  19              	>  HEADER Flag_visible,"#s",SHARP_S,DOCOLON
  19              	>>  .p2align 2,0x55
  19              	>> VE_SHARP_S:
  19 1868 00000000 	>>  .word 99b
  19 186c 00000000 	>> 99:.word Flag_visible
  19 1870 00       	>>  .byte 8f-7f
  19 1871 2373     	>> 7:.ascii "#s"
  19 1873 AA       	>> 8:.p2align 2,0xaa
  19 1874 00000000 	>>  XT_SHARP_S:.word DOCOLON
  19              	>>  PFA_SHARP_S:
  20 1878 00000000 	    .word XT_SHARP, XT_2DUP, XT_OR
  20      00000000 
  20      00000000 
  21 1884 00000000 	    .word XT_ZEROEQUAL, XT_DOCONDBRANCH, PFA_SHARP_S
  21      00000000 
  21      00000000 
  22 1890 00000000 	    .word XT_EXIT
  23              	
  24              	COLON "#>", SHARP_G
  24              	>  HEADER Flag_visible,"#>",SHARP_G,DOCOLON
  24              	>>  .p2align 2,0x55
  24              	>> VE_SHARP_G:
  24 1894 00000000 	>>  .word 99b
  24 1898 00000000 	>> 99:.word Flag_visible
  24 189c 00       	>>  .byte 8f-7f
  24 189d 233E     	>> 7:.ascii "#>"
  24 189f AA       	>> 8:.p2align 2,0xaa
  24 18a0 00000000 	>>  XT_SHARP_G:.word DOCOLON
  24              	>>  PFA_SHARP_G:
  25 18a4 00000000 	    .word XT_2DROP, XT_HLD, XT_FETCH
  25      00000000 
  25      00000000 
  26 18b0 00000000 	    .word XT_PAD, XT_OVER, XT_MINUS
  26      00000000 
  26      00000000 
  27 18bc 00000000 	    .word XT_EXIT
  24              	.include "words/sign.s"
   1              	
   2              	COLON "sign", SIGN
   2              	>  HEADER Flag_visible,"sign",SIGN,DOCOLON
   2              	>>  .p2align 2,0x55
   2              	>> VE_SIGN:
   2 18c0 00000000 	>>  .word 99b
   2 18c4 00000000 	>> 99:.word Flag_visible
   2 18c8 00       	>>  .byte 8f-7f
   2 18c9 7369676E 	>> 7:.ascii "sign"
GAS LISTING hifive1.s 			page 67


   2 18cd AAAAAA   	>> 8:.p2align 2,0xaa
   2 18d0 00000000 	>>  XT_SIGN:.word DOCOLON
   2              	>>  PFA_SIGN:
   3 18d4 00000000 	    .word XT_ZEROLESS
   4 18d8 00000000 	    .word XT_DOCONDBRANCH
   5 18dc 00000000 	    .word PFA_SIGN1
   6 18e0 00000000 	    .word XT_DOLITERAL
   7 18e4 2D000000 	    .word 45 
   8 18e8 00000000 	    .word XT_HOLD
   9              	PFA_SIGN1:
  10 18ec 00000000 	    .word XT_EXIT
  25              	.include "words/dot.s"
   1              	
   2              	COLON ".", DOT
   2              	>  HEADER Flag_visible,".",DOT,DOCOLON
   2              	>>  .p2align 2,0x55
   2              	>> VE_DOT:
   2 18f0 00000000 	>>  .word 99b
   2 18f4 00000000 	>> 99:.word Flag_visible
   2 18f8 00       	>>  .byte 8f-7f
   2 18f9 2E       	>> 7:.ascii "."
   2 18fa AAAA     	>> 8:.p2align 2,0xaa
   2 18fc 00000000 	>>  XT_DOT:.word DOCOLON
   2              	>>  PFA_DOT:
   3 1900 00000000 	   .word XT_S2D, XT_DDOT, XT_EXIT
   3      00000000 
   3      00000000 
  26              	.include "words/d-dot-r.s"
   1              	
   2              	COLON "d.r", DDOTR
   2              	>  HEADER Flag_visible,"d.r",DDOTR,DOCOLON
   2              	>>  .p2align 2,0x55
   2              	>> VE_DDOTR:
   2 190c 00000000 	>>  .word 99b
   2 1910 00000000 	>> 99:.word Flag_visible
   2 1914 00       	>>  .byte 8f-7f
   2 1915 642E72   	>> 7:.ascii "d.r"
   2              	>> 8:.p2align 2,0xaa
   2 1918 00000000 	>>  XT_DDOTR:.word DOCOLON
   2              	>>  PFA_DDOTR:
   3 191c 00000000 	.word XT_TO_R, XT_TUCK, XT_DABS, XT_L_SHARP
   3      00000000 
   3      00000000 
   3      00000000 
   4 192c 00000000 	.word XT_SHARP_S, XT_ROT, XT_SIGN, XT_SHARP_G
   4      00000000 
   4      00000000 
   4      00000000 
   5 193c 00000000 	.word XT_R_FROM, XT_OVER, XT_MINUS, XT_SPACES
   5      00000000 
   5      00000000 
   5      00000000 
   6 194c 00000000 	.word XT_TYPE, XT_EXIT
   6      00000000 
  27              	.include "words/d-dot.s"
   1              	
   2              	COLON "d.", DDOT
GAS LISTING hifive1.s 			page 68


   2              	>  HEADER Flag_visible,"d.",DDOT,DOCOLON
   2              	>>  .p2align 2,0x55
   2              	>> VE_DDOT:
   2 1954 00000000 	>>  .word 99b
   2 1958 00000000 	>> 99:.word Flag_visible
   2 195c 00       	>>  .byte 8f-7f
   2 195d 642E     	>> 7:.ascii "d."
   2 195f AA       	>> 8:.p2align 2,0xaa
   2 1960 00000000 	>>  XT_DDOT:.word DOCOLON
   2              	>>  PFA_DDOT:
   3 1964 00000000 	.word  XT_ZERO, XT_DDOTR, XT_SPACE, XT_EXIT
   3      00000000 
   3      00000000 
   3      00000000 
  28              	.include "words/u-dot.s"
   1              	COLON "u.", UDOT
   1              	>  HEADER Flag_visible,"u.",UDOT,DOCOLON
   1              	>>  .p2align 2,0x55
   1              	>> VE_UDOT:
   1 1974 00000000 	>>  .word 99b
   1 1978 00000000 	>> 99:.word Flag_visible
   1 197c 00       	>>  .byte 8f-7f
   1 197d 752E     	>> 7:.ascii "u."
   1 197f AA       	>> 8:.p2align 2,0xaa
   1 1980 00000000 	>>  XT_UDOT:.word DOCOLON
   1              	>>  PFA_UDOT:
   2 1984 00000000 	.word  XT_ZERO, XT_UDDOT, XT_EXIT
   2      00000000 
   2      00000000 
  29              	.include "words/ud-dot.s"
   1              	
   2              	COLON "ud.", UDDOT
   2              	>  HEADER Flag_visible,"ud.",UDDOT,DOCOLON
   2              	>>  .p2align 2,0x55
   2              	>> VE_UDDOT:
   2 1990 00000000 	>>  .word 99b
   2 1994 00000000 	>> 99:.word Flag_visible
   2 1998 00       	>>  .byte 8f-7f
   2 1999 75642E   	>> 7:.ascii "ud."
   2              	>> 8:.p2align 2,0xaa
   2 199c 00000000 	>>  XT_UDDOT:.word DOCOLON
   2              	>>  PFA_UDDOT:
   3 19a0 00000000 	.word XT_ZERO, XT_UDDOTR, XT_SPACE, XT_EXIT
   3      00000000 
   3      00000000 
   3      00000000 
  30              	.include "words/ud-dot-r.s"
   1              	
   2              	COLON "ud.r", UDDOTR
   2              	>  HEADER Flag_visible,"ud.r",UDDOTR,DOCOLON
   2              	>>  .p2align 2,0x55
   2              	>> VE_UDDOTR:
   2 19b0 00000000 	>>  .word 99b
   2 19b4 00000000 	>> 99:.word Flag_visible
   2 19b8 00       	>>  .byte 8f-7f
   2 19b9 75642E72 	>> 7:.ascii "ud.r"
   2 19bd AAAAAA   	>> 8:.p2align 2,0xaa
GAS LISTING hifive1.s 			page 69


   2 19c0 00000000 	>>  XT_UDDOTR:.word DOCOLON
   2              	>>  PFA_UDDOTR:
   3 19c4 00000000 	.word  XT_TO_R, XT_L_SHARP, XT_SHARP_S
   3      00000000 
   3      00000000 
   4 19d0 00000000 	.word  XT_SHARP_G, XT_R_FROM,  XT_OVER
   4      00000000 
   4      00000000 
   5 19dc 00000000 	.word  XT_MINUS, XT_SPACES, XT_TYPE, XT_EXIT
   5      00000000 
   5      00000000 
   5      00000000 
  31              	
  32              	.include "words/dot-s.s"
   1              	
   2              	COLON ".s", DOTS
   2              	>  HEADER Flag_visible,".s",DOTS,DOCOLON
   2              	>>  .p2align 2,0x55
   2              	>> VE_DOTS:
   2 19ec 00000000 	>>  .word 99b
   2 19f0 00000000 	>> 99:.word Flag_visible
   2 19f4 00       	>>  .byte 8f-7f
   2 19f5 2E73     	>> 7:.ascii ".s"
   2 19f7 AA       	>> 8:.p2align 2,0xaa
   2 19f8 00000000 	>>  XT_DOTS:.word DOCOLON
   2              	>>  PFA_DOTS:
   3              	
   4 19fc 00000000 	    .word XT_DEPTH
   5 1a00 00000000 	    .word XT_UDOT
   6 1a04 00000000 	    .word XT_SPACE
   7 1a08 00000000 	    .word XT_DEPTH
   8 1a0c 00000000 	    .word XT_ZERO
   9 1a10 00000000 	    .word XT_QDOCHECK, XT_DOCONDBRANCH,PFA_DOTS2
   9      00000000 
   9      00000000 
  10 1a1c 00000000 	    .word XT_DODO
  11              	PFA_DOTS1:
  12 1a20 00000000 	    .word XT_I
  13 1a24 00000000 	    .word XT_PICK
  14 1a28 00000000 	    .word XT_DOT
  15 1a2c 00000000 	    .word XT_DOLOOP,PFA_DOTS1
  15      00000000 
  16              	PFA_DOTS2:
  17 1a34 00000000 	    .word XT_EXIT
  33              	
  34              	.include "words/refill.s"
   1              	
   2              	DEFER "refill", REFILL, XT_REFILLTIB
   2              	>  HEADER Flag_visible|Flag_defer|Flag_init,"refill",REFILL,PFA_DODEFER
   2              	>>  .p2align 2,0x55
   2              	>> VE_REFILL:
   2 1a38 00000000 	>>  .word 99b
   2 1a3c C0000000 	>> 99:.word Flag_visible|Flag_defer|Flag_init
   2 1a40 00       	>>  .byte 8f-7f
   2 1a41 72656669 	>> 7:.ascii "refill"
   2      6C6C
   2 1a47 AA       	>> 8:.p2align 2,0xaa
GAS LISTING hifive1.s 			page 70


   2 1a48 00000000 	>>  XT_REFILL:.word PFA_DODEFER
   2              	>>  PFA_REFILL:
   2 1a4c 28020080 	>  .word rampointer
   2              	>  .equ DEFER_RAM_REFILL,rampointer
   2              	>  .set rampointer,rampointer+4
   2 1a50 00000000 	>  .word XT_REFILLTIB
   2 1a54 00000000 	>  .word XT_FETCH
   2 1a58 00000000 	>  .word XT_STORE
   3              	
   4              	COLON "refill-tib", REFILLTIB
   4              	>  HEADER Flag_visible,"refill-tib",REFILLTIB,DOCOLON
   4              	>>  .p2align 2,0x55
   4              	>> VE_REFILLTIB:
   4 1a5c 00000000 	>>  .word 99b
   4 1a60 00000000 	>> 99:.word Flag_visible
   4 1a64 00       	>>  .byte 8f-7f
   4 1a65 72656669 	>> 7:.ascii "refill-tib"
   4      6C6C2D74 
   4      6962
   4 1a6f AA       	>> 8:.p2align 2,0xaa
   4 1a70 00000000 	>>  XT_REFILLTIB:.word DOCOLON
   4              	>>  PFA_REFILLTIB:
   5              	
   6 1a74 00000000 	    .word XT_TIB
   7 1a78 00000000 	    .word XT_DOLITERAL
   8 1a7c 60000000 	    .word refill_buf_size
   9 1a80 00000000 	    .word XT_ACCEPT
  10 1a84 00000000 	    .word XT_NUMBERTIB
  11 1a88 00000000 	    .word XT_STORE
  12 1a8c 00000000 	    .word XT_ZERO
  13 1a90 00000000 	    .word XT_TO_IN
  14 1a94 00000000 	    .word XT_STORE
  15 1a98 00000000 	    .word XT_TRUE 
  16 1a9c 00000000 	    .word XT_EXIT
  35              	.include "words/accept.s"
   1              	
   2              	COLON "accept", ACCEPT
   2              	>  HEADER Flag_visible,"accept",ACCEPT,DOCOLON
   2              	>>  .p2align 2,0x55
   2              	>> VE_ACCEPT:
   2 1aa0 00000000 	>>  .word 99b
   2 1aa4 00000000 	>> 99:.word Flag_visible
   2 1aa8 00       	>>  .byte 8f-7f
   2 1aa9 61636365 	>> 7:.ascii "accept"
   2      7074
   2 1aaf AA       	>> 8:.p2align 2,0xaa
   2 1ab0 00000000 	>>  XT_ACCEPT:.word DOCOLON
   2              	>>  PFA_ACCEPT:
   3              	
   4 1ab4 00000000 	        .word XT_OVER,XT_PLUS,XT_OVER
   4      00000000 
   4      00000000 
   5 1ac0 00000000 	ACC1:   .word XT_KEY,XT_DUP,XT_CRLFQ,XT_ZEROEQUAL,XT_DOCONDBRANCH
   5      00000000 
   5      00000000 
   5      00000000 
   5      00000000 
GAS LISTING hifive1.s 			page 71


   6 1ad4 00000000 	        .word ACC5
   7 1ad8 00000000 	        .word XT_DUP,XT_DOLITERAL,8,XT_EQUAL,XT_DOCONDBRANCH
   7      00000000 
   7      08000000 
   7      00000000 
   7      00000000 
   8 1aec 00000000 	        .word ACC3
   9 1af0 00000000 	        .word XT_DROP,XT_ROT,XT_2DUP,XT_GREATER,XT_TO_R,XT_ROT,XT_ROT,XT_R_FROM,XT_DOCONDBRANCH
   9      00000000 
   9      00000000 
   9      00000000 
   9      00000000 
  10 1b14 00000000 		.word ACC6
  11 1b18 00000000 		.word XT_BS,XT_1MINUS,XT_TO_R,XT_OVER,XT_R_FROM,XT_UMAX
  11      00000000 
  11      00000000 
  11      00000000 
  11      00000000 
  12 1b30 00000000 	ACC6:   .word XT_DOBRANCH
  13 1b34 00000000 	        .word ACC4
  14              	ACC3:    
  15 1b38 00000000 		.word XT_DUP,XT_BL,XT_LESS,XT_DOCONDBRANCH
  15      00000000 
  15      00000000 
  15      00000000 
  16 1b48 00000000 	        .word PFA_ACCEPT6
  17 1b4c 00000000 	          .word XT_DROP
  18 1b50 00000000 	          .word XT_BL
  19              	PFA_ACCEPT6:
  20 1b54 00000000 		.word XT_TO_R,XT_2DUP,XT_GREATER,XT_R_FROM,XT_SWAP,XT_DOCONDBRANCH
  20      00000000 
  20      00000000 
  20      00000000 
  20      00000000 
  21 1b6c 00000000 	        .word ACC7
  22 1b70 00000000 	            .word XT_DUP,XT_EMIT,XT_OVER,XT_CSTORE,XT_1PLUS,XT_OVER,XT_UMIN
  22      00000000 
  22      00000000 
  22      00000000 
  22      00000000 
  23 1b8c 00000000 		    .word XT_DOBRANCH
  24 1b90 00000000 		    .word ACC4 
  25 1b94 00000000 	ACC7:   .word XT_DROP
  26 1b98 00000000 	ACC4:   .word XT_DOBRANCH
  27 1b9c 00000000 	        .word ACC1
  28 1ba0 00000000 	ACC5:   .word XT_DROP,XT_NIP,XT_SWAP,XT_MINUS,XT_EXIT
  28      00000000 
  28      00000000 
  28      00000000 
  28      00000000 
  29              	
  30              	
  31              	COLON "bs", BS
  31              	>  HEADER Flag_visible,"bs",BS,DOCOLON
  31              	>>  .p2align 2,0x55
  31              	>> VE_BS:
  31 1bb4 00000000 	>>  .word 99b
GAS LISTING hifive1.s 			page 72


  31 1bb8 00000000 	>> 99:.word Flag_visible
  31 1bbc 00       	>>  .byte 8f-7f
  31 1bbd 6273     	>> 7:.ascii "bs"
  31 1bbf AA       	>> 8:.p2align 2,0xaa
  31 1bc0 00000000 	>>  XT_BS:.word DOCOLON
  31              	>>  PFA_BS:
  32 1bc4 00000000 	    .word XT_DOLITERAL
  33 1bc8 08000000 	    .word 8
  34 1bcc 00000000 	    .word XT_DUP
  35 1bd0 00000000 	    .word XT_EMIT
  36 1bd4 00000000 	    .word XT_SPACE
  37 1bd8 00000000 	    .word XT_EMIT
  38 1bdc 00000000 	    .word XT_EXIT
  39              	
  40              	COLON "?crlf", CRLFQ
  40              	>  HEADER Flag_visible,"?crlf",CRLFQ,DOCOLON
  40              	>>  .p2align 2,0x55
  40              	>> VE_CRLFQ:
  40 1be0 00000000 	>>  .word 99b
  40 1be4 00000000 	>> 99:.word Flag_visible
  40 1be8 00       	>>  .byte 8f-7f
  40 1be9 3F63726C 	>> 7:.ascii "?crlf"
  40      66
  40 1bee AAAA     	>> 8:.p2align 2,0xaa
  40 1bf0 00000000 	>>  XT_CRLFQ:.word DOCOLON
  40              	>>  PFA_CRLFQ:
  41              	
  42 1bf4 00000000 	    .word XT_DUP
  43 1bf8 00000000 	    .word XT_DOLITERAL
  44 1bfc 0D000000 	    .word 13
  45 1c00 00000000 	    .word XT_EQUAL
  46 1c04 00000000 	    .word XT_SWAP
  47 1c08 00000000 	    .word XT_DOLITERAL
  48 1c0c 0A000000 	    .word 10
  49 1c10 00000000 	    .word XT_EQUAL
  50 1c14 00000000 	    .word XT_OR
  51 1c18 00000000 	    .word XT_EXIT
  36              	.include "words/prompt-error.s"
   1              	
   2              	DEFER ".error", PROMPTERROR, XT_PROMPTERROR_DEFAULT
   2              	>  HEADER Flag_visible|Flag_defer|Flag_init,".error",PROMPTERROR,PFA_DODEFER
   2              	>>  .p2align 2,0x55
   2              	>> VE_PROMPTERROR:
   2 1c1c 00000000 	>>  .word 99b
   2 1c20 C0000000 	>> 99:.word Flag_visible|Flag_defer|Flag_init
   2 1c24 00       	>>  .byte 8f-7f
   2 1c25 2E657272 	>> 7:.ascii ".error"
   2      6F72
   2 1c2b AA       	>> 8:.p2align 2,0xaa
   2 1c2c 00000000 	>>  XT_PROMPTERROR:.word PFA_DODEFER
   2              	>>  PFA_PROMPTERROR:
   2 1c30 2C020080 	>  .word rampointer
   2              	>  .equ DEFER_RAM_PROMPTERROR,rampointer
   2              	>  .set rampointer,rampointer+4
   2 1c34 00000000 	>  .word XT_PROMPTERROR_DEFAULT
   2 1c38 00000000 	>  .word XT_FETCH
   2 1c3c 00000000 	>  .word XT_STORE
GAS LISTING hifive1.s 			page 73


   3              	
   4              	NONAME PROMPTERROR_DEFAULT
   4 1c40 00000000 	>  XT_PROMPTERROR_DEFAULT:.word DOCOLON
   4              	>  PFA_PROMPTERROR_DEFAULT:
   5              	    STRING " ?? "
   5 1c44 00000000 	>  .word XT_DOSLITERAL
   5 1c48 00       	>  .byte 8f-7f
   5 1c49 203F3F20 	> 7:.ascii " ?? "
   5 1c4d 0F0F0F   	> 8:.p2align 2,0x0f
   6 1c50 00000000 	    .word XT_TYPE
   7 1c54 00000000 	    .word XT_BASE
   8 1c58 00000000 	    .word XT_FETCH
   9 1c5c 00000000 	    .word XT_TO_R
  10 1c60 00000000 	    .word XT_DECIMAL
  11 1c64 00000000 	    .word XT_DOT
  12 1c68 00000000 	    .word XT_TO_IN
  13 1c6c 00000000 	    .word XT_FETCH
  14 1c70 00000000 	    .word XT_DOT
  15 1c74 00000000 	    .word XT_R_FROM
  16 1c78 00000000 	    .word XT_BASE
  17 1c7c 00000000 	    .word XT_STORE
  18 1c80 00000000 	    .word XT_EXIT
  37              	.include "words/prompt-input.s"
   1              	
   2              	DEFER ".input", PROMPTINPUT, XT_PROMPTINPUT_DEFAULT
   2              	>  HEADER Flag_visible|Flag_defer|Flag_init,".input",PROMPTINPUT,PFA_DODEFER
   2              	>>  .p2align 2,0x55
   2              	>> VE_PROMPTINPUT:
   2 1c84 00000000 	>>  .word 99b
   2 1c88 C0000000 	>> 99:.word Flag_visible|Flag_defer|Flag_init
   2 1c8c 00       	>>  .byte 8f-7f
   2 1c8d 2E696E70 	>> 7:.ascii ".input"
   2      7574
   2 1c93 AA       	>> 8:.p2align 2,0xaa
   2 1c94 00000000 	>>  XT_PROMPTINPUT:.word PFA_DODEFER
   2              	>>  PFA_PROMPTINPUT:
   2 1c98 30020080 	>  .word rampointer
   2              	>  .equ DEFER_RAM_PROMPTINPUT,rampointer
   2              	>  .set rampointer,rampointer+4
   2 1c9c 00000000 	>  .word XT_PROMPTINPUT_DEFAULT
   2 1ca0 00000000 	>  .word XT_FETCH
   2 1ca4 00000000 	>  .word XT_STORE
   3              	
   4              	NONAME PROMPTINPUT_DEFAULT
   4 1ca8 00000000 	>  XT_PROMPTINPUT_DEFAULT:.word DOCOLON
   4              	>  PFA_PROMPTINPUT_DEFAULT:
   5 1cac 00000000 	    .word XT_CR
   6 1cb0 00000000 	    .word XT_EXIT
  38              	.include "words/prompt-ok.s"
   1              	
   2              	DEFER ".ok", PROMPTOK, XT_PROMPTOKDEFAULT
   2              	>  HEADER Flag_visible|Flag_defer|Flag_init,".ok",PROMPTOK,PFA_DODEFER
   2              	>>  .p2align 2,0x55
   2              	>> VE_PROMPTOK:
   2 1cb4 00000000 	>>  .word 99b
   2 1cb8 C0000000 	>> 99:.word Flag_visible|Flag_defer|Flag_init
   2 1cbc 00       	>>  .byte 8f-7f
GAS LISTING hifive1.s 			page 74


   2 1cbd 2E6F6B   	>> 7:.ascii ".ok"
   2              	>> 8:.p2align 2,0xaa
   2 1cc0 00000000 	>>  XT_PROMPTOK:.word PFA_DODEFER
   2              	>>  PFA_PROMPTOK:
   2 1cc4 34020080 	>  .word rampointer
   2              	>  .equ DEFER_RAM_PROMPTOK,rampointer
   2              	>  .set rampointer,rampointer+4
   2 1cc8 00000000 	>  .word XT_PROMPTOKDEFAULT
   2 1ccc 00000000 	>  .word XT_FETCH
   2 1cd0 00000000 	>  .word XT_STORE
   3              	
   4              	NONAME PROMPTOKDEFAULT
   4 1cd4 00000000 	>  XT_PROMPTOKDEFAULT:.word DOCOLON
   4              	>  PFA_PROMPTOKDEFAULT:
   5 1cd8 00000000 	    .word XT_STATE,XT_FETCH,XT_DROP
   5      00000000 
   5      00000000 
   6              	    STRING " ok"
   6 1ce4 00000000 	>  .word XT_DOSLITERAL
   6 1ce8 00       	>  .byte 8f-7f
   6 1ce9 206F6B   	> 7:.ascii " ok"
   6              	> 8:.p2align 2,0x0f
   7 1cec 00000000 	    .word XT_TYPE
   8 1cf0 00000000 	    .word XT_EXIT
  39              	.include "words/prompt-ready.s"
   1              	
   2              	DEFER ".ready", PROMPTREADY, XT_PROMPTREADYDEFAULT
   2              	>  HEADER Flag_visible|Flag_defer|Flag_init,".ready",PROMPTREADY,PFA_DODEFER
   2              	>>  .p2align 2,0x55
   2              	>> VE_PROMPTREADY:
   2 1cf4 00000000 	>>  .word 99b
   2 1cf8 C0000000 	>> 99:.word Flag_visible|Flag_defer|Flag_init
   2 1cfc 00       	>>  .byte 8f-7f
   2 1cfd 2E726561 	>> 7:.ascii ".ready"
   2      6479
   2 1d03 AA       	>> 8:.p2align 2,0xaa
   2 1d04 00000000 	>>  XT_PROMPTREADY:.word PFA_DODEFER
   2              	>>  PFA_PROMPTREADY:
   2 1d08 38020080 	>  .word rampointer
   2              	>  .equ DEFER_RAM_PROMPTREADY,rampointer
   2              	>  .set rampointer,rampointer+4
   2 1d0c 00000000 	>  .word XT_PROMPTREADYDEFAULT
   2 1d10 00000000 	>  .word XT_FETCH
   2 1d14 00000000 	>  .word XT_STORE
   3              	
   4              	NONAME PROMPTREADYDEFAULT
   4 1d18 00000000 	>  XT_PROMPTREADYDEFAULT:.word DOCOLON
   4              	>  PFA_PROMPTREADYDEFAULT:
   5              	
   6 1d1c 00000000 	    .word XT_CR
   7              	    STRING "> "
   7 1d20 00000000 	>  .word XT_DOSLITERAL
   7 1d24 00       	>  .byte 8f-7f
   7 1d25 3E20     	> 7:.ascii "> "
   7 1d27 0F       	> 8:.p2align 2,0x0f
   8 1d28 00000000 	    .word XT_TYPE
   9 1d2c 00000000 	    .word XT_EXIT
GAS LISTING hifive1.s 			page 75


  40              	
  41              	.include "words/catch.s"
   1              	
   2              	USER "handler", HANDLER, USER_HANDLER
   2              	>  HEADER Flag_visible|Flag_variable,"handler",HANDLER,PFA_DOUSER
   2              	>>  .p2align 2,0x55
   2              	>> VE_HANDLER:
   2 1d30 00000000 	>>  .word 99b
   2 1d34 01010000 	>> 99:.word Flag_visible|Flag_variable
   2 1d38 00       	>>  .byte 8f-7f
   2 1d39 68616E64 	>> 7:.ascii "handler"
   2      6C6572
   2              	>> 8:.p2align 2,0xaa
   2 1d40 00000000 	>>  XT_HANDLER:.word PFA_DOUSER
   2              	>>  PFA_HANDLER:
   2 1d44 14000000 	>  .word USER_HANDLER
   2              	>  .equ USER_HANDLER,USER_HANDLER
   3              	
   4              	COLON "catch", CATCH
   4              	>  HEADER Flag_visible,"catch",CATCH,DOCOLON
   4              	>>  .p2align 2,0x55
   4              	>> VE_CATCH:
   4 1d48 00000000 	>>  .word 99b
   4 1d4c 00000000 	>> 99:.word Flag_visible
   4 1d50 00       	>>  .byte 8f-7f
   4 1d51 63617463 	>> 7:.ascii "catch"
   4      68
   4 1d56 AAAA     	>> 8:.p2align 2,0xaa
   4 1d58 00000000 	>>  XT_CATCH:.word DOCOLON
   4              	>>  PFA_CATCH:
   5              	
   6 1d5c 00000000 	    .word XT_SP_FETCH
   7 1d60 00000000 	    .word XT_TO_R
   8 1d64 00000000 	    .word XT_HANDLER
   9 1d68 00000000 	    .word XT_FETCH
  10 1d6c 00000000 	    .word XT_TO_R
  11 1d70 00000000 	    .word XT_RP_FETCH
  12 1d74 00000000 	    .word XT_HANDLER
  13 1d78 00000000 	    .word XT_STORE
  14 1d7c 00000000 	    .word XT_EXECUTE
  15 1d80 00000000 	    .word XT_R_FROM
  16 1d84 00000000 	    .word XT_HANDLER
  17 1d88 00000000 	    .word XT_STORE
  18 1d8c 00000000 	    .word XT_R_FROM
  19 1d90 00000000 	    .word XT_DROP
  20 1d94 00000000 	    .word XT_ZERO
  21 1d98 00000000 	    .word XT_EXIT
  42              	.include "words/throw.s"
   1              	COLON "throw", THROW
   1              	>  HEADER Flag_visible,"throw",THROW,DOCOLON
   1              	>>  .p2align 2,0x55
   1              	>> VE_THROW:
   1 1d9c 00000000 	>>  .word 99b
   1 1da0 00000000 	>> 99:.word Flag_visible
   1 1da4 00       	>>  .byte 8f-7f
   1 1da5 7468726F 	>> 7:.ascii "throw"
   1      77
GAS LISTING hifive1.s 			page 76


   1 1daa AAAA     	>> 8:.p2align 2,0xaa
   1 1dac 00000000 	>>  XT_THROW:.word DOCOLON
   1              	>>  PFA_THROW:
   2              	
   3 1db0 00000000 	    .word XT_QDUP
   4 1db4 00000000 	    .word XT_DOCONDBRANCH,PFA_THROW1
   4      00000000 
   5 1dbc 00000000 	      .word XT_HANDLER
   6 1dc0 00000000 	      .word XT_FETCH
   7 1dc4 00000000 	      .word XT_RP_STORE
   8 1dc8 00000000 	      .word XT_R_FROM
   9 1dcc 00000000 	      .word XT_HANDLER
  10 1dd0 00000000 	      .word XT_STORE
  11 1dd4 00000000 	      .word XT_R_FROM
  12 1dd8 00000000 	      .word XT_SWAP
  13 1ddc 00000000 	      .word XT_TO_R
  14 1de0 00000000 	      .word XT_SP_STORE
  15 1de4 00000000 	      .word XT_DROP
  16 1de8 00000000 	      .word XT_R_FROM    
  17              	PFA_THROW1:
  18 1dec 00000000 	    .word XT_EXIT
  19              	
  43              	.include "words/source.s"
   1              	
   2              	DEFER "source", SOURCE, XT_SOURCETIB
   2              	>  HEADER Flag_visible|Flag_defer|Flag_init,"source",SOURCE,PFA_DODEFER
   2              	>>  .p2align 2,0x55
   2              	>> VE_SOURCE:
   2 1df0 00000000 	>>  .word 99b
   2 1df4 C0000000 	>> 99:.word Flag_visible|Flag_defer|Flag_init
   2 1df8 00       	>>  .byte 8f-7f
   2 1df9 736F7572 	>> 7:.ascii "source"
   2      6365
   2 1dff AA       	>> 8:.p2align 2,0xaa
   2 1e00 00000000 	>>  XT_SOURCE:.word PFA_DODEFER
   2              	>>  PFA_SOURCE:
   2 1e04 3C020080 	>  .word rampointer
   2              	>  .equ DEFER_RAM_SOURCE,rampointer
   2              	>  .set rampointer,rampointer+4
   2 1e08 00000000 	>  .word XT_SOURCETIB
   2 1e0c 00000000 	>  .word XT_FETCH
   2 1e10 00000000 	>  .word XT_STORE
   3              	
   4              	COLON "source-tib", SOURCETIB
   4              	>  HEADER Flag_visible,"source-tib",SOURCETIB,DOCOLON
   4              	>>  .p2align 2,0x55
   4              	>> VE_SOURCETIB:
   4 1e14 00000000 	>>  .word 99b
   4 1e18 00000000 	>> 99:.word Flag_visible
   4 1e1c 00       	>>  .byte 8f-7f
   4 1e1d 736F7572 	>> 7:.ascii "source-tib"
   4      63652D74 
   4      6962
   4 1e27 AA       	>> 8:.p2align 2,0xaa
   4 1e28 00000000 	>>  XT_SOURCETIB:.word DOCOLON
   4              	>>  PFA_SOURCETIB:
   5              	
GAS LISTING hifive1.s 			page 77


   6 1e2c 00000000 	    .word XT_TIB
   7 1e30 00000000 	    .word XT_NUMBERTIB
   8 1e34 00000000 	    .word XT_FETCH
   9 1e38 00000000 	    .word XT_EXIT
  44              	.include "words/q-stack.s"
   1              	COLON "?stack", QSTACK
   1              	>  HEADER Flag_visible,"?stack",QSTACK,DOCOLON
   1              	>>  .p2align 2,0x55
   1              	>> VE_QSTACK:
   1 1e3c 00000000 	>>  .word 99b
   1 1e40 00000000 	>> 99:.word Flag_visible
   1 1e44 00       	>>  .byte 8f-7f
   1 1e45 3F737461 	>> 7:.ascii "?stack"
   1      636B
   1 1e4b AA       	>> 8:.p2align 2,0xaa
   1 1e4c 00000000 	>>  XT_QSTACK:.word DOCOLON
   1              	>>  PFA_QSTACK:
   2              	
   3 1e50 00000000 	    .word XT_DEPTH
   4 1e54 00000000 	    .word XT_ZEROLESS
   5 1e58 00000000 	    .word XT_DOCONDBRANCH,PFA_QSTACK1
   5      00000000 
   6 1e60 00000000 	      .word XT_DOLITERAL
   7 1e64 FCFFFFFF 	      .word -4
   8 1e68 00000000 	      .word XT_THROW
   9              	PFA_QSTACK1:
  10 1e6c 00000000 	    .word XT_EXIT
  45              	.include "words/cscan.s"
   1              	
   2              	COLON "cscan", CSCAN
   2              	>  HEADER Flag_visible,"cscan",CSCAN,DOCOLON
   2              	>>  .p2align 2,0x55
   2              	>> VE_CSCAN:
   2 1e70 00000000 	>>  .word 99b
   2 1e74 00000000 	>> 99:.word Flag_visible
   2 1e78 00       	>>  .byte 8f-7f
   2 1e79 63736361 	>> 7:.ascii "cscan"
   2      6E
   2 1e7e AAAA     	>> 8:.p2align 2,0xaa
   2 1e80 00000000 	>>  XT_CSCAN:.word DOCOLON
   2              	>>  PFA_CSCAN:
   3 1e84 00000000 	    .word XT_TO_R
   4 1e88 00000000 	    .word XT_OVER
   5              	PFA_CSCAN1:
   6 1e8c 00000000 	    .word XT_DUP
   7 1e90 00000000 	    .word XT_CFETCH
   8 1e94 00000000 	    .word XT_R_FETCH
   9 1e98 00000000 	    .word XT_EQUAL
  10 1e9c 00000000 	    .word XT_ZEROEQUAL
  11 1ea0 00000000 	    .word XT_DOCONDBRANCH,PFA_CSCAN2
  11      00000000 
  12 1ea8 00000000 	      .word XT_SWAP
  13 1eac 00000000 	      .word XT_1MINUS
  14 1eb0 00000000 	      .word XT_SWAP
  15 1eb4 00000000 	      .word XT_OVER
  16 1eb8 00000000 	      .word XT_ZEROLESS 
  17 1ebc 00000000 	      .word XT_ZEROEQUAL
GAS LISTING hifive1.s 			page 78


  18 1ec0 00000000 	      .word XT_DOCONDBRANCH, PFA_CSCAN2
  18      00000000 
  19 1ec8 00000000 	        .word XT_1PLUS
  20 1ecc 00000000 	        .word XT_DOBRANCH, PFA_CSCAN1
  20      00000000 
  21              	PFA_CSCAN2:
  22 1ed4 00000000 	    .word XT_NIP
  23 1ed8 00000000 	    .word XT_OVER
  24 1edc 00000000 	    .word XT_MINUS
  25 1ee0 00000000 	    .word XT_R_FROM
  26 1ee4 00000000 	    .word XT_DROP
  27 1ee8 00000000 	    .word XT_EXIT
  46              	.include "words/cskip.s"
   1              	
   2              	COLON "cskip", CSKIP
   2              	>  HEADER Flag_visible,"cskip",CSKIP,DOCOLON
   2              	>>  .p2align 2,0x55
   2              	>> VE_CSKIP:
   2 1eec 00000000 	>>  .word 99b
   2 1ef0 00000000 	>> 99:.word Flag_visible
   2 1ef4 00       	>>  .byte 8f-7f
   2 1ef5 63736B69 	>> 7:.ascii "cskip"
   2      70
   2 1efa AAAA     	>> 8:.p2align 2,0xaa
   2 1efc 00000000 	>>  XT_CSKIP:.word DOCOLON
   2              	>>  PFA_CSKIP:
   3              	
   4 1f00 00000000 	    .word XT_TO_R
   5              	PFA_CSKIP1:
   6 1f04 00000000 	    .word XT_DUP      
   7 1f08 00000000 	    .word XT_DOCONDBRANCH, PFA_CSKIP2
   7      00000000 
   8 1f10 00000000 	    .word XT_OVER         
   9 1f14 00000000 	    .word XT_CFETCH       
  10 1f18 00000000 	    .word XT_R_FETCH      
  11 1f1c 00000000 	    .word XT_EQUAL        
  12 1f20 00000000 	    .word XT_DOCONDBRANCH, PFA_CSKIP2
  12      00000000 
  13 1f28 00000000 	    .word XT_DOLITERAL,1
  13      01000000 
  14 1f30 00000000 	    .word XT_SLASHSTRING
  15 1f34 00000000 	    .word XT_DOBRANCH, PFA_CSKIP1
  15      00000000 
  16              	PFA_CSKIP2:
  17 1f3c 00000000 	    .word XT_R_FROM
  18 1f40 00000000 	    .word XT_DROP          
  19 1f44 00000000 	    .word XT_EXIT
  47              	.include "words/parse-name.s"
   1              	
   2              	COLON "parse-name", PARSENAME
   2              	>  HEADER Flag_visible,"parse-name",PARSENAME,DOCOLON
   2              	>>  .p2align 2,0x55
   2              	>> VE_PARSENAME:
   2 1f48 00000000 	>>  .word 99b
   2 1f4c 00000000 	>> 99:.word Flag_visible
   2 1f50 00       	>>  .byte 8f-7f
   2 1f51 70617273 	>> 7:.ascii "parse-name"
GAS LISTING hifive1.s 			page 79


   2      652D6E61 
   2      6D65
   2 1f5b AA       	>> 8:.p2align 2,0xaa
   2 1f5c 00000000 	>>  XT_PARSENAME:.word DOCOLON
   2              	>>  PFA_PARSENAME:
   3 1f60 00000000 	    .word XT_BL
   4 1f64 00000000 	    .word XT_SKIPSCANCHAR
   5 1f68 00000000 	    .word XT_EXIT 
   6              	
   7              	NONAME SKIPSCANCHAR
   7 1f6c 00000000 	>  XT_SKIPSCANCHAR:.word DOCOLON
   7              	>  PFA_SKIPSCANCHAR:
   8 1f70 00000000 	    .word XT_TO_R
   9 1f74 00000000 	    .word XT_SOURCE 
  10 1f78 00000000 	    .word XT_TO_IN 
  11 1f7c 00000000 	    .word XT_FETCH 
  12 1f80 00000000 	    .word XT_SLASHSTRING 
  13              	
  14 1f84 00000000 	    .word XT_R_FETCH
  15 1f88 00000000 	    .word XT_CSKIP
  16 1f8c 00000000 	    .word XT_R_FROM
  17 1f90 00000000 	    .word XT_CSCAN
  18              	
  19 1f94 00000000 	    .word XT_2DUP
  20 1f98 00000000 	    .word XT_PLUS
  21 1f9c 00000000 	    .word XT_SOURCE 
  22 1fa0 00000000 	    .word XT_DROP
  23 1fa4 00000000 	    .word XT_MINUS
  24 1fa8 00000000 	    .word XT_TO_IN
  25 1fac 00000000 	    .word XT_STORE
  26 1fb0 00000000 	    .word XT_EXIT
  48              	.include "words/parse.s"
   1              	
   2              	COLON "parse", PARSE
   2              	>  HEADER Flag_visible,"parse",PARSE,DOCOLON
   2              	>>  .p2align 2,0x55
   2              	>> VE_PARSE:
   2 1fb4 00000000 	>>  .word 99b
   2 1fb8 00000000 	>> 99:.word Flag_visible
   2 1fbc 00       	>>  .byte 8f-7f
   2 1fbd 70617273 	>> 7:.ascii "parse"
   2      65
   2 1fc2 AAAA     	>> 8:.p2align 2,0xaa
   2 1fc4 00000000 	>>  XT_PARSE:.word DOCOLON
   2              	>>  PFA_PARSE:
   3 1fc8 00000000 	    .word XT_TO_R 
   4 1fcc 00000000 	    .word XT_SOURCE
   5 1fd0 00000000 	    .word XT_TO_IN 
   6 1fd4 00000000 	    .word XT_FETCH
   7 1fd8 00000000 	    .word XT_SLASHSTRING 
   8              	
   9 1fdc 00000000 	    .word XT_R_FROM
  10 1fe0 00000000 	    .word XT_CSCAN 
  11 1fe4 00000000 	    .word XT_DUP   
  12 1fe8 00000000 	    .word XT_1PLUS
  13 1fec 00000000 	    .word XT_TO_IN 
  14 1ff0 00000000 	    .word XT_PLUSSTORE
GAS LISTING hifive1.s 			page 80


  15 1ff4 00000000 	    .word XT_DOLITERAL,1
  15      01000000 
  16 1ffc 00000000 	    .word XT_SLASHSTRING
  17 2000 00000000 	    .word XT_EXIT
  49              	.include "words/slash-string.s"
   1              	
   2              	COLON "/string", SLASHSTRING
   2              	>  HEADER Flag_visible,"/string",SLASHSTRING,DOCOLON
   2              	>>  .p2align 2,0x55
   2              	>> VE_SLASHSTRING:
   2 2004 00000000 	>>  .word 99b
   2 2008 00000000 	>> 99:.word Flag_visible
   2 200c 00       	>>  .byte 8f-7f
   2 200d 2F737472 	>> 7:.ascii "/string"
   2      696E67
   2              	>> 8:.p2align 2,0xaa
   2 2014 00000000 	>>  XT_SLASHSTRING:.word DOCOLON
   2              	>>  PFA_SLASHSTRING:
   3              	
   4 2018 00000000 	    .word XT_ROT
   5 201c 00000000 	    .word XT_OVER
   6 2020 00000000 	    .word XT_PLUS
   7 2024 00000000 	    .word XT_ROT
   8 2028 00000000 	    .word XT_ROT
   9 202c 00000000 	    .word XT_MINUS
  10 2030 00000000 	    .word XT_EXIT
  11              	
  50              	
  51              	.include "words/2literal.s"
   1              	
   2              	IMMED "2literal", 2LITERAL
   2              	>  HEADER Flag_visible|Flag_immediate,2literal,2LITERAL,DOCOLON
   2              	>>  .p2align 2,0x55
   2              	>> VE_2LITERAL:
   2 2034 00000000 	>>  .word 99b
   2 2038 10000000 	>> 99:.word Flag_visible|Flag_immediate
   2 203c 00       	>>  .byte 8f-7f
   2 203d 326C6974 	>> 7:.ascii "2literal"
   2      6572616C 
   2 2045 AAAAAA   	>> 8:.p2align 2,0xaa
   2 2048 00000000 	>>  XT_2LITERAL:.word DOCOLON
   2              	>>  PFA_2LITERAL:
   3 204c 00000000 	    .word XT_SWAP
   4 2050 00000000 	    .word XT_LITERAL
   5 2054 00000000 	    .word XT_LITERAL
   6 2058 00000000 	    .word XT_EXIT
  52              	.include "words/literal.s"
   1              	
   2              	IMMED "literal", LITERAL
   2              	>  HEADER Flag_visible|Flag_immediate,literal,LITERAL,DOCOLON
   2              	>>  .p2align 2,0x55
   2              	>> VE_LITERAL:
   2 205c 00000000 	>>  .word 99b
   2 2060 10000000 	>> 99:.word Flag_visible|Flag_immediate
   2 2064 00       	>>  .byte 8f-7f
   2 2065 6C697465 	>> 7:.ascii "literal"
   2      72616C
GAS LISTING hifive1.s 			page 81


   2              	>> 8:.p2align 2,0xaa
   2 206c 00000000 	>>  XT_LITERAL:.word DOCOLON
   2              	>>  PFA_LITERAL:
   3 2070 00000000 	        .word XT_COMPILE
   4 2074 00000000 	        .word XT_DOLITERAL
   5 2078 00000000 	        .word XT_COMMA
   6 207c 00000000 	        .word XT_EXIT
  53              	.include "words/compile.s"
   1              	
   2              	COLON "compile", COMPILE
   2              	>  HEADER Flag_visible,"compile",COMPILE,DOCOLON
   2              	>>  .p2align 2,0x55
   2              	>> VE_COMPILE:
   2 2080 00000000 	>>  .word 99b
   2 2084 00000000 	>> 99:.word Flag_visible
   2 2088 00       	>>  .byte 8f-7f
   2 2089 636F6D70 	>> 7:.ascii "compile"
   2      696C65
   2              	>> 8:.p2align 2,0xaa
   2 2090 00000000 	>>  XT_COMPILE:.word DOCOLON
   2              	>>  PFA_COMPILE:
   3 2094 00000000 	    .word XT_R_FROM
   4 2098 00000000 	    .word XT_DUP
   5 209c 00000000 	    .word XT_CELLPLUS
   6 20a0 00000000 	    .word XT_TO_R
   7 20a4 00000000 	    .word XT_FETCH
   8 20a8 00000000 	    .word XT_COMMA
   9 20ac 00000000 	    .word XT_EXIT
  54              	.include "words/comma.s"
   1              	
   2              	COLON ",", COMMA
   2              	>  HEADER Flag_visible,",",COMMA,DOCOLON
   2              	>>  .p2align 2,0x55
   2              	>> VE_COMMA:
   2 20b0 00000000 	>>  .word 99b
   2 20b4 00000000 	>> 99:.word Flag_visible
   2 20b8 00       	>>  .byte 8f-7f
   2 20b9 2C       	>> 7:.ascii ","
   2 20ba AAAA     	>> 8:.p2align 2,0xaa
   2 20bc 00000000 	>>  XT_COMMA:.word DOCOLON
   2              	>>  PFA_COMMA:
   3              	
   4 20c0 00000000 	    .word XT_HERE
   5 20c4 00000000 	    .word XT_STORE
   6 20c8 00000000 	    .word XT_DOLITERAL,4
   6      04000000 
   7 20d0 00000000 	    .word XT_ALLOT
   8 20d4 00000000 	    .word XT_EXIT
   9              	
  10              	COLON "c,", CCOMMA
  10              	>  HEADER Flag_visible,"c,",CCOMMA,DOCOLON
  10              	>>  .p2align 2,0x55
  10              	>> VE_CCOMMA:
  10 20d8 00000000 	>>  .word 99b
  10 20dc 00000000 	>> 99:.word Flag_visible
  10 20e0 00       	>>  .byte 8f-7f
  10 20e1 632C     	>> 7:.ascii "c,"
GAS LISTING hifive1.s 			page 82


  10 20e3 AA       	>> 8:.p2align 2,0xaa
  10 20e4 00000000 	>>  XT_CCOMMA:.word DOCOLON
  10              	>>  PFA_CCOMMA:
  11 20e8 00000000 	   .word XT_HERE
  12 20ec 00000000 	   .word XT_CSTORE
  13 20f0 00000000 	   .word XT_ONE, XT_ALLOT
  13      00000000 
  14 20f8 00000000 	   .word XT_EXIT
  55              	.include "words/immediate-q.s"
   1              	
   2              	NONAME IMMEDIATEQ
   2 20fc 00000000 	>  XT_IMMEDIATEQ:.word DOCOLON
   2              	>  PFA_IMMEDIATEQ:
   3 2100 00000000 	    .word XT_FETCH
   4 2104 00000000 	    .word  XT_DOLITERAL
   5 2108 10000000 	    .word  Flag_immediate
   6 210c 00000000 	    .word  XT_TUCK
   7 2110 00000000 	    .word  XT_AND
   8 2114 00000000 	    .word  XT_EQUAL
   9 2118 00000000 	    .word  XT_DOCONDBRANCH,IMMEDIATEQ1
   9      00000000 
  10 2120 00000000 	     .word  XT_ONE
  11 2124 00000000 	     .word  XT_EXIT
  12              	IMMEDIATEQ1:
  13 2128 00000000 	    .word  XT_MINUSONE
  14 212c 00000000 	    .word  XT_EXIT
  56              	.include "words/order.s"
   1              	
   2              	DATA "cfg-order", CFG_ORDER
   2              	>  HEADER Flag_visible,"cfg-order",CFG_ORDER,PFA_DODATA
   2              	>>  .p2align 2,0x55
   2              	>> VE_CFG_ORDER:
   2 2130 00000000 	>>  .word 99b
   2 2134 00000000 	>> 99:.word Flag_visible
   2 2138 00       	>>  .byte 8f-7f
   2 2139 6366672D 	>> 7:.ascii "cfg-order"
   2      6F726465 
   2      72
   2 2142 AAAA     	>> 8:.p2align 2,0xaa
   2 2144 00000000 	>>  XT_CFG_ORDER:.word PFA_DODATA
   2              	>>  PFA_CFG_ORDER:
   3 2148 03000000 	.word 3
   4 214c 00000000 	.word XT_RAM_WORDLIST
   5 2150 00000000 	.word XT_FORTH_WORDLIST
   6 2154 00000000 	.word XT_ENVIRONMENT
  57              	.include "words/find-xt.s"
   1              	
   2              	COLON "find-xt", FINDXT
   2              	>  HEADER Flag_visible,"find-xt",FINDXT,DOCOLON
   2              	>>  .p2align 2,0x55
   2              	>> VE_FINDXT:
   2 2158 00000000 	>>  .word 99b
   2 215c 00000000 	>> 99:.word Flag_visible
   2 2160 00       	>>  .byte 8f-7f
   2 2161 66696E64 	>> 7:.ascii "find-xt"
   2      2D7874
   2              	>> 8:.p2align 2,0xaa
GAS LISTING hifive1.s 			page 83


   2 2168 00000000 	>>  XT_FINDXT:.word DOCOLON
   2              	>>  PFA_FINDXT:
   3              	
   4 216c 00000000 	    .word XT_DOLITERAL
   5 2170 00000000 	    .word XT_FINDXTA
   6 2174 00000000 	    .word XT_CFG_ORDER
   7 2178 00000000 	    .word XT_MAPSTACK
   8 217c 00000000 	    .word XT_ZEROEQUAL
   9 2180 00000000 	    .word XT_DOCONDBRANCH,PFA_FINDXT1
   9      00000000 
  10 2188 00000000 	      .word XT_2DROP
  11 218c 00000000 	      .word XT_ZERO
  12              	PFA_FINDXT1:
  13 2190 00000000 	    .word XT_EXIT
  14              	
  15              	NONAME FINDXTA
  15 2194 00000000 	>  XT_FINDXTA:.word DOCOLON
  15              	>  PFA_FINDXTA:
  16 2198 00000000 	    .word XT_TO_R
  17 219c 00000000 	    .word XT_2DUP
  18 21a0 00000000 	    .word XT_R_FROM, XT_EXECUTE
  18      00000000 
  19 21a8 00000000 	    .word XT_SEARCH_WORDLIST
  20 21ac 00000000 	    .word XT_DUP
  21 21b0 00000000 	    .word XT_DOCONDBRANCH,PFA_FINDXTA1
  21      00000000 
  22 21b8 00000000 	      .word XT_TO_R
  23 21bc 00000000 	      .word XT_NIP
  24 21c0 00000000 	      .word XT_NIP
  25 21c4 00000000 	      .word XT_R_FROM
  26 21c8 00000000 	      .word XT_TRUE
  27              	PFA_FINDXTA1:
  28 21cc 00000000 	    .word XT_EXIT
  29              	
  58              	.include "words/nfa2lfa.s"
   1              	
   2              	COLON "nfa>lfa", NFA2LFA
   2              	>  HEADER Flag_visible,"nfa>lfa",NFA2LFA,DOCOLON
   2              	>>  .p2align 2,0x55
   2              	>> VE_NFA2LFA:
   2 21d0 00000000 	>>  .word 99b
   2 21d4 00000000 	>> 99:.word Flag_visible
   2 21d8 00       	>>  .byte 8f-7f
   2 21d9 6E66613E 	>> 7:.ascii "nfa>lfa"
   2      6C6661
   2              	>> 8:.p2align 2,0xaa
   2 21e0 00000000 	>>  XT_NFA2LFA:.word DOCOLON
   2              	>>  PFA_NFA2LFA:
   3 21e4 00000000 	    .word XT_DOLITERAL,4
   3      04000000 
   4 21ec 00000000 	    .word XT_MINUS
   5 21f0 00000000 	    .word XT_EXIT
  59              	.include "words/nfa2cfa.s"
   1              	
   2              	COLON "nfa2cfa", NFA2CFA
   2              	>  HEADER Flag_visible,"nfa2cfa",NFA2CFA,DOCOLON
   2              	>>  .p2align 2,0x55
GAS LISTING hifive1.s 			page 84


   2              	>> VE_NFA2CFA:
   2 21f4 00000000 	>>  .word 99b
   2 21f8 00000000 	>> 99:.word Flag_visible
   2 21fc 00       	>>  .byte 8f-7f
   2 21fd 6E666132 	>> 7:.ascii "nfa2cfa"
   2      636661
   2              	>> 8:.p2align 2,0xaa
   2 2204 00000000 	>>  XT_NFA2CFA:.word DOCOLON
   2              	>>  PFA_NFA2CFA:
   3 2208 00000000 	    .word XT_CELLPLUS,XT_COUNT,XT_PLUS,XT_ALIGNED
   3      00000000 
   3      00000000 
   3      00000000 
   4 2218 00000000 	.word XT_EXIT
  60              	.include "words/traverse-wordlist.s"
   1              	
   2              	COLON "traverse-wordlist",TRAVERSEWORDLIST
   2              	>  HEADER Flag_visible,"traverse-wordlist",TRAVERSEWORDLIST,DOCOLON
   2              	>>  .p2align 2,0x55
   2              	>> VE_TRAVERSEWORDLIST:
   2 221c 00000000 	>>  .word 99b
   2 2220 00000000 	>> 99:.word Flag_visible
   2 2224 00       	>>  .byte 8f-7f
   2 2225 74726176 	>> 7:.ascii "traverse-wordlist"
   2      65727365 
   2      2D776F72 
   2      646C6973 
   2      74
   2 2236 AAAA     	>> 8:.p2align 2,0xaa
   2 2238 00000000 	>>  XT_TRAVERSEWORDLIST:.word DOCOLON
   2              	>>  PFA_TRAVERSEWORDLIST:
   3              	
   4              	PFA_TRAVERSEWORDLIST1:
   5 223c 00000000 	    .word XT_DUP
   6 2240 00000000 	    .word XT_DOCONDBRANCH,PFA_TRAVERSEWORDLIST2
   6      00000000 
   7 2248 00000000 	    .word XT_2DUP
   8 224c 00000000 	    .word XT_2TO_R
   9 2250 00000000 	    .word XT_SWAP
  10 2254 00000000 	    .word XT_EXECUTE
  11 2258 00000000 	    .word XT_2R_FROM
  12 225c 00000000 	    .word XT_ROT
  13 2260 00000000 	    .word XT_DOCONDBRANCH,PFA_TRAVERSEWORDLIST2
  13      00000000 
  14 2268 00000000 	    .word XT_NFA2LFA
  15 226c 00000000 	    .word XT_FETCH
  16 2270 00000000 	    .word XT_DOBRANCH,PFA_TRAVERSEWORDLIST1
  16      00000000 
  17              	PFA_TRAVERSEWORDLIST2:
  18 2278 00000000 	    .word XT_2DROP
  19 227c 00000000 	    .word XT_EXIT
  61              	.include "words/show-wordlist.s"
   1              	
   2              	COLON "show-wordlist", SHOWWORDLIST
   2              	>  HEADER Flag_visible,"show-wordlist",SHOWWORDLIST,DOCOLON
   2              	>>  .p2align 2,0x55
   2              	>> VE_SHOWWORDLIST:
GAS LISTING hifive1.s 			page 85


   2 2280 00000000 	>>  .word 99b
   2 2284 00000000 	>> 99:.word Flag_visible
   2 2288 00       	>>  .byte 8f-7f
   2 2289 73686F77 	>> 7:.ascii "show-wordlist"
   2      2D776F72 
   2      646C6973 
   2      74
   2 2296 AAAA     	>> 8:.p2align 2,0xaa
   2 2298 00000000 	>>  XT_SHOWWORDLIST:.word DOCOLON
   2              	>>  PFA_SHOWWORDLIST:
   3 229c 00000000 	    .word XT_DOLITERAL
   4 22a0 00000000 	    .word XT_SHOWWORD
   5 22a4 00000000 	    .word XT_SWAP
   6 22a8 00000000 	    .word XT_TRAVERSEWORDLIST
   7 22ac 00000000 	    .word XT_EXIT
   8              	
   9              	NONAME SHOWWORD
   9 22b0 00000000 	>  XT_SHOWWORD:.word DOCOLON
   9              	>  PFA_SHOWWORD:
  10 22b4 00000000 	    .word XT_NAME2STRING
  11 22b8 00000000 	    .word XT_TYPE
  12 22bc 00000000 	    .word XT_SPACE
  13 22c0 00000000 	    .word XT_TRUE
  14 22c4 00000000 	    .word XT_EXIT
  62              	.include "words/current.s"
   1              	
   2              	VALUE "current", CURRENT, XT_RAM_WORDLIST
   2              	>  HEADER Flag_visible|Flag_value|Flag_init,"current",CURRENT,PFA_DOVALUE
   2              	>>  .p2align 2,0x55
   2              	>> VE_CURRENT:
   2 22c8 00000000 	>>  .word 99b
   2 22cc A0000000 	>> 99:.word Flag_visible|Flag_value|Flag_init
   2 22d0 00       	>>  .byte 8f-7f
   2 22d1 63757272 	>> 7:.ascii "current"
   2      656E74
   2              	>> 8:.p2align 2,0xaa
   2 22d8 00000000 	>>  XT_CURRENT:.word PFA_DOVALUE
   2              	>>  PFA_CURRENT:
   2 22dc 40020080 	>  .word rampointer
   2              	>  .equ RAM_CURRENT,rampointer
   2              	>  .set rampointer,rampointer+4
   2 22e0 00000000 	>  .word XT_RAM_WORDLIST
   2 22e4 00000000 	>  .word XT_FETCH
   2 22e8 00000000 	>  .word XT_STORE
  63              	.include "words/search-wordlist.s"
   1              	
   2              	COLON "search-wordlist",SEARCH_WORDLIST
   2              	>  HEADER Flag_visible,"search-wordlist",SEARCH_WORDLIST,DOCOLON
   2              	>>  .p2align 2,0x55
   2              	>> VE_SEARCH_WORDLIST:
   2 22ec 00000000 	>>  .word 99b
   2 22f0 00000000 	>> 99:.word Flag_visible
   2 22f4 00       	>>  .byte 8f-7f
   2 22f5 73656172 	>> 7:.ascii "search-wordlist"
   2      63682D77 
   2      6F72646C 
   2      697374
GAS LISTING hifive1.s 			page 86


   2              	>> 8:.p2align 2,0xaa
   2 2304 00000000 	>>  XT_SEARCH_WORDLIST:.word DOCOLON
   2              	>>  PFA_SEARCH_WORDLIST:
   3              	
   4 2308 00000000 	    .word XT_TO_R
   5 230c 00000000 	    .word XT_ZERO
   6 2310 00000000 	    .word XT_DOLITERAL
   7 2314 00000000 	    .word XT_ISWORD
   8 2318 00000000 	    .word XT_R_FROM
   9 231c 00000000 	    .word XT_TRAVERSEWORDLIST
  10 2320 00000000 	    .word XT_DUP
  11 2324 00000000 	    .word XT_ZEROEQUAL
  12 2328 00000000 	    .word XT_DOCONDBRANCH,PFA_SEARCH_WORDLIST1
  12      00000000 
  13 2330 00000000 	       .word XT_2DROP
  14 2334 00000000 	       .word XT_DROP
  15 2338 00000000 	       .word XT_ZERO
  16 233c 00000000 	       .word XT_EXIT
  17              	PFA_SEARCH_WORDLIST1:
  18 2340 00000000 	      .word XT_DUP
  19 2344 00000000 	      .word XT_NFA2CFA
  20 2348 00000000 	      .word XT_SWAP
  21 234c 00000000 	      .word XT_NAME2FLAGS
  22 2350 00000000 	      .word XT_IMMEDIATEQ
  23 2354 00000000 	    .word XT_EXIT
  24              	
  25              	NONAME ISWORD
  25 2358 00000000 	>  XT_ISWORD:.word DOCOLON
  25              	>  PFA_ISWORD:
  26 235c 00000000 	    .word XT_TO_R
  27 2360 00000000 	    .word XT_DROP
  28 2364 00000000 	    .word XT_2DUP
  29 2368 00000000 	    .word XT_R_FETCH
  30 236c 00000000 	    .word XT_NAME2STRING
  31 2370 00000000 	    .word XT_COMPARE
  32 2374 00000000 	    .word XT_DOCONDBRANCH,PFA_ISWORD3
  32      00000000 
  33 237c 00000000 	      .word XT_R_FROM
  34 2380 00000000 	      .word XT_DROP
  35 2384 00000000 	      .word XT_ZERO
  36 2388 00000000 	      .word XT_TRUE
  37 238c 00000000 	      .word XT_EXIT
  38              	PFA_ISWORD3:
  39 2390 00000000 	      .word XT_2DROP
  40 2394 00000000 	      .word XT_R_FROM
  41 2398 00000000 	      .word XT_ZERO
  42 239c 00000000 	      .word XT_EXIT
  64              	.include "words/name2string.s"
   1              	
   2              	COLON "name>string",NAME2STRING
   2              	>  HEADER Flag_visible,"name>string",NAME2STRING,DOCOLON
   2              	>>  .p2align 2,0x55
   2              	>> VE_NAME2STRING:
   2 23a0 00000000 	>>  .word 99b
   2 23a4 00000000 	>> 99:.word Flag_visible
   2 23a8 00       	>>  .byte 8f-7f
   2 23a9 6E616D65 	>> 7:.ascii "name>string"
GAS LISTING hifive1.s 			page 87


   2      3E737472 
   2      696E67
   2              	>> 8:.p2align 2,0xaa
   2 23b4 00000000 	>>  XT_NAME2STRING:.word DOCOLON
   2              	>>  PFA_NAME2STRING:
   3 23b8 00000000 	    .word XT_CELLPLUS
   4 23bc 00000000 	    .word XT_COUNT
   5 23c0 00000000 	    .word XT_DOLITERAL
   6 23c4 FF000000 	    .word 255
   7 23c8 00000000 	    .word XT_AND
   8 23cc 00000000 	    .word XT_EXIT
  65              	.include "words/name2flags.s"
   1              	COLON "name>flags", NAME2FLAGS
   1              	>  HEADER Flag_visible,"name>flags",NAME2FLAGS,DOCOLON
   1              	>>  .p2align 2,0x55
   1              	>> VE_NAME2FLAGS:
   1 23d0 00000000 	>>  .word 99b
   1 23d4 00000000 	>> 99:.word Flag_visible
   1 23d8 00       	>>  .byte 8f-7f
   1 23d9 6E616D65 	>> 7:.ascii "name>flags"
   1      3E666C61 
   1      6773
   1 23e3 AA       	>> 8:.p2align 2,0xaa
   1 23e4 00000000 	>>  XT_NAME2FLAGS:.word DOCOLON
   1              	>>  PFA_NAME2FLAGS:
   2 23e8 00000000 	.word XT_EXIT
  66              	
  67              	.include "words/mplus.s"
   1              	
   2              	COLON "m+", MPLUS
   2              	>  HEADER Flag_visible,"m+",MPLUS,DOCOLON
   2              	>>  .p2align 2,0x55
   2              	>> VE_MPLUS:
   2 23ec 00000000 	>>  .word 99b
   2 23f0 00000000 	>> 99:.word Flag_visible
   2 23f4 00       	>>  .byte 8f-7f
   2 23f5 6D2B     	>> 7:.ascii "m+"
   2 23f7 AA       	>> 8:.p2align 2,0xaa
   2 23f8 00000000 	>>  XT_MPLUS:.word DOCOLON
   2              	>>  PFA_MPLUS:
   3 23fc 00000000 	    .word XT_S2D
   4 2400 00000000 	    .word XT_DPLUS
   5 2404 00000000 	    .word XT_EXIT
  68              	.include "words/ud-star.s"
   1              	
   2              	COLON "ud*", UDSTAR
   2              	>  HEADER Flag_visible,"ud*",UDSTAR,DOCOLON
   2              	>>  .p2align 2,0x55
   2              	>> VE_UDSTAR:
   2 2408 00000000 	>>  .word 99b
   2 240c 00000000 	>> 99:.word Flag_visible
   2 2410 00       	>>  .byte 8f-7f
   2 2411 75642A   	>> 7:.ascii "ud*"
   2              	>> 8:.p2align 2,0xaa
   2 2414 00000000 	>>  XT_UDSTAR:.word DOCOLON
   2              	>>  PFA_UDSTAR:
   3              	
GAS LISTING hifive1.s 			page 88


   4 2418 00000000 	    .word XT_DUP,XT_TO_R,XT_UMSTAR,XT_DROP
   4      00000000 
   4      00000000 
   4      00000000 
   5 2428 00000000 	    .word XT_SWAP,XT_R_FROM,XT_UMSTAR,XT_ROT,XT_PLUS,XT_EXIT
   5      00000000 
   5      00000000 
   5      00000000 
   5      00000000 
  69              	.include "words/within.s"
   1              	
   2              	COLON "within", WITHIN
   2              	>  HEADER Flag_visible,"within",WITHIN,DOCOLON
   2              	>>  .p2align 2,0x55
   2              	>> VE_WITHIN:
   2 2440 00000000 	>>  .word 99b
   2 2444 00000000 	>> 99:.word Flag_visible
   2 2448 00       	>>  .byte 8f-7f
   2 2449 77697468 	>> 7:.ascii "within"
   2      696E
   2 244f AA       	>> 8:.p2align 2,0xaa
   2 2450 00000000 	>>  XT_WITHIN:.word DOCOLON
   2              	>>  PFA_WITHIN:
   3              	
   4 2454 00000000 	    .word XT_OVER
   5 2458 00000000 	    .word XT_MINUS
   6 245c 00000000 	    .word XT_TO_R
   7 2460 00000000 	    .word XT_MINUS
   8 2464 00000000 	    .word XT_R_FROM
   9 2468 00000000 	    .word XT_ULESS
  10 246c 00000000 	    .word XT_EXIT
  70              	.include "words/to-upper.s"
   1              	
   2              	COLON "toupper", TOUPPER
   2              	>  HEADER Flag_visible,"toupper",TOUPPER,DOCOLON
   2              	>>  .p2align 2,0x55
   2              	>> VE_TOUPPER:
   2 2470 00000000 	>>  .word 99b
   2 2474 00000000 	>> 99:.word Flag_visible
   2 2478 00       	>>  .byte 8f-7f
   2 2479 746F7570 	>> 7:.ascii "toupper"
   2      706572
   2              	>> 8:.p2align 2,0xaa
   2 2480 00000000 	>>  XT_TOUPPER:.word DOCOLON
   2              	>>  PFA_TOUPPER:
   3 2484 00000000 	    .word XT_DUP 
   4 2488 00000000 	    .word XT_DOLITERAL 
   5 248c 61000000 	    .word 'a' 
   6 2490 00000000 	    .word XT_DOLITERAL 
   7 2494 7B000000 	    .word 'z'+1
   8 2498 00000000 	    .word XT_WITHIN 
   9 249c 00000000 	    .word XT_DOCONDBRANCH,PFA_TOUPPER0
   9      00000000 
  10 24a4 00000000 	    .word XT_DOLITERAL
  11 24a8 DF000000 	    .word 223 
  12 24ac 00000000 	    .word XT_AND 
  13              	PFA_TOUPPER0:
GAS LISTING hifive1.s 			page 89


  14 24b0 00000000 	    .word XT_EXIT 
  71              	.include "words/digit-q.s"
   1              	
   2              	COLON "digit?", DIGITQ
   2              	>  HEADER Flag_visible,"digit?",DIGITQ,DOCOLON
   2              	>>  .p2align 2,0x55
   2              	>> VE_DIGITQ:
   2 24b4 00000000 	>>  .word 99b
   2 24b8 00000000 	>> 99:.word Flag_visible
   2 24bc 00       	>>  .byte 8f-7f
   2 24bd 64696769 	>> 7:.ascii "digit?"
   2      743F
   2 24c3 AA       	>> 8:.p2align 2,0xaa
   2 24c4 00000000 	>>  XT_DIGITQ:.word DOCOLON
   2              	>>  PFA_DIGITQ:
   3 24c8 00000000 	    .word XT_TOUPPER
   4 24cc 00000000 	    .word XT_DUP,XT_DOLITERAL,57,XT_GREATER,XT_DOLITERAL,256
   4      00000000 
   4      39000000 
   4      00000000 
   4      00000000 
   5 24e4 00000000 	    .word XT_AND,XT_PLUS,XT_DUP,XT_DOLITERAL,320,XT_GREATER
   5      00000000 
   5      00000000 
   5      00000000 
   5      40010000 
   6 24fc 00000000 	    .word XT_DOLITERAL,263,XT_AND,XT_MINUS,XT_DOLITERAL,48
   6      07010000 
   6      00000000 
   6      00000000 
   6      00000000 
   7 2514 00000000 	    .word XT_MINUS,XT_DUP,XT_BASE,XT_FETCH,XT_ULESS
   7      00000000 
   7      00000000 
   7      00000000 
   7      00000000 
   8 2528 00000000 	    .word XT_EXIT
  72              	.include "words/to-number.s"
   1              	
   2              	COLON ">number", TO_NUMBER
   2              	>  HEADER Flag_visible,">number",TO_NUMBER,DOCOLON
   2              	>>  .p2align 2,0x55
   2              	>> VE_TO_NUMBER:
   2 252c 00000000 	>>  .word 99b
   2 2530 00000000 	>> 99:.word Flag_visible
   2 2534 00       	>>  .byte 8f-7f
   2 2535 3E6E756D 	>> 7:.ascii ">number"
   2      626572
   2              	>> 8:.p2align 2,0xaa
   2 253c 00000000 	>>  XT_TO_NUMBER:.word DOCOLON
   2              	>>  PFA_TO_NUMBER:
   3              	
   4              	
   5 2540 00000000 	TONUM1: .word XT_DUP,XT_DOCONDBRANCH,TONUM3
   5      00000000 
   5      00000000 
   6 254c 00000000 	        .word XT_OVER,XT_CFETCH,XT_DIGITQ
GAS LISTING hifive1.s 			page 90


   6      00000000 
   6      00000000 
   7 2558 00000000 	        .word XT_ZEROEQUAL,XT_DOCONDBRANCH,TONUM2
   7      00000000 
   7      00000000 
   8 2564 00000000 	        .word XT_DROP,XT_EXIT
   8      00000000 
   9 256c 00000000 	TONUM2: .word XT_TO_R,XT_2SWAP,XT_BASE,XT_FETCH,XT_UDSTAR
   9      00000000 
   9      00000000 
   9      00000000 
   9      00000000 
  10 2580 00000000 	        .word XT_R_FROM,XT_MPLUS,XT_2SWAP
  10      00000000 
  10      00000000 
  11 258c 00000000 	        .word XT_DOLITERAL,1,XT_SLASHSTRING,XT_DOBRANCH,TONUM1
  11      01000000 
  11      00000000 
  11      00000000 
  11      00000000 
  12 25a0 00000000 	TONUM3: .word XT_EXIT
  73              	.include "words/number.s"
   1              	COLON "number", NUMBER
   1              	>  HEADER Flag_visible,"number",NUMBER,DOCOLON
   1              	>>  .p2align 2,0x55
   1              	>> VE_NUMBER:
   1 25a4 00000000 	>>  .word 99b
   1 25a8 00000000 	>> 99:.word Flag_visible
   1 25ac 00       	>>  .byte 8f-7f
   1 25ad 6E756D62 	>> 7:.ascii "number"
   1      6572
   1 25b3 AA       	>> 8:.p2align 2,0xaa
   1 25b4 00000000 	>>  XT_NUMBER:.word DOCOLON
   1              	>>  PFA_NUMBER:
   2              	
   3 25b8 00000000 	    .word XT_BASE
   4 25bc 00000000 	    .word XT_FETCH
   5 25c0 00000000 	    .word XT_TO_R
   6 25c4 00000000 	    .word XT_QSIGN
   7 25c8 00000000 	    .word XT_TO_R
   8 25cc 00000000 	    .word XT_SET_BASE
   9 25d0 00000000 	    .word XT_QSIGN
  10 25d4 00000000 	    .word XT_R_FROM
  11 25d8 00000000 	    .word XT_OR
  12 25dc 00000000 	    .word XT_TO_R
  13              	
  14 25e0 00000000 	    .word XT_DUP
  15 25e4 00000000 	    .word XT_ZEROEQUAL
  16 25e8 00000000 	    .word XT_DOCONDBRANCH,PFA_NUMBER0
  16      00000000 
  17 25f0 00000000 	      .word XT_2DROP
  18 25f4 00000000 	      .word XT_R_FROM
  19 25f8 00000000 	      .word XT_DROP
  20 25fc 00000000 	      .word XT_R_FROM
  21 2600 00000000 	      .word XT_BASE
  22 2604 00000000 	      .word XT_STORE
  23 2608 00000000 	      .word XT_ZERO
GAS LISTING hifive1.s 			page 91


  24 260c 00000000 	      .word XT_EXIT
  25              	PFA_NUMBER0:
  26 2610 00000000 	    .word XT_2TO_R
  27 2614 00000000 	    .word XT_ZERO       
  28 2618 00000000 	    .word XT_ZERO
  29 261c 00000000 	    .word XT_2R_FROM
  30 2620 00000000 	    .word XT_TO_NUMBER 
  31 2624 00000000 	    .word XT_QDUP
  32 2628 00000000 	    .word XT_DOCONDBRANCH, PFA_NUMBER1
  32      00000000 
  33 2630 00000000 	      .word XT_DOLITERAL,1
  33      01000000 
  34 2638 00000000 	      .word XT_EQUAL
  35 263c 00000000 	      .word XT_DOCONDBRANCH,PFA_NUMBER2
  35      00000000 
  36 2644 00000000 		.word XT_CFETCH
  37 2648 00000000 		.word XT_DOLITERAL, 0x2e 
  37      2E000000 
  38 2650 00000000 		.word XT_EQUAL
  39 2654 00000000 		.word XT_DOCONDBRANCH, PFA_NUMBER6
  39      00000000 
  40 265c 00000000 		.word XT_R_FROM
  41 2660 00000000 	        .word XT_DOCONDBRANCH, PFA_NUMBER3
  41      00000000 
  42 2668 00000000 	        .word XT_DNEGATE
  43              	PFA_NUMBER3:
  44 266c 00000000 		.word XT_DOLITERAL,2
  44      02000000 
  45 2674 00000000 		.word XT_DOBRANCH, PFA_NUMBER5
  45      00000000 
  46              	PFA_NUMBER2:
  47 267c 00000000 		.word XT_DROP
  48              	PFA_NUMBER6:
  49 2680 00000000 		.word XT_2DROP
  50 2684 00000000 		.word XT_R_FROM
  51 2688 00000000 		.word XT_DROP
  52 268c 00000000 	        .word XT_R_FROM
  53 2690 00000000 	        .word XT_BASE
  54 2694 00000000 	        .word XT_STORE
  55 2698 00000000 		.word XT_ZERO
  56 269c 00000000 		.word XT_EXIT
  57              	PFA_NUMBER1:
  58 26a0 00000000 	    .word XT_2DROP 
  59 26a4 00000000 	    .word XT_R_FROM
  60 26a8 00000000 	    .word XT_DOCONDBRANCH, PFA_NUMBER4
  60      00000000 
  61 26b0 00000000 	    .word XT_NEGATE
  62              	PFA_NUMBER4:
  63 26b4 00000000 	    .word XT_DOLITERAL, 1
  63      01000000 
  64              	PFA_NUMBER5:
  65 26bc 00000000 	    .word XT_R_FROM
  66 26c0 00000000 	    .word XT_BASE
  67 26c4 00000000 	    .word XT_STORE
  68 26c8 00000000 	    .word XT_TRUE
  69 26cc 00000000 	    .word XT_EXIT
  74              	.include "words/q-sign.s"
GAS LISTING hifive1.s 			page 92


   1              	
   2              	NONAME QSIGN
   2 26d0 00000000 	>  XT_QSIGN:.word DOCOLON
   2              	>  PFA_QSIGN:
   3              	
   4 26d4 00000000 	    .word XT_OVER 
   5 26d8 00000000 	    .word XT_CFETCH
   6 26dc 00000000 	    .word XT_DOLITERAL
   7 26e0 2D000000 	    .word 45 
   8 26e4 00000000 	    .word XT_EQUAL  
   9 26e8 00000000 	    .word XT_DUP
  10 26ec 00000000 	    .word XT_TO_R
  11 26f0 00000000 	    .word XT_DOCONDBRANCH, PFA_NUMBERSIGN_DONE
  11      00000000 
  12 26f8 00000000 	    .word XT_DOLITERAL, 1
  12      01000000 
  13 2700 00000000 	    .word XT_SLASHSTRING
  14              	PFA_NUMBERSIGN_DONE:
  15 2704 00000000 	    .word XT_R_FROM
  16 2708 00000000 	    .word XT_EXIT
  75              	.include "words/set-base.s"
   1              	
   2              	DATA "bases", BASES
   2              	>  HEADER Flag_visible,"bases",BASES,PFA_DODATA
   2              	>>  .p2align 2,0x55
   2              	>> VE_BASES:
   2 270c 00000000 	>>  .word 99b
   2 2710 00000000 	>> 99:.word Flag_visible
   2 2714 00       	>>  .byte 8f-7f
   2 2715 62617365 	>> 7:.ascii "bases"
   2      73
   2 271a AAAA     	>> 8:.p2align 2,0xaa
   2 271c 00000000 	>>  XT_BASES:.word PFA_DODATA
   2              	>>  PFA_BASES:
   3 2720 0A000000 	    .word 10,16,2,10 
   3      10000000 
   3      02000000 
   3      0A000000 
   4              	
   5              	COLON "set-base", SET_BASE
   5              	>  HEADER Flag_visible,"set-base",SET_BASE,DOCOLON
   5              	>>  .p2align 2,0x55
   5              	>> VE_SET_BASE:
   5 2730 00000000 	>>  .word 99b
   5 2734 00000000 	>> 99:.word Flag_visible
   5 2738 00       	>>  .byte 8f-7f
   5 2739 7365742D 	>> 7:.ascii "set-base"
   5      62617365 
   5 2741 AAAAAA   	>> 8:.p2align 2,0xaa
   5 2744 00000000 	>>  XT_SET_BASE:.word DOCOLON
   5              	>>  PFA_SET_BASE:
   6 2748 00000000 	    .word XT_OVER
   7 274c 00000000 	    .word XT_CFETCH
   8 2750 00000000 	    .word XT_DOLITERAL
   9 2754 23000000 	    .word 35
  10 2758 00000000 	    .word XT_MINUS
  11 275c 00000000 	    .word XT_DUP
GAS LISTING hifive1.s 			page 93


  12 2760 00000000 	    .word XT_ZERO
  13 2764 00000000 	    .word XT_DOLITERAL
  14 2768 04000000 	    .word 4
  15 276c 00000000 	    .word XT_WITHIN
  16 2770 00000000 	    .word XT_DOCONDBRANCH,SET_BASE1
  16      00000000 
  17 2778 00000000 	        .word XT_CELLS
  18 277c 00000000 		.word XT_BASES
  19 2780 00000000 		.word XT_PLUS
  20 2784 00000000 		.word XT_FETCH
  21 2788 00000000 		.word XT_BASE
  22 278c 00000000 		.word XT_STORE
  23 2790 00000000 		.word XT_DOLITERAL,1
  23      01000000 
  24 2798 00000000 		.word XT_SLASHSTRING
  25 279c 00000000 		.word XT_DOBRANCH,SET_BASE2
  25      00000000 
  26              	SET_BASE1:
  27 27a4 00000000 		.word XT_DROP
  28              	SET_BASE2:
  29 27a8 00000000 	    .word XT_EXIT 
  76              	.include "words/rec-null.s"
   1              	
   2              	DATA "rectype-null", RECTYPE_NULL
   2              	>  HEADER Flag_visible,"rectype-null",RECTYPE_NULL,PFA_DODATA
   2              	>>  .p2align 2,0x55
   2              	>> VE_RECTYPE_NULL:
   2 27ac 00000000 	>>  .word 99b
   2 27b0 00000000 	>> 99:.word Flag_visible
   2 27b4 00       	>>  .byte 8f-7f
   2 27b5 72656374 	>> 7:.ascii "rectype-null"
   2      7970652D 
   2      6E756C6C 
   2 27c1 AAAAAA   	>> 8:.p2align 2,0xaa
   2 27c4 00000000 	>>  XT_RECTYPE_NULL:.word PFA_DODATA
   2              	>>  PFA_RECTYPE_NULL:
   3 27c8 00000000 	    .word XT_FAIL  
   4 27cc 00000000 	    .word XT_FAIL  
   5 27d0 00000000 	    .word XT_FAIL  
   6              	
   7              	NONAME FAIL
   7 27d4 00000000 	>  XT_FAIL:.word DOCOLON
   7              	>  PFA_FAIL:
   8 27d8 00000000 	    .word XT_DOLITERAL
   9 27dc F3FFFFFF 	    .word -13
  10 27e0 00000000 	    .word XT_THROW
  77              	.include "words/rec-find.s"
   1              	
   2              	COLON "rec-find", REC_FIND
   2              	>  HEADER Flag_visible,"rec-find",REC_FIND,DOCOLON
   2              	>>  .p2align 2,0x55
   2              	>> VE_REC_FIND:
   2 27e4 00000000 	>>  .word 99b
   2 27e8 00000000 	>> 99:.word Flag_visible
   2 27ec 00       	>>  .byte 8f-7f
   2 27ed 7265632D 	>> 7:.ascii "rec-find"
   2      66696E64 
GAS LISTING hifive1.s 			page 94


   2 27f5 AAAAAA   	>> 8:.p2align 2,0xaa
   2 27f8 00000000 	>>  XT_REC_FIND:.word DOCOLON
   2              	>>  PFA_REC_FIND:
   3 27fc 00000000 	    .word XT_FINDXT
   4 2800 00000000 	    .word XT_DUP
   5 2804 00000000 	    .word XT_ZEROEQUAL, XT_DOCONDBRANCH, PFA_REC_WORD_FOUND
   5      00000000 
   5      00000000 
   6 2810 00000000 	        .word XT_DROP
   7 2814 00000000 		.word XT_RECTYPE_NULL
   8 2818 00000000 		.word XT_EXIT
   9              	PFA_REC_WORD_FOUND:
  10 281c 00000000 	    .word XT_RECTYPE_XT
  11              	
  12 2820 00000000 	    .word XT_EXIT
  13              	
  14              	DATA "rectype-xt", RECTYPE_XT
  14              	>  HEADER Flag_visible,"rectype-xt",RECTYPE_XT,PFA_DODATA
  14              	>>  .p2align 2,0x55
  14              	>> VE_RECTYPE_XT:
  14 2824 00000000 	>>  .word 99b
  14 2828 00000000 	>> 99:.word Flag_visible
  14 282c 00       	>>  .byte 8f-7f
  14 282d 72656374 	>> 7:.ascii "rectype-xt"
  14      7970652D 
  14      7874
  14 2837 AA       	>> 8:.p2align 2,0xaa
  14 2838 00000000 	>>  XT_RECTYPE_XT:.word PFA_DODATA
  14              	>>  PFA_RECTYPE_XT:
  15 283c 00000000 	    .word XT_R_WORD_INTERPRET
  16 2840 00000000 	    .word XT_R_WORD_COMPILE
  17 2844 00000000 	    .word XT_2LITERAL
  18              	
  19              	NONAME R_WORD_INTERPRET
  19 2848 00000000 	>  XT_R_WORD_INTERPRET:.word DOCOLON
  19              	>  PFA_R_WORD_INTERPRET:
  20 284c 00000000 	    .word XT_DROP 
  21 2850 00000000 	    .word XT_EXECUTE
  22 2854 00000000 	    .word XT_EXIT
  23              	
  24              	NONAME R_WORD_COMPILE
  24 2858 00000000 	>  XT_R_WORD_COMPILE:.word DOCOLON
  24              	>  PFA_R_WORD_COMPILE:
  25 285c 00000000 	    .word XT_ZEROLESS
  26 2860 00000000 	    .word XT_DOCONDBRANCH,PFA_R_WORD_COMPILE1
  26      00000000 
  27 2868 00000000 		.word XT_COMMA
  28 286c 00000000 	        .word XT_EXIT
  29              	PFA_R_WORD_COMPILE1:
  30 2870 00000000 	        .word XT_EXECUTE
  31 2874 00000000 	    .word XT_EXIT
  78              	.include "words/rec-intnum.s"
   1              	
   2              	DATA "rectype-num", RECTYPE_NUM
   2              	>  HEADER Flag_visible,"rectype-num",RECTYPE_NUM,PFA_DODATA
   2              	>>  .p2align 2,0x55
   2              	>> VE_RECTYPE_NUM:
GAS LISTING hifive1.s 			page 95


   2 2878 00000000 	>>  .word 99b
   2 287c 00000000 	>> 99:.word Flag_visible
   2 2880 00       	>>  .byte 8f-7f
   2 2881 72656374 	>> 7:.ascii "rectype-num"
   2      7970652D 
   2      6E756D
   2              	>> 8:.p2align 2,0xaa
   2 288c 00000000 	>>  XT_RECTYPE_NUM:.word PFA_DODATA
   2              	>>  PFA_RECTYPE_NUM:
   3 2890 00000000 	    .word XT_NOOP    
   4 2894 00000000 	    .word XT_LITERAL 
   5 2898 00000000 	    .word XT_LITERAL 
   6              	
   7              	DATA "rectype-dnum", RECTYPE_DNUM
   7              	>  HEADER Flag_visible,"rectype-dnum",RECTYPE_DNUM,PFA_DODATA
   7              	>>  .p2align 2,0x55
   7              	>> VE_RECTYPE_DNUM:
   7 289c 00000000 	>>  .word 99b
   7 28a0 00000000 	>> 99:.word Flag_visible
   7 28a4 00       	>>  .byte 8f-7f
   7 28a5 72656374 	>> 7:.ascii "rectype-dnum"
   7      7970652D 
   7      646E756D 
   7 28b1 AAAAAA   	>> 8:.p2align 2,0xaa
   7 28b4 00000000 	>>  XT_RECTYPE_DNUM:.word PFA_DODATA
   7              	>>  PFA_RECTYPE_DNUM:
   8 28b8 00000000 	    .word XT_NOOP 
   9 28bc 00000000 	    .word XT_2LITERAL
  10 28c0 00000000 	    .word XT_2LITERAL
  11              	
  12              	COLON "rec-num", REC_NUM
  12              	>  HEADER Flag_visible,"rec-num",REC_NUM,DOCOLON
  12              	>>  .p2align 2,0x55
  12              	>> VE_REC_NUM:
  12 28c4 00000000 	>>  .word 99b
  12 28c8 00000000 	>> 99:.word Flag_visible
  12 28cc 00       	>>  .byte 8f-7f
  12 28cd 7265632D 	>> 7:.ascii "rec-num"
  12      6E756D
  12              	>> 8:.p2align 2,0xaa
  12 28d4 00000000 	>>  XT_REC_NUM:.word DOCOLON
  12              	>>  PFA_REC_NUM:
  13 28d8 00000000 	    .word XT_NUMBER
  14 28dc 00000000 	    .word XT_DOCONDBRANCH,PFA_REC_NONUMBER
  14      00000000 
  15 28e4 00000000 	    .word XT_DOLITERAL,1
  15      01000000 
  16 28ec 00000000 	    .word XT_EQUAL
  17 28f0 00000000 	    .word XT_DOCONDBRANCH, PFA_REC_INTNUM2
  17      00000000 
  18 28f8 00000000 	      .word XT_RECTYPE_NUM
  19 28fc 00000000 	      .word XT_EXIT
  20              	PFA_REC_INTNUM2:
  21 2900 00000000 	      .word XT_RECTYPE_DNUM
  22 2904 00000000 	      .word XT_EXIT
  23              	PFA_REC_NONUMBER:
  24 2908 00000000 	    .word XT_RECTYPE_NULL
GAS LISTING hifive1.s 			page 96


  25 290c 00000000 	    .word XT_EXIT
  79              	.include "words/rec-split.s"
   1              	COLON "rec-split", REC_SPLIT
   1              	>  HEADER Flag_visible,"rec-split",REC_SPLIT,DOCOLON
   1              	>>  .p2align 2,0x55
   1              	>> VE_REC_SPLIT:
   1 2910 00000000 	>>  .word 99b
   1 2914 00000000 	>> 99:.word Flag_visible
   1 2918 00       	>>  .byte 8f-7f
   1 2919 7265632D 	>> 7:.ascii "rec-split"
   1      73706C69 
   1      74
   1 2922 AAAA     	>> 8:.p2align 2,0xaa
   1 2924 00000000 	>>  XT_REC_SPLIT:.word DOCOLON
   1              	>>  PFA_REC_SPLIT:
   2 2928 00000000 	    .word XT_RECTYPE_SPLIT
   3 292c 00000000 	    .word XT_EXIT
   4              	
   5              	DATA "rectype-split", RECTYPE_SPLIT
   5              	>  HEADER Flag_visible,"rectype-split",RECTYPE_SPLIT,PFA_DODATA
   5              	>>  .p2align 2,0x55
   5              	>> VE_RECTYPE_SPLIT:
   5 2930 00000000 	>>  .word 99b
   5 2934 00000000 	>> 99:.word Flag_visible
   5 2938 00       	>>  .byte 8f-7f
   5 2939 72656374 	>> 7:.ascii "rectype-split"
   5      7970652D 
   5      73706C69 
   5      74
   5 2946 AAAA     	>> 8:.p2align 2,0xaa
   5 2948 00000000 	>>  XT_RECTYPE_SPLIT:.word PFA_DODATA
   5              	>>  PFA_RECTYPE_SPLIT:
   6 294c 00000000 	    .word XT_SPLIT  
   7 2950 00000000 	    .word XT_SPLIT  
   8 2954 00000000 	    .word XT_SPLIT  
   9              	
  10              	COLON "split", SPLIT
  10              	>  HEADER Flag_visible,"split",SPLIT,DOCOLON
  10              	>>  .p2align 2,0x55
  10              	>> VE_SPLIT:
  10 2958 00000000 	>>  .word 99b
  10 295c 00000000 	>> 99:.word Flag_visible
  10 2960 00       	>>  .byte 8f-7f
  10 2961 73706C69 	>> 7:.ascii "split"
  10      74
  10 2966 AAAA     	>> 8:.p2align 2,0xaa
  10 2968 00000000 	>>  XT_SPLIT:.word DOCOLON
  10              	>>  PFA_SPLIT:
  11 296c 00000000 	    .word XT_DOTS,XT_CR,XT_TYPE,XT_CR
  11      00000000 
  11      00000000 
  11      00000000 
  12 297c 00000000 	    .word XT_EXIT
  80              	.include "words/forth-recognizer.s"
   1              	
   2              	VALUE "forth-recognizer", FORTHRECOGNIZER, PFA_CFG_RECOGNIZER
   2              	>  HEADER Flag_visible|Flag_value|Flag_init,"forth-recognizer",FORTHRECOGNIZER,PFA_DOVALUE
GAS LISTING hifive1.s 			page 97


   2              	>>  .p2align 2,0x55
   2              	>> VE_FORTHRECOGNIZER:
   2 2980 00000000 	>>  .word 99b
   2 2984 A0000000 	>> 99:.word Flag_visible|Flag_value|Flag_init
   2 2988 00       	>>  .byte 8f-7f
   2 2989 666F7274 	>> 7:.ascii "forth-recognizer"
   2      682D7265 
   2      636F676E 
   2      697A6572 
   2 2999 AAAAAA   	>> 8:.p2align 2,0xaa
   2 299c 00000000 	>>  XT_FORTHRECOGNIZER:.word PFA_DOVALUE
   2              	>>  PFA_FORTHRECOGNIZER:
   2 29a0 44020080 	>  .word rampointer
   2              	>  .equ RAM_FORTHRECOGNIZER,rampointer
   2              	>  .set rampointer,rampointer+4
   2 29a4 00000000 	>  .word PFA_CFG_RECOGNIZER
   2 29a8 00000000 	>  .word XT_FETCH
   2 29ac 00000000 	>  .word XT_STORE
   3              	
   4              	DATA "cfg-recognizer", CFG_RECOGNIZER
   4              	>  HEADER Flag_visible,"cfg-recognizer",CFG_RECOGNIZER,PFA_DODATA
   4              	>>  .p2align 2,0x55
   4              	>> VE_CFG_RECOGNIZER:
   4 29b0 00000000 	>>  .word 99b
   4 29b4 00000000 	>> 99:.word Flag_visible
   4 29b8 00       	>>  .byte 8f-7f
   4 29b9 6366672D 	>> 7:.ascii "cfg-recognizer"
   4      7265636F 
   4      676E697A 
   4      6572
   4 29c7 AA       	>> 8:.p2align 2,0xaa
   4 29c8 00000000 	>>  XT_CFG_RECOGNIZER:.word PFA_DODATA
   4              	>>  PFA_CFG_RECOGNIZER:
   5              	
   6 29cc 02000000 	.word 2
   7              	
   8 29d0 00000000 	.word XT_REC_FIND
   9 29d4 00000000 	.word XT_REC_NUM
  10              	
  81              	.include "words/recognize.s"
   1              	
   2              	COLON "recognize", RECOGNIZE
   2              	>  HEADER Flag_visible,"recognize",RECOGNIZE,DOCOLON
   2              	>>  .p2align 2,0x55
   2              	>> VE_RECOGNIZE:
   2 29d8 00000000 	>>  .word 99b
   2 29dc 00000000 	>> 99:.word Flag_visible
   2 29e0 00       	>>  .byte 8f-7f
   2 29e1 7265636F 	>> 7:.ascii "recognize"
   2      676E697A 
   2      65
   2 29ea AAAA     	>> 8:.p2align 2,0xaa
   2 29ec 00000000 	>>  XT_RECOGNIZE:.word DOCOLON
   2              	>>  PFA_RECOGNIZE:
   3              	
   4 29f0 00000000 	    .word XT_DOLITERAL
   5 29f4 00000000 	    .word XT_RECOGNIZE_A
GAS LISTING hifive1.s 			page 98


   6 29f8 00000000 	    .word XT_SWAP
   7 29fc 00000000 	    .word XT_MAPSTACK
   8 2a00 00000000 	    .word XT_ZEROEQUAL
   9 2a04 00000000 	    .word XT_DOCONDBRANCH, PFA_RECOGNIZE1
   9      00000000 
  10 2a0c 00000000 	      .word XT_2DROP
  11 2a10 00000000 	      .word XT_RECTYPE_NULL
  12              	PFA_RECOGNIZE1:
  13 2a14 00000000 	    .word XT_EXIT
  14              	
  15              	NONAME RECOGNIZE_A
  15 2a18 00000000 	>  XT_RECOGNIZE_A:.word DOCOLON
  15              	>  PFA_RECOGNIZE_A:
  16 2a1c 00000000 	   .word XT_ROT
  17 2a20 00000000 	   .word XT_ROT
  18 2a24 00000000 	   .word XT_2DUP 
  19 2a28 00000000 	   .word XT_2TO_R
  20 2a2c 00000000 	   .word XT_ROT
  21 2a30 00000000 	   .word XT_EXECUTE
  22 2a34 00000000 	   .word XT_2R_FROM
  23 2a38 00000000 	   .word XT_ROT
  24 2a3c 00000000 	   .word XT_DUP
  25 2a40 00000000 	   .word XT_RECTYPE_NULL
  26 2a44 00000000 	   .word XT_EQUAL
  27 2a48 00000000 	   .word XT_DOCONDBRANCH,PFA_RECOGNIZE_A1
  27      00000000 
  28 2a50 00000000 	     .word XT_DROP
  29 2a54 00000000 	     .word XT_ZERO
  30 2a58 00000000 	     .word XT_EXIT
  31              	PFA_RECOGNIZE_A1:
  32 2a5c 00000000 	   .word XT_NIP 
  33 2a60 00000000 	   .word XT_NIP
  34 2a64 00000000 	   .word XT_TRUE
  35 2a68 00000000 	   .word XT_EXIT
  82              	
  83              	.include "words/interpret.s"
   1              	
   2              	COLON "interpret", INTERPRET
   2              	>  HEADER Flag_visible,"interpret",INTERPRET,DOCOLON
   2              	>>  .p2align 2,0x55
   2              	>> VE_INTERPRET:
   2 2a6c 00000000 	>>  .word 99b
   2 2a70 00000000 	>> 99:.word Flag_visible
   2 2a74 00       	>>  .byte 8f-7f
   2 2a75 696E7465 	>> 7:.ascii "interpret"
   2      72707265 
   2      74
   2 2a7e AAAA     	>> 8:.p2align 2,0xaa
   2 2a80 00000000 	>>  XT_INTERPRET:.word DOCOLON
   2              	>>  PFA_INTERPRET:
   3 2a84 00000000 	    .word XT_PARSENAME 
   4 2a88 00000000 	    .word XT_DUP
   5 2a8c 00000000 	    .word XT_DOCONDBRANCH,PFA_INTERPRET2
   5      00000000 
   6 2a94 00000000 	      .word XT_FORTHRECOGNIZER
   7 2a98 00000000 	      .word XT_RECOGNIZE
   8 2a9c 00000000 	      .word XT_STATE
GAS LISTING hifive1.s 			page 99


   9 2aa0 00000000 	      .word XT_FETCH
  10 2aa4 00000000 	      .word XT_DOCONDBRANCH, PFA_INTERPRET1
  10      00000000 
  11 2aac 00000000 	        .word XT_CELLPLUS   
  12              	PFA_INTERPRET1:
  13 2ab0 00000000 	      .word XT_FETCH
  14 2ab4 00000000 	      .word XT_EXECUTE
  15 2ab8 00000000 	      .word XT_QSTACK
  16 2abc 00000000 	    .word XT_DOBRANCH, PFA_INTERPRET
  16      00000000 
  17              	PFA_INTERPRET2:
  18 2ac4 00000000 	    .word XT_2DROP
  19 2ac8 00000000 	    .word XT_EXIT
  84              	.include "words/map-stack.s"
   1              	
   2              	COLON "map-stack", MAPSTACK
   2              	>  HEADER Flag_visible,"map-stack",MAPSTACK,DOCOLON
   2              	>>  .p2align 2,0x55
   2              	>> VE_MAPSTACK:
   2 2acc 00000000 	>>  .word 99b
   2 2ad0 00000000 	>> 99:.word Flag_visible
   2 2ad4 00       	>>  .byte 8f-7f
   2 2ad5 6D61702D 	>> 7:.ascii "map-stack"
   2      73746163 
   2      6B
   2 2ade AAAA     	>> 8:.p2align 2,0xaa
   2 2ae0 00000000 	>>  XT_MAPSTACK:.word DOCOLON
   2              	>>  PFA_MAPSTACK:
   3 2ae4 00000000 	    .word XT_DUP
   4 2ae8 00000000 	    .word XT_CELLPLUS
   5 2aec 00000000 	    .word XT_SWAP
   6 2af0 00000000 	    .word XT_FETCH
   7 2af4 00000000 	    .word XT_CELLS
   8 2af8 00000000 	    .word XT_BOUNDS
   9 2afc 00000000 	    .word XT_QDOCHECK, XT_DOCONDBRANCH,PFA_MAPSTACK3
   9      00000000 
   9      00000000 
  10 2b08 00000000 	    .word XT_DODO
  11              	PFA_MAPSTACK1:
  12 2b0c 00000000 	      .word XT_I
  13 2b10 00000000 	      .word XT_FETCH
  14 2b14 00000000 	      .word XT_SWAP
  15 2b18 00000000 	      .word XT_TO_R
  16 2b1c 00000000 	      .word XT_R_FETCH
  17 2b20 00000000 	      .word XT_EXECUTE
  18 2b24 00000000 	      .word XT_QDUP
  19 2b28 00000000 	      .word XT_DOCONDBRANCH,PFA_MAPSTACK2
  19      00000000 
  20 2b30 00000000 	         .word XT_R_FROM
  21 2b34 00000000 	         .word XT_DROP
  22 2b38 00000000 	         .word XT_UNLOOP
  23 2b3c 00000000 	         .word XT_EXIT
  24              	PFA_MAPSTACK2:
  25 2b40 00000000 	      .word XT_R_FROM
  26 2b44 00000000 	      .word XT_DOLITERAL,4
  26      04000000 
  27 2b4c 00000000 	      .word XT_DOPLUSLOOP,PFA_MAPSTACK1
GAS LISTING hifive1.s 			page 100


  27      00000000 
  28              	PFA_MAPSTACK3:
  29 2b54 00000000 	    .word XT_DROP
  30 2b58 00000000 	    .word XT_ZERO
  31 2b5c 00000000 	    .word XT_EXIT
  85              	.include "words/qdo.s"
   1              	
   2              	IMMED "?do", QDO
   2              	>  HEADER Flag_visible|Flag_immediate,?do,QDO,DOCOLON
   2              	>>  .p2align 2,0x55
   2              	>> VE_QDO:
   2 2b60 00000000 	>>  .word 99b
   2 2b64 10000000 	>> 99:.word Flag_visible|Flag_immediate
   2 2b68 00       	>>  .byte 8f-7f
   2 2b69 3F646F   	>> 7:.ascii "?do"
   2              	>> 8:.p2align 2,0xaa
   2 2b6c 00000000 	>>  XT_QDO:.word DOCOLON
   2              	>>  PFA_QDO:
   3 2b70 00000000 	    .word XT_COMPILE
   4 2b74 00000000 	    .word XT_QDOCHECK
   5 2b78 00000000 	    .word XT_IF
   6 2b7c 00000000 	    .word XT_DO
   7 2b80 00000000 	    .word XT_SWAP
   8 2b84 00000000 	    .word XT_TO_L
   9 2b88 00000000 	    .word XT_EXIT
  10              	
  11              	NONAME QDOCHECK
  11 2b8c 00000000 	>  XT_QDOCHECK:.word DOCOLON
  11              	>  PFA_QDOCHECK:
  12 2b90 00000000 	    .word XT_2DUP
  13 2b94 00000000 	    .word XT_EQUAL
  14 2b98 00000000 	    .word XT_DUP
  15 2b9c 00000000 	    .word XT_TO_R
  16 2ba0 00000000 	    .word XT_DOCONDBRANCH, PFA_QDOCHECK1
  16      00000000 
  17 2ba8 00000000 	    .word XT_2DROP
  18              	PFA_QDOCHECK1:
  19 2bac 00000000 	    .word XT_R_FROM
  20 2bb0 00000000 	    .word XT_INVERT
  21 2bb4 00000000 	    .word XT_EXIT
  22              	
  86              	
  87              	.include "words/init-ram.s"
   1              	
   2              	COLON "init-ram", INIT_RAM
   2              	>  HEADER Flag_visible,"init-ram",INIT_RAM,DOCOLON
   2              	>>  .p2align 2,0x55
   2              	>> VE_INIT_RAM:
   2 2bb8 00000000 	>>  .word 99b
   2 2bbc 00000000 	>> 99:.word Flag_visible
   2 2bc0 00       	>>  .byte 8f-7f
   2 2bc1 696E6974 	>> 7:.ascii "init-ram"
   2      2D72616D 
   2 2bc9 AAAAAA   	>> 8:.p2align 2,0xaa
   2 2bcc 00000000 	>>  XT_INIT_RAM:.word DOCOLON
   2              	>>  PFA_INIT_RAM:
   3              	
GAS LISTING hifive1.s 			page 101


   4 2bd0 00000000 	    .word XT_DOLITERAL, RAM_lower_userarea, XT_UP_STORE
   4      60010080 
   4      00000000 
   5 2bdc 00000000 	    .word XT_DOLITERAL, XT_FORTH_WORDLIST, XT_TO_BODY,XT_DUP,XT_CELLPLUS,XT_FETCH,XT_SWAP,XT_FETCH,
   5      00000000 
   5      00000000 
   5      00000000 
   5      00000000 
   6 2c00 00000000 	    .word XT_DOLITERAL, XT_DOINITS, XT_FORTH_WORDLIST, XT_TRAVERSEWORDLIST
   6      00000000 
   6      00000000 
   6      00000000 
   7 2c10 00000000 	    .word XT_EXIT
   8              	
   9              	NONAME DOINITS
   9 2c14 00000000 	>  XT_DOINITS:.word DOCOLON
   9              	>  PFA_DOINITS:
  10 2c18 00000000 	    .word XT_DUP
  11 2c1c 00000000 	    .word XT_NAME2FLAGS,XT_FETCH, XT_DOLITERAL, Flag_init, XT_DUP,XT_ROT,XT_AND,XT_EQUAL
  11      00000000 
  11      00000000 
  11      80000000 
  11      00000000 
  12 2c3c 00000000 	    .word XT_DOCONDBRANCH,PFA_DOINIT_1
  12      00000000 
  13 2c44 00000000 		.word XT_NFA2CFA 
  14 2c48 00000000 		.word XT_TO_BODY,XT_DUP,XT_CELLPLUS, XT_FETCH, XT_SWAP, XT_FETCH, XT_STORE
  14      00000000 
  14      00000000 
  14      00000000 
  14      00000000 
  15 2c64 00000000 		.word XT_TRUE
  16 2c68 00000000 		.word XT_EXIT
  17              	PFA_DOINIT_1:
  18 2c6c 00000000 	    .word XT_DROP
  19 2c70 00000000 	    .word XT_TRUE
  20 2c74 00000000 	    .word XT_EXIT
  88              	.include "words/ver.s"
   1              	
   2              	COLON "ver", DOT_VER
   2              	>  HEADER Flag_visible,"ver",DOT_VER,DOCOLON
   2              	>>  .p2align 2,0x55
   2              	>> VE_DOT_VER:
   2 2c78 00000000 	>>  .word 99b
   2 2c7c 00000000 	>> 99:.word Flag_visible
   2 2c80 00       	>>  .byte 8f-7f
   2 2c81 766572   	>> 7:.ascii "ver"
   2              	>> 8:.p2align 2,0xaa
   2 2c84 00000000 	>>  XT_DOT_VER:.word DOCOLON
   2              	>>  PFA_DOT_VER:
   3              	
   4 2c88 00000000 	.word XT_ENV_FORTHNAME, XT_TYPE, XT_SPACE
   4      00000000 
   4      00000000 
   5              	
   6 2c94 00000000 	.word XT_BASE, XT_FETCH
   6      00000000 
GAS LISTING hifive1.s 			page 102


   7 2c9c 00000000 	.word XT_ENV_FORTHVERSION, XT_DECIMAL, XT_S2D
   7      00000000 
   7      00000000 
   8 2ca8 00000000 	.word XT_L_SHARP, XT_SHARP
   8      00000000 
   9 2cb0 00000000 	.word XT_DOLITERAL, '.'
   9      2E000000 
  10 2cb8 00000000 	.word XT_HOLD, XT_SHARP_S, XT_SHARP_G
  10      00000000 
  10      00000000 
  11 2cc4 00000000 	.word XT_TYPE, XT_BASE, XT_STORE
  11      00000000 
  11      00000000 
  12              	
  13 2cd0 00000000 	.word XT_SPACE, XT_ENV_CPU, XT_TYPE
  13      00000000 
  13      00000000 
  14              	
  15 2cdc 00000000 	.word XT_EXIT
  89              	
  90              	.include "words/count.s"
   1              	
   2              	COLON "count", COUNT
   2              	>  HEADER Flag_visible,"count",COUNT,DOCOLON
   2              	>>  .p2align 2,0x55
   2              	>> VE_COUNT:
   2 2ce0 00000000 	>>  .word 99b
   2 2ce4 00000000 	>> 99:.word Flag_visible
   2 2ce8 00       	>>  .byte 8f-7f
   2 2ce9 636F756E 	>> 7:.ascii "count"
   2      74
   2 2cee AAAA     	>> 8:.p2align 2,0xaa
   2 2cf0 00000000 	>>  XT_COUNT:.word DOCOLON
   2              	>>  PFA_COUNT:
   3              	
   4 2cf4 00000000 	.word XT_DUP,XT_1PLUS,XT_SWAP,XT_CFETCH,XT_EXIT
   4      00000000 
   4      00000000 
   4      00000000 
   4      00000000 
  91              	.include "words/type.s"
   1              	
   2              	COLON "type", TYPE
   2              	>  HEADER Flag_visible,"type",TYPE,DOCOLON
   2              	>>  .p2align 2,0x55
   2              	>> VE_TYPE:
   2 2d08 00000000 	>>  .word 99b
   2 2d0c 00000000 	>> 99:.word Flag_visible
   2 2d10 00       	>>  .byte 8f-7f
   2 2d11 74797065 	>> 7:.ascii "type"
   2 2d15 AAAAAA   	>> 8:.p2align 2,0xaa
   2 2d18 00000000 	>>  XT_TYPE:.word DOCOLON
   2              	>>  PFA_TYPE:
   3              	
   4 2d1c 00000000 	 .word XT_BOUNDS
   5 2d20 00000000 	 .word XT_QDOCHECK,XT_DOCONDBRANCH,PFA_TYPE_LEAVE
   5      00000000 
GAS LISTING hifive1.s 			page 103


   5      00000000 
   6 2d2c 00000000 	 .word XT_DODO
   7              	PFA_TYPE_LOOP:
   8 2d30 00000000 	   .word XT_I, XT_CFETCH, XT_EMIT
   8      00000000 
   8      00000000 
   9 2d3c 00000000 	   .word XT_DOLOOP,PFA_TYPE_LOOP
   9      00000000 
  10              	PFA_TYPE_LEAVE:
  11 2d44 00000000 	 .word XT_EXIT
  12              	
  13              	COLON "itype", ITYPE
  13              	>  HEADER Flag_visible,"itype",ITYPE,DOCOLON
  13              	>>  .p2align 2,0x55
  13              	>> VE_ITYPE:
  13 2d48 00000000 	>>  .word 99b
  13 2d4c 00000000 	>> 99:.word Flag_visible
  13 2d50 00       	>>  .byte 8f-7f
  13 2d51 69747970 	>> 7:.ascii "itype"
  13      65
  13 2d56 AAAA     	>> 8:.p2align 2,0xaa
  13 2d58 00000000 	>>  XT_ITYPE:.word DOCOLON
  13              	>>  PFA_ITYPE:
  14 2d5c 00000000 	    .word XT_TYPE,XT_EXIT
  14      00000000 
  92              	.include "words/squote.s"
   1              	
   2              	IMMED "s\x22", SQUOTE 
   2              	>  HEADER Flag_visible|Flag_immediate,s\x22,SQUOTE,DOCOLON
   2              	>>  .p2align 2,0x55
   2              	>> VE_SQUOTE:
   2 2d64 00000000 	>>  .word 99b
   2 2d68 10000000 	>> 99:.word Flag_visible|Flag_immediate
   2 2d6c 00       	>>  .byte 8f-7f
   2 2d6d 7322     	>> 7:.ascii "s\x22"
   2 2d6f AA       	>> 8:.p2align 2,0xaa
   2 2d70 00000000 	>>  XT_SQUOTE:.word DOCOLON
   2              	>>  PFA_SQUOTE:
   3 2d74 00000000 	    .word XT_DOLITERAL
   4 2d78 22000000 	    .word 34  
   5 2d7c 00000000 	    .word XT_PARSE       
   6 2d80 00000000 	    .word XT_STATE
   7 2d84 00000000 	    .word XT_FETCH
   8 2d88 00000000 	    .word XT_DOCONDBRANCH, PFA_SQUOTE1
   8      00000000 
   9 2d90 00000000 	      .word XT_SLITERAL
  10              	PFA_SQUOTE1:
  11 2d94 00000000 	    .word XT_EXIT
  93              	.include "words/dot-quote.s"
   1              	
   2              	IMMED ".\x22", DOT_QUOTE
   2              	>  HEADER Flag_visible|Flag_immediate,.\x22,DOT_QUOTE,DOCOLON
   2              	>>  .p2align 2,0x55
   2              	>> VE_DOT_QUOTE:
   2 2d98 00000000 	>>  .word 99b
   2 2d9c 10000000 	>> 99:.word Flag_visible|Flag_immediate
   2 2da0 00       	>>  .byte 8f-7f
GAS LISTING hifive1.s 			page 104


   2 2da1 2E22     	>> 7:.ascii ".\x22"
   2 2da3 AA       	>> 8:.p2align 2,0xaa
   2 2da4 00000000 	>>  XT_DOT_QUOTE:.word DOCOLON
   2              	>>  PFA_DOT_QUOTE:
   3 2da8 00000000 	    .word XT_SQUOTE
   4 2dac 00000000 	    .word XT_COMPILE
   5 2db0 00000000 	    .word XT_TYPE
   6 2db4 00000000 	    .word XT_EXIT
  94              	.include "words/scomma.s"
   1              	
   2              	COLON "s,", SCOMMA
   2              	>  HEADER Flag_visible,"s,",SCOMMA,DOCOLON
   2              	>>  .p2align 2,0x55
   2              	>> VE_SCOMMA:
   2 2db8 00000000 	>>  .word 99b
   2 2dbc 00000000 	>> 99:.word Flag_visible
   2 2dc0 00       	>>  .byte 8f-7f
   2 2dc1 732C     	>> 7:.ascii "s,"
   2 2dc3 AA       	>> 8:.p2align 2,0xaa
   2 2dc4 00000000 	>>  XT_SCOMMA:.word DOCOLON
   2              	>>  PFA_SCOMMA:
   3 2dc8 00000000 	    .word XT_DUP, XT_CCOMMA
   3      00000000 
   4 2dd0 00000000 	    .word XT_ZERO
   5 2dd4 00000000 	    .word XT_QDOCHECK
   6 2dd8 00000000 	    .word XT_DOCONDBRANCH, PFA_SCOMMA2
   6      00000000 
   7 2de0 00000000 	    .word XT_DODO
   8              	PFA_SCOMMA1:
   9 2de4 00000000 	    .word XT_DUP
  10 2de8 00000000 	    .word XT_CFETCH
  11 2dec 00000000 	    .word XT_CCOMMA
  12 2df0 00000000 	    .word XT_1PLUS
  13 2df4 00000000 	    .word XT_DOLOOP
  14 2df8 00000000 	    .word PFA_SCOMMA1
  15              	PFA_SCOMMA2:
  16 2dfc 00000000 	    .word XT_DROP
  17 2e00 00000000 	    .word XT_DP, XT_ALIGNED, XT_DOTO, XT_DP
  17      00000000 
  17      00000000 
  17      00000000 
  18 2e10 00000000 	    .word XT_EXIT
  95              	.include "words/sliteral.s"
   1              	
   2              	IMMED "sliteral", SLITERAL
   2              	>  HEADER Flag_visible|Flag_immediate,sliteral,SLITERAL,DOCOLON
   2              	>>  .p2align 2,0x55
   2              	>> VE_SLITERAL:
   2 2e14 00000000 	>>  .word 99b
   2 2e18 10000000 	>> 99:.word Flag_visible|Flag_immediate
   2 2e1c 00       	>>  .byte 8f-7f
   2 2e1d 736C6974 	>> 7:.ascii "sliteral"
   2      6572616C 
   2 2e25 AAAAAA   	>> 8:.p2align 2,0xaa
   2 2e28 00000000 	>>  XT_SLITERAL:.word DOCOLON
   2              	>>  PFA_SLITERAL:
   3 2e2c 00000000 	    .word XT_COMPILE
GAS LISTING hifive1.s 			page 105


   4 2e30 00000000 	    .word XT_DOSLITERAL
   5 2e34 00000000 	    .word XT_SCOMMA
   6 2e38 00000000 	    .word XT_EXIT
  96              	.include "words/words.s"
   1              	
   2              	COLON "words", WORDS
   2              	>  HEADER Flag_visible,"words",WORDS,DOCOLON
   2              	>>  .p2align 2,0x55
   2              	>> VE_WORDS:
   2 2e3c 00000000 	>>  .word 99b
   2 2e40 00000000 	>> 99:.word Flag_visible
   2 2e44 00       	>>  .byte 8f-7f
   2 2e45 776F7264 	>> 7:.ascii "words"
   2      73
   2 2e4a AAAA     	>> 8:.p2align 2,0xaa
   2 2e4c 00000000 	>>  XT_WORDS:.word DOCOLON
   2              	>>  PFA_WORDS:
   3 2e50 00000000 	    .word XT_FORTH_WORDLIST, XT_SHOWWORDLIST
   3      00000000 
   4 2e58 00000000 	    .word XT_EXIT
  97              	
  98              	.include "words/l-mark.s"
   1              	
   2              	NONAME LMARK
   2 2e5c 00000000 	>  XT_LMARK:.word DOCOLON
   2              	>  PFA_LMARK:
   3 2e60 00000000 	    .word XT_DP
   4 2e64 00000000 	    .word XT_EXIT
  99              	.include "words/l-resolve.s"
   1              	
   2              	NONAME LRESOLVE
   2 2e68 00000000 	>  XT_LRESOLVE:.word DOCOLON
   2              	>  PFA_LRESOLVE:
   3 2e6c 00000000 	    .word XT_QSTACK
   4 2e70 00000000 	    .word XT_COMMA
   5 2e74 00000000 	    .word XT_EXIT
 100              	.include "words/g-mark.s"
   1              	
   2              	NONAME GMARK
   2 2e78 00000000 	>  XT_GMARK:.word DOCOLON
   2              	>  PFA_GMARK:
   3 2e7c 00000000 	    .word XT_DP
   4 2e80 00000000 	    .word XT_COMPILE
   5 2e84 FFFFFFFF 	    .word -1
   6 2e88 00000000 	    .word XT_EXIT
 101              	.include "words/g-resolve.s"
   1              	
   2              	NONAME GRESOLVE
   2 2e8c 00000000 	>  XT_GRESOLVE:.word DOCOLON
   2              	>  PFA_GRESOLVE:
   3 2e90 00000000 	    .word XT_QSTACK
   4 2e94 00000000 	    .word XT_DP
   5 2e98 00000000 	    .word XT_SWAP
   6 2e9c 00000000 	    .word XT_STORE
   7 2ea0 00000000 	    .word XT_EXIT
 102              	.include "words/ahead.s"
   1              	
GAS LISTING hifive1.s 			page 106


   2              	IMMED "ahead", AHEAD
   2              	>  HEADER Flag_visible|Flag_immediate,ahead,AHEAD,DOCOLON
   2              	>>  .p2align 2,0x55
   2              	>> VE_AHEAD:
   2 2ea4 00000000 	>>  .word 99b
   2 2ea8 10000000 	>> 99:.word Flag_visible|Flag_immediate
   2 2eac 00       	>>  .byte 8f-7f
   2 2ead 61686561 	>> 7:.ascii "ahead"
   2      64
   2 2eb2 AAAA     	>> 8:.p2align 2,0xaa
   2 2eb4 00000000 	>>  XT_AHEAD:.word DOCOLON
   2              	>>  PFA_AHEAD:
   3 2eb8 00000000 	    .word XT_COMPILE
   4 2ebc 00000000 	    .word XT_DOBRANCH
   5 2ec0 00000000 	    .word XT_GMARK
   6 2ec4 00000000 	    .word XT_EXIT
 103              	.include "words/begin.s"
   1              	
   2              	IMMED "begin", BEGIN
   2              	>  HEADER Flag_visible|Flag_immediate,begin,BEGIN,DOCOLON
   2              	>>  .p2align 2,0x55
   2              	>> VE_BEGIN:
   2 2ec8 00000000 	>>  .word 99b
   2 2ecc 10000000 	>> 99:.word Flag_visible|Flag_immediate
   2 2ed0 00       	>>  .byte 8f-7f
   2 2ed1 62656769 	>> 7:.ascii "begin"
   2      6E
   2 2ed6 AAAA     	>> 8:.p2align 2,0xaa
   2 2ed8 00000000 	>>  XT_BEGIN:.word DOCOLON
   2              	>>  PFA_BEGIN:
   3 2edc 00000000 	    .word XT_LMARK
   4 2ee0 00000000 	    .word XT_EXIT
 104              	.include "words/then.s"
   1              	
   2              	IMMED "then", THEN
   2              	>  HEADER Flag_visible|Flag_immediate,then,THEN,DOCOLON
   2              	>>  .p2align 2,0x55
   2              	>> VE_THEN:
   2 2ee4 00000000 	>>  .word 99b
   2 2ee8 10000000 	>> 99:.word Flag_visible|Flag_immediate
   2 2eec 00       	>>  .byte 8f-7f
   2 2eed 7468656E 	>> 7:.ascii "then"
   2 2ef1 AAAAAA   	>> 8:.p2align 2,0xaa
   2 2ef4 00000000 	>>  XT_THEN:.word DOCOLON
   2              	>>  PFA_THEN:
   3 2ef8 00000000 	    .word XT_GRESOLVE
   4 2efc 00000000 	    .word XT_EXIT
 105              	.include "words/until.s"
   1              	
   2              	IMMED "until", UNTIL
   2              	>  HEADER Flag_visible|Flag_immediate,until,UNTIL,DOCOLON
   2              	>>  .p2align 2,0x55
   2              	>> VE_UNTIL:
   2 2f00 00000000 	>>  .word 99b
   2 2f04 10000000 	>> 99:.word Flag_visible|Flag_immediate
   2 2f08 00       	>>  .byte 8f-7f
   2 2f09 756E7469 	>> 7:.ascii "until"
GAS LISTING hifive1.s 			page 107


   2      6C
   2 2f0e AAAA     	>> 8:.p2align 2,0xaa
   2 2f10 00000000 	>>  XT_UNTIL:.word DOCOLON
   2              	>>  PFA_UNTIL:
   3 2f14 00000000 	    .word XT_DOLITERAL
   4 2f18 00000000 	    .word XT_DOCONDBRANCH
   5 2f1c 00000000 	    .word XT_COMMA
   6              	
   7 2f20 00000000 	    .word XT_LRESOLVE
   8 2f24 00000000 	    .word XT_EXIT
 106              	.include "words/while.s"
   1              	
   2              	IMMED "while", WHILE
   2              	>  HEADER Flag_visible|Flag_immediate,while,WHILE,DOCOLON
   2              	>>  .p2align 2,0x55
   2              	>> VE_WHILE:
   2 2f28 00000000 	>>  .word 99b
   2 2f2c 10000000 	>> 99:.word Flag_visible|Flag_immediate
   2 2f30 00       	>>  .byte 8f-7f
   2 2f31 7768696C 	>> 7:.ascii "while"
   2      65
   2 2f36 AAAA     	>> 8:.p2align 2,0xaa
   2 2f38 00000000 	>>  XT_WHILE:.word DOCOLON
   2              	>>  PFA_WHILE:
   3 2f3c 00000000 	    .word XT_IF
   4 2f40 00000000 	    .word XT_SWAP
   5 2f44 00000000 	    .word XT_EXIT
 107              	.include "words/if.s"
   1              	
   2              	IMMED "if", IF
   2              	>  HEADER Flag_visible|Flag_immediate,if,IF,DOCOLON
   2              	>>  .p2align 2,0x55
   2              	>> VE_IF:
   2 2f48 00000000 	>>  .word 99b
   2 2f4c 10000000 	>> 99:.word Flag_visible|Flag_immediate
   2 2f50 00       	>>  .byte 8f-7f
   2 2f51 6966     	>> 7:.ascii "if"
   2 2f53 AA       	>> 8:.p2align 2,0xaa
   2 2f54 00000000 	>>  XT_IF:.word DOCOLON
   2              	>>  PFA_IF:
   3 2f58 00000000 	    .word XT_COMPILE
   4 2f5c 00000000 	    .word XT_DOCONDBRANCH
   5 2f60 00000000 	    .word XT_GMARK
   6 2f64 00000000 	    .word XT_EXIT
 108              	.include "words/else.s"
   1              	
   2              	IMMED "else", ELSE
   2              	>  HEADER Flag_visible|Flag_immediate,else,ELSE,DOCOLON
   2              	>>  .p2align 2,0x55
   2              	>> VE_ELSE:
   2 2f68 00000000 	>>  .word 99b
   2 2f6c 10000000 	>> 99:.word Flag_visible|Flag_immediate
   2 2f70 00       	>>  .byte 8f-7f
   2 2f71 656C7365 	>> 7:.ascii "else"
   2 2f75 AAAAAA   	>> 8:.p2align 2,0xaa
   2 2f78 00000000 	>>  XT_ELSE:.word DOCOLON
   2              	>>  PFA_ELSE:
GAS LISTING hifive1.s 			page 108


   3              	
   4 2f7c 00000000 	    .word XT_COMPILE
   5 2f80 00000000 	    .word XT_DOBRANCH
   6 2f84 00000000 	    .word XT_GMARK
   7 2f88 00000000 	    .word XT_SWAP
   8 2f8c 00000000 	    .word XT_GRESOLVE
   9 2f90 00000000 	    .word XT_EXIT
 109              	.include "words/again.s"
   1              	
   2              	IMMED "again", AGAIN
   2              	>  HEADER Flag_visible|Flag_immediate,again,AGAIN,DOCOLON
   2              	>>  .p2align 2,0x55
   2              	>> VE_AGAIN:
   2 2f94 00000000 	>>  .word 99b
   2 2f98 10000000 	>> 99:.word Flag_visible|Flag_immediate
   2 2f9c 00       	>>  .byte 8f-7f
   2 2f9d 61676169 	>> 7:.ascii "again"
   2      6E
   2 2fa2 AAAA     	>> 8:.p2align 2,0xaa
   2 2fa4 00000000 	>>  XT_AGAIN:.word DOCOLON
   2              	>>  PFA_AGAIN:
   3 2fa8 00000000 	    .word XT_COMPILE
   4 2fac 00000000 	    .word XT_DOBRANCH
   5 2fb0 00000000 	    .word XT_LRESOLVE
   6 2fb4 00000000 	    .word XT_EXIT
 110              	.include "words/repeat.s"
   1              	
   2              	IMMED "repeat", REPEAT
   2              	>  HEADER Flag_visible|Flag_immediate,repeat,REPEAT,DOCOLON
   2              	>>  .p2align 2,0x55
   2              	>> VE_REPEAT:
   2 2fb8 00000000 	>>  .word 99b
   2 2fbc 10000000 	>> 99:.word Flag_visible|Flag_immediate
   2 2fc0 00       	>>  .byte 8f-7f
   2 2fc1 72657065 	>> 7:.ascii "repeat"
   2      6174
   2 2fc7 AA       	>> 8:.p2align 2,0xaa
   2 2fc8 00000000 	>>  XT_REPEAT:.word DOCOLON
   2              	>>  PFA_REPEAT:
   3 2fcc 00000000 	    .word XT_AGAIN
   4 2fd0 00000000 	    .word XT_THEN
   5 2fd4 00000000 	    .word XT_EXIT
 111              	.include "words/leave.s"
   1              	
   2              	VALUE "lp0", LP0, RAM_upper_leavestack
   2              	>  HEADER Flag_visible|Flag_value|Flag_init,"lp0",LP0,PFA_DOVALUE
   2              	>>  .p2align 2,0x55
   2              	>> VE_LP0:
   2 2fd8 00000000 	>>  .word 99b
   2 2fdc A0000000 	>> 99:.word Flag_visible|Flag_value|Flag_init
   2 2fe0 00       	>>  .byte 8f-7f
   2 2fe1 6C7030   	>> 7:.ascii "lp0"
   2              	>> 8:.p2align 2,0xaa
   2 2fe4 00000000 	>>  XT_LP0:.word PFA_DOVALUE
   2              	>>  PFA_LP0:
   2 2fe8 48020080 	>  .word rampointer
   2              	>  .equ RAM_LP0,rampointer
GAS LISTING hifive1.s 			page 109


   2              	>  .set rampointer,rampointer+4
   2 2fec 08020080 	>  .word RAM_upper_leavestack
   2 2ff0 00000000 	>  .word XT_FETCH
   2 2ff4 00000000 	>  .word XT_STORE
   3              	VARIABLE "lp", LP
   3              	>  HEADER Flag_visible|Flag_variable,"lp",LP,PFA_DOVARIABLE
   3              	>>  .p2align 2,0x55
   3              	>> VE_LP:
   3 2ff8 00000000 	>>  .word 99b
   3 2ffc 01010000 	>> 99:.word Flag_visible|Flag_variable
   3 3000 00       	>>  .byte 8f-7f
   3 3001 6C70     	>> 7:.ascii "lp"
   3 3003 AA       	>> 8:.p2align 2,0xaa
   3 3004 00000000 	>>  XT_LP:.word PFA_DOVARIABLE
   3              	>>  PFA_LP:
   3 3008 4C020080 	>  .word rampointer
   3              	>  .set rampointer,rampointer+4
   4              	
   5              	COLON "l>", L_FROM
   5              	>  HEADER Flag_visible,"l>",L_FROM,DOCOLON
   5              	>>  .p2align 2,0x55
   5              	>> VE_L_FROM:
   5 300c 00000000 	>>  .word 99b
   5 3010 00000000 	>> 99:.word Flag_visible
   5 3014 00       	>>  .byte 8f-7f
   5 3015 6C3E     	>> 7:.ascii "l>"
   5 3017 AA       	>> 8:.p2align 2,0xaa
   5 3018 00000000 	>>  XT_L_FROM:.word DOCOLON
   5              	>>  PFA_L_FROM:
   6 301c 00000000 	    .word XT_LP
   7 3020 00000000 	    .word XT_FETCH
   8 3024 00000000 	    .word XT_FETCH
   9 3028 00000000 	    .word XT_DOLITERAL
  10 302c 04000000 	    .word 4
  11 3030 00000000 	    .word XT_LP
  12 3034 00000000 	    .word XT_PLUSSTORE
  13 3038 00000000 	    .word XT_EXIT
  14              	
  15              	COLON ">l", TO_L
  15              	>  HEADER Flag_visible,">l",TO_L,DOCOLON
  15              	>>  .p2align 2,0x55
  15              	>> VE_TO_L:
  15 303c 00000000 	>>  .word 99b
  15 3040 00000000 	>> 99:.word Flag_visible
  15 3044 00       	>>  .byte 8f-7f
  15 3045 3E6C     	>> 7:.ascii ">l"
  15 3047 AA       	>> 8:.p2align 2,0xaa
  15 3048 00000000 	>>  XT_TO_L:.word DOCOLON
  15              	>>  PFA_TO_L:
  16              	
  17 304c 00000000 	    .word XT_DOLITERAL,-4
  17      FCFFFFFF 
  18 3054 00000000 	    .word XT_LP
  19 3058 00000000 	    .word XT_PLUSSTORE
  20 305c 00000000 	    .word XT_LP
  21 3060 00000000 	    .word XT_FETCH
  22 3064 00000000 	    .word XT_STORE
GAS LISTING hifive1.s 			page 110


  23 3068 00000000 	    .word XT_EXIT
  24              	
  25              	IMMED "leave", LEAVE
  25              	>  HEADER Flag_visible|Flag_immediate,leave,LEAVE,DOCOLON
  25              	>>  .p2align 2,0x55
  25              	>> VE_LEAVE:
  25 306c 00000000 	>>  .word 99b
  25 3070 10000000 	>> 99:.word Flag_visible|Flag_immediate
  25 3074 00       	>>  .byte 8f-7f
  25 3075 6C656176 	>> 7:.ascii "leave"
  25      65
  25 307a AAAA     	>> 8:.p2align 2,0xaa
  25 307c 00000000 	>>  XT_LEAVE:.word DOCOLON
  25              	>>  PFA_LEAVE:
  26 3080 00000000 	    .word XT_COMPILE,XT_UNLOOP
  26      00000000 
  27 3088 00000000 	    .word XT_AHEAD,XT_TO_L,XT_EXIT
  27      00000000 
  27      00000000 
 112              	.include "words/immediate.s"
   1              	
   2              	COLON "immediate", IMMEDIATE
   2              	>  HEADER Flag_visible,"immediate",IMMEDIATE,DOCOLON
   2              	>>  .p2align 2,0x55
   2              	>> VE_IMMEDIATE:
   2 3094 00000000 	>>  .word 99b
   2 3098 00000000 	>> 99:.word Flag_visible
   2 309c 00       	>>  .byte 8f-7f
   2 309d 696D6D65 	>> 7:.ascii "immediate"
   2      64696174 
   2      65
   2 30a6 AAAA     	>> 8:.p2align 2,0xaa
   2 30a8 00000000 	>>  XT_IMMEDIATE:.word DOCOLON
   2              	>>  PFA_IMMEDIATE:
   3              	
   4 30ac 00000000 	    .word XT_GET_CURRENT,XT_EXECUTE
   4      00000000 
   5 30b4 00000000 	    .word XT_DUP, XT_DOLITERAL,Flag_immediate
   5      00000000 
   5      10000000 
   6 30c0 00000000 	    .word XT_ROT, XT_FETCH, XT_OR, XT_SWAP, XT_STORE
   6      00000000 
   6      00000000 
   6      00000000 
   6      00000000 
   7 30d4 00000000 	    .word XT_EXIT
 113              	.include "words/turnkey.s"
   1              	
   2              	DEFER "turnkey", TURNKEY, XT_APPLTURNKEY
   2              	>  HEADER Flag_visible|Flag_defer|Flag_init,"turnkey",TURNKEY,PFA_DODEFER
   2              	>>  .p2align 2,0x55
   2              	>> VE_TURNKEY:
   2 30d8 00000000 	>>  .word 99b
   2 30dc C0000000 	>> 99:.word Flag_visible|Flag_defer|Flag_init
   2 30e0 00       	>>  .byte 8f-7f
   2 30e1 7475726E 	>> 7:.ascii "turnkey"
   2      6B6579
GAS LISTING hifive1.s 			page 111


   2              	>> 8:.p2align 2,0xaa
   2 30e8 00000000 	>>  XT_TURNKEY:.word PFA_DODEFER
   2              	>>  PFA_TURNKEY:
   2 30ec 50020080 	>  .word rampointer
   2              	>  .equ DEFER_RAM_TURNKEY,rampointer
   2              	>  .set rampointer,rampointer+4
   2 30f0 00000000 	>  .word XT_APPLTURNKEY
   2 30f4 00000000 	>  .word XT_FETCH
   2 30f8 00000000 	>  .word XT_STORE
 114              	
 115              	.include "words/tick.s"
   1              	
   2              	COLON "'", TICK
   2              	>  HEADER Flag_visible,"'",TICK,DOCOLON
   2              	>>  .p2align 2,0x55
   2              	>> VE_TICK:
   2 30fc 00000000 	>>  .word 99b
   2 3100 00000000 	>> 99:.word Flag_visible
   2 3104 00       	>>  .byte 8f-7f
   2 3105 27       	>> 7:.ascii "'"
   2 3106 AAAA     	>> 8:.p2align 2,0xaa
   2 3108 00000000 	>>  XT_TICK:.word DOCOLON
   2              	>>  PFA_TICK:
   3 310c 00000000 	    .word XT_PARSENAME
   4 3110 00000000 	    .word XT_FORTHRECOGNIZER
   5 3114 00000000 	    .word XT_RECOGNIZE
   6              	    # a word is tickable unless RECTYPE-TOKEN is RECTYPE-NULL or 
   7              	    # the interpret action is a NOOP
   8 3118 00000000 	    .word XT_DUP
   9 311c 00000000 	    .word XT_RECTYPE_NULL
  10 3120 00000000 	    .word XT_EQUAL
  11 3124 00000000 	    .word XT_SWAP
  12 3128 00000000 	    .word XT_FETCH
  13 312c 00000000 	    .word XT_DOLITERAL
  14 3130 00000000 	    .word XT_NOOP
  15 3134 00000000 	    .word XT_EQUAL
  16 3138 00000000 	    .word XT_OR
  17 313c 00000000 	    .word XT_DOCONDBRANCH, PFA_TICK1
  17      00000000 
  18 3144 00000000 	      .word XT_DOLITERAL
  19 3148 F3FFFFFF 	      .word -13
  20 314c 00000000 	      .word XT_THROW
  21              	PFA_TICK1:
  22 3150 00000000 	    .word XT_DROP
  23 3154 00000000 	    .word XT_EXIT
  24              	
 116              	.include "words/abort.s"
   1              	
   2              	COLON "abort" ABORT
   2              	>  HEADER Flag_visible,"abort",ABORT,DOCOLON
   2              	>>  .p2align 2,0x55
   2              	>> VE_ABORT:
   2 3158 00000000 	>>  .word 99b
   2 315c 00000000 	>> 99:.word Flag_visible
   2 3160 00       	>>  .byte 8f-7f
   2 3161 61626F72 	>> 7:.ascii "abort"
   2      74
GAS LISTING hifive1.s 			page 112


   2 3166 AAAA     	>> 8:.p2align 2,0xaa
   2 3168 00000000 	>>  XT_ABORT:.word DOCOLON
   2              	>>  PFA_ABORT:
   3 316c 00000000 	    .word XT_TRUE
   4 3170 00000000 	    .word XT_THROW
 117              	
 118              	.include "words/abort-string.s"
   1              	
   2              	IMMED "abort\x22", ABORTQUOTE
   2              	>  HEADER Flag_visible|Flag_immediate,abort\x22,ABORTQUOTE,DOCOLON
   2              	>>  .p2align 2,0x55
   2              	>> VE_ABORTQUOTE:
   2 3174 00000000 	>>  .word 99b
   2 3178 10000000 	>> 99:.word Flag_visible|Flag_immediate
   2 317c 00       	>>  .byte 8f-7f
   2 317d 61626F72 	>> 7:.ascii "abort\x22"
   2      7422
   2 3183 AA       	>> 8:.p2align 2,0xaa
   2 3184 00000000 	>>  XT_ABORTQUOTE:.word DOCOLON
   2              	>>  PFA_ABORTQUOTE:
   3              	
   4 3188 00000000 	    .word XT_SQUOTE
   5 318c 00000000 	    .word XT_COMPILE
   6 3190 00000000 	    .word XT_QABORT
   7 3194 00000000 	    .word XT_EXIT
 119              	.include "words/backslash.s"
   1              	
   2              	IMMED "\\", BACKSLASH
   2              	>  HEADER Flag_visible|Flag_immediate,\\,BACKSLASH,DOCOLON
   2              	>>  .p2align 2,0x55
   2              	>> VE_BACKSLASH:
   2 3198 00000000 	>>  .word 99b
   2 319c 10000000 	>> 99:.word Flag_visible|Flag_immediate
   2 31a0 00       	>>  .byte 8f-7f
   2 31a1 5C       	>> 7:.ascii "\\"
   2 31a2 AAAA     	>> 8:.p2align 2,0xaa
   2 31a4 00000000 	>>  XT_BACKSLASH:.word DOCOLON
   2              	>>  PFA_BACKSLASH:
   3              	
   4 31a8 00000000 	    .word XT_SOURCE
   5 31ac 00000000 	    .word XT_NIP
   6 31b0 00000000 	    .word XT_TO_IN
   7 31b4 00000000 	    .word XT_STORE
   8 31b8 00000000 	    .word XT_EXIT
 120              	.include "words/bracketchar.s"
   1              	
   2              	IMMED "[char]", BRACKETCHAR
   2              	>  HEADER Flag_visible|Flag_immediate,[char],BRACKETCHAR,DOCOLON
   2              	>>  .p2align 2,0x55
   2              	>> VE_BRACKETCHAR:
   2 31bc 00000000 	>>  .word 99b
   2 31c0 10000000 	>> 99:.word Flag_visible|Flag_immediate
   2 31c4 00       	>>  .byte 8f-7f
   2 31c5 5B636861 	>> 7:.ascii "[char]"
   2      725D
   2 31cb AA       	>> 8:.p2align 2,0xaa
   2 31cc 00000000 	>>  XT_BRACKETCHAR:.word DOCOLON
GAS LISTING hifive1.s 			page 113


   2              	>>  PFA_BRACKETCHAR:
   3 31d0 00000000 	    .word XT_COMPILE
   4 31d4 00000000 	    .word XT_DOLITERAL
   5 31d8 00000000 	    .word XT_CHAR
   6 31dc 00000000 	    .word XT_COMMA
   7 31e0 00000000 	    .word XT_EXIT
 121              	.include "words/bracketcompile.s"
   1              	
   2              	IMMED "[compile]", BRACKETCOMPILE
   2              	>  HEADER Flag_visible|Flag_immediate,[compile],BRACKETCOMPILE,DOCOLON
   2              	>>  .p2align 2,0x55
   2              	>> VE_BRACKETCOMPILE:
   2 31e4 00000000 	>>  .word 99b
   2 31e8 10000000 	>> 99:.word Flag_visible|Flag_immediate
   2 31ec 00       	>>  .byte 8f-7f
   2 31ed 5B636F6D 	>> 7:.ascii "[compile]"
   2      70696C65 
   2      5D
   2 31f6 AAAA     	>> 8:.p2align 2,0xaa
   2 31f8 00000000 	>>  XT_BRACKETCOMPILE:.word DOCOLON
   2              	>>  PFA_BRACKETCOMPILE:
   3 31fc 00000000 	    .word XT_COMPILE
   4 3200 00000000 	    .word XT_COMPILE
   5 3204 00000000 	    .word XT_TICK
   6 3208 00000000 	    .word XT_COMMA
   7 320c 00000000 	    .word XT_EXIT
 122              	.include "words/brackettick.s"
   1              	
   2              	IMMED "[\x27]" BRACKETTICK
   2              	>  HEADER Flag_visible|Flag_immediate,[\x27],BRACKETTICK,DOCOLON
   2              	>>  .p2align 2,0x55
   2              	>> VE_BRACKETTICK:
   2 3210 00000000 	>>  .word 99b
   2 3214 10000000 	>> 99:.word Flag_visible|Flag_immediate
   2 3218 00       	>>  .byte 8f-7f
   2 3219 5B275D   	>> 7:.ascii "[\x27]"
   2              	>> 8:.p2align 2,0xaa
   2 321c 00000000 	>>  XT_BRACKETTICK:.word DOCOLON
   2              	>>  PFA_BRACKETTICK:
   3 3220 00000000 	    .word XT_TICK
   4 3224 00000000 	    .word XT_LITERAL
   5 3228 00000000 	    .word XT_EXIT
 123              	.include "words/char.s"
   1              	
   2              	COLON "char", CHAR
   2              	>  HEADER Flag_visible,"char",CHAR,DOCOLON
   2              	>>  .p2align 2,0x55
   2              	>> VE_CHAR:
   2 322c 00000000 	>>  .word 99b
   2 3230 00000000 	>> 99:.word Flag_visible
   2 3234 00       	>>  .byte 8f-7f
   2 3235 63686172 	>> 7:.ascii "char"
   2 3239 AAAAAA   	>> 8:.p2align 2,0xaa
   2 323c 00000000 	>>  XT_CHAR:.word DOCOLON
   2              	>>  PFA_CHAR:
   3 3240 00000000 	    .word XT_PARSENAME
   4 3244 00000000 	    .word XT_ZEROEQUAL,XT_DOCONDBRANCH,CHAR_1
GAS LISTING hifive1.s 			page 114


   4      00000000 
   4      00000000 
   5 3250 00000000 	       .word XT_DOLITERAL, -16, XT_THROW
   5      F0FFFFFF 
   5      00000000 
   6              	CHAR_1:
   7 325c 00000000 	    .word XT_CFETCH
   8 3260 00000000 	    .word XT_EXIT
 124              	.include "words/colon-noname.s"
   1              	
   2              	COLON ":noname", COLONNONAME
   2              	>  HEADER Flag_visible,":noname",COLONNONAME,DOCOLON
   2              	>>  .p2align 2,0x55
   2              	>> VE_COLONNONAME:
   2 3264 00000000 	>>  .word 99b
   2 3268 00000000 	>> 99:.word Flag_visible
   2 326c 00       	>>  .byte 8f-7f
   2 326d 3A6E6F6E 	>> 7:.ascii ":noname"
   2      616D65
   2              	>> 8:.p2align 2,0xaa
   2 3274 00000000 	>>  XT_COLONNONAME:.word DOCOLON
   2              	>>  PFA_COLONNONAME:
   3 3278 00000000 	    .word XT_HERE
   4 327c 00000000 	    .word XT_DUP
   5 3280 00000000 	    .word XT_LATEST
   6 3284 00000000 	    .word XT_STORE
   7              	
   8 3288 00000000 	    .word XT_COMPILE
   9 328c 00000000 	    .word DOCOLON
  10              	
  11 3290 00000000 	    .word XT_RBRACKET
  12 3294 00000000 	    .word XT_EXIT
 125              	.include "words/constant.s"
   1              	
   2              	COLON "constant", CONSTANT
   2              	>  HEADER Flag_visible,"constant",CONSTANT,DOCOLON
   2              	>>  .p2align 2,0x55
   2              	>> VE_CONSTANT:
   2 3298 00000000 	>>  .word 99b
   2 329c 00000000 	>> 99:.word Flag_visible
   2 32a0 00       	>>  .byte 8f-7f
   2 32a1 636F6E73 	>> 7:.ascii "constant"
   2      74616E74 
   2 32a9 AAAAAA   	>> 8:.p2align 2,0xaa
   2 32ac 00000000 	>>  XT_CONSTANT:.word DOCOLON
   2              	>>  PFA_CONSTANT:
   3 32b0 00000000 	    .word XT_DOCREATE
   4 32b4 00000000 	    .word XT_REVEAL
   5 32b8 00000000 	    .word XT_COMPILE
   6 32bc 00000000 	    .word PFA_DOVARIABLE
   7 32c0 00000000 	    .word XT_COMMA
   8 32c4 00000000 	    .word XT_EXIT
 126              	.include "words/create.s"
   1              	
   2              	COLON "create", CREATE
   2              	>  HEADER Flag_visible,"create",CREATE,DOCOLON
   2              	>>  .p2align 2,0x55
GAS LISTING hifive1.s 			page 115


   2              	>> VE_CREATE:
   2 32c8 00000000 	>>  .word 99b
   2 32cc 00000000 	>> 99:.word Flag_visible
   2 32d0 00       	>>  .byte 8f-7f
   2 32d1 63726561 	>> 7:.ascii "create"
   2      7465
   2 32d7 AA       	>> 8:.p2align 2,0xaa
   2 32d8 00000000 	>>  XT_CREATE:.word DOCOLON
   2              	>>  PFA_CREATE:
   3 32dc 00000000 	    .word XT_DOCREATE
   4 32e0 00000000 	    .word XT_REVEAL
   5 32e4 00000000 	    .word XT_COMPILE
   6 32e8 00000000 	    .word PFA_DOVARIABLE
   7 32ec 00000000 	    .word XT_EXIT
 127              	.include "words/defer-fetch.s"
   1              	
   2              	COLON "defer@", DEFERFETCH
   2              	>  HEADER Flag_visible,"defer@",DEFERFETCH,DOCOLON
   2              	>>  .p2align 2,0x55
   2              	>> VE_DEFERFETCH:
   2 32f0 00000000 	>>  .word 99b
   2 32f4 00000000 	>> 99:.word Flag_visible
   2 32f8 00       	>>  .byte 8f-7f
   2 32f9 64656665 	>> 7:.ascii "defer@"
   2      7240
   2 32ff AA       	>> 8:.p2align 2,0xaa
   2 3300 00000000 	>>  XT_DEFERFETCH:.word DOCOLON
   2              	>>  PFA_DEFERFETCH:
   3 3304 00000000 	    .word XT_TO_BODY
   4 3308 00000000 	    .word XT_DUP, XT_FETCH,XT_SWAP
   4      00000000 
   4      00000000 
   5 3314 00000000 	    .word XT_CELLPLUS
   6 3318 00000000 	    .word XT_CELLPLUS
   7 331c 00000000 	    .word XT_FETCH
   8 3320 00000000 	    .word XT_EXECUTE
   9 3324 00000000 	    .word XT_EXIT
 128              	.include "words/defer-store.s"
   1              	
   2              	COLON "defer!", DEFERSTORE
   2              	>  HEADER Flag_visible,"defer!",DEFERSTORE,DOCOLON
   2              	>>  .p2align 2,0x55
   2              	>> VE_DEFERSTORE:
   2 3328 00000000 	>>  .word 99b
   2 332c 00000000 	>> 99:.word Flag_visible
   2 3330 00       	>>  .byte 8f-7f
   2 3331 64656665 	>> 7:.ascii "defer!"
   2      7221
   2 3337 AA       	>> 8:.p2align 2,0xaa
   2 3338 00000000 	>>  XT_DEFERSTORE:.word DOCOLON
   2              	>>  PFA_DEFERSTORE:
   3 333c 00000000 	    .word XT_TO_BODY
   4 3340 00000000 	    .word XT_DUP, XT_FETCH,XT_SWAP
   4      00000000 
   4      00000000 
   5 334c 00000000 	    .word XT_CELLPLUS
   6 3350 00000000 	    .word XT_CELLPLUS
GAS LISTING hifive1.s 			page 116


   7 3354 00000000 	    .word XT_CELLPLUS
   8 3358 00000000 	    .word XT_FETCH
   9 335c 00000000 	    .word XT_EXECUTE
  10 3360 00000000 	    .word XT_EXIT
  11              	
 129              	.include "words/do-create.s"
   1              	
   2              	COLON "(create)", DOCREATE
   2              	>  HEADER Flag_visible,"(create)",DOCREATE,DOCOLON
   2              	>>  .p2align 2,0x55
   2              	>> VE_DOCREATE:
   2 3364 00000000 	>>  .word 99b
   2 3368 00000000 	>> 99:.word Flag_visible
   2 336c 00       	>>  .byte 8f-7f
   2 336d 28637265 	>> 7:.ascii "(create)"
   2      61746529 
   2 3375 AAAAAA   	>> 8:.p2align 2,0xaa
   2 3378 00000000 	>>  XT_DOCREATE:.word DOCOLON
   2              	>>  PFA_DOCREATE:
   3 337c 00000000 	    .word XT_PARSENAME,XT_WLSCOPE
   3      00000000 
   4 3384 00000000 	    .word XT_DOCREATE_IN
   5 3388 00000000 	    .word XT_EXIT
   6              	
   7              	NONAME DOCREATE_IN
   7 338c 00000000 	>  XT_DOCREATE_IN:.word DOCOLON
   7              	>  PFA_DOCREATE_IN:
   8 3390 00000000 	    .word XT_DUP,XT_NEWEST,XT_CELLPLUS,XT_STORE
   8      00000000 
   8      00000000 
   8      00000000 
   9 33a0 00000000 	    .word XT_HEADER,XT_NEWEST,XT_STORE         
   9      00000000 
   9      00000000 
  10 33ac 00000000 	    .word XT_EXIT
 130              	.include "words/do.s"
   1              	
   2              	IMMED "do", DO
   2              	>  HEADER Flag_visible|Flag_immediate,do,DO,DOCOLON
   2              	>>  .p2align 2,0x55
   2              	>> VE_DO:
   2 33b0 00000000 	>>  .word 99b
   2 33b4 10000000 	>> 99:.word Flag_visible|Flag_immediate
   2 33b8 00       	>>  .byte 8f-7f
   2 33b9 646F     	>> 7:.ascii "do"
   2 33bb AA       	>> 8:.p2align 2,0xaa
   2 33bc 00000000 	>>  XT_DO:.word DOCOLON
   2              	>>  PFA_DO:
   3 33c0 00000000 	    .word XT_COMPILE
   4 33c4 00000000 	    .word XT_DODO
   5 33c8 00000000 	    .word XT_LMARK
   6 33cc 00000000 	    .word XT_ZERO, XT_TO_L
   6      00000000 
   7 33d4 00000000 	    .word XT_EXIT
 131              	.include "words/endloop.s"
   1              	
   2              	IMMED "endloop", ENDLOOP
GAS LISTING hifive1.s 			page 117


   2              	>  HEADER Flag_visible|Flag_immediate,endloop,ENDLOOP,DOCOLON
   2              	>>  .p2align 2,0x55
   2              	>> VE_ENDLOOP:
   2 33d8 00000000 	>>  .word 99b
   2 33dc 10000000 	>> 99:.word Flag_visible|Flag_immediate
   2 33e0 00       	>>  .byte 8f-7f
   2 33e1 656E646C 	>> 7:.ascii "endloop"
   2      6F6F70
   2              	>> 8:.p2align 2,0xaa
   2 33e8 00000000 	>>  XT_ENDLOOP:.word DOCOLON
   2              	>>  PFA_ENDLOOP:
   3              	
   4 33ec 00000000 	        .word XT_LRESOLVE
   5              	ENDLOOP1:
   6 33f0 00000000 	        .word XT_L_FROM,XT_QDUP,XT_DOCONDBRANCH, ENDLOOP2
   6      00000000 
   6      00000000 
   6      00000000 
   7 3400 00000000 	        .word XT_THEN, XT_DOBRANCH, ENDLOOP1
   7      00000000 
   7      00000000 
   8              	ENDLOOP2:
   9 340c 00000000 		.word XT_EXIT
  10              	
 132              	.include "words/header.s"
   1              	
   2              	COLON "header", HEADER
   2              	>  HEADER Flag_visible,"header",HEADER,DOCOLON
   2              	>>  .p2align 2,0x55
   2              	>> VE_HEADER:
   2 3410 00000000 	>>  .word 99b
   2 3414 00000000 	>> 99:.word Flag_visible
   2 3418 00       	>>  .byte 8f-7f
   2 3419 68656164 	>> 7:.ascii "header"
   2      6572
   2 341f AA       	>> 8:.p2align 2,0xaa
   2 3420 00000000 	>>  XT_HEADER:.word DOCOLON
   2              	>>  PFA_HEADER:
   3              	
   4 3424 00000000 	    .word XT_OVER,XT_GREATERZERO 
   4      00000000 
   5 342c 00000000 	    .word XT_DOCONDBRANCH, PFA_HEADER1
   5      00000000 
   6 3434 00000000 	    .word XT_EXECUTE
   7 3438 00000000 	    .word XT_COMMA
   8 343c 00000000 	    .word XT_HERE,XT_TO_R
   8      00000000 
   9 3444 00000000 	    .word XT_DOLITERAL
  10 3448 00000000 	    .word Flag_visible
  11 344c 00000000 	    .word XT_COMMA
  12 3450 00000000 	    .word XT_SCOMMA
  13 3454 00000000 	    .word XT_R_FROM
  14 3458 00000000 	    .word XT_EXIT
  15              	
  16              	PFA_HEADER1:
  17 345c 00000000 	    .word XT_DOLITERAL
  18 3460 F0FFFFFF 	    .word -16
GAS LISTING hifive1.s 			page 118


  19 3464 00000000 	    .word XT_THROW
 133              	.include "words/latest.s"
   1              	
   2              	VARIABLE "latest", LATEST
   2              	>  HEADER Flag_visible|Flag_variable,"latest",LATEST,PFA_DOVARIABLE
   2              	>>  .p2align 2,0x55
   2              	>> VE_LATEST:
   2 3468 00000000 	>>  .word 99b
   2 346c 01010000 	>> 99:.word Flag_visible|Flag_variable
   2 3470 00       	>>  .byte 8f-7f
   2 3471 6C617465 	>> 7:.ascii "latest"
   2      7374
   2 3477 AA       	>> 8:.p2align 2,0xaa
   2 3478 00000000 	>>  XT_LATEST:.word PFA_DOVARIABLE
   2              	>>  PFA_LATEST:
   2 347c 54020080 	>  .word rampointer
   2              	>  .set rampointer,rampointer+4
   3              	
 134              	.include "words/loop.s"
   1              	
   2              	IMMED "loop", LOOP
   2              	>  HEADER Flag_visible|Flag_immediate,loop,LOOP,DOCOLON
   2              	>>  .p2align 2,0x55
   2              	>> VE_LOOP:
   2 3480 00000000 	>>  .word 99b
   2 3484 10000000 	>> 99:.word Flag_visible|Flag_immediate
   2 3488 00       	>>  .byte 8f-7f
   2 3489 6C6F6F70 	>> 7:.ascii "loop"
   2 348d AAAAAA   	>> 8:.p2align 2,0xaa
   2 3490 00000000 	>>  XT_LOOP:.word DOCOLON
   2              	>>  PFA_LOOP:
   3 3494 00000000 	    .word XT_COMPILE
   4 3498 00000000 	    .word XT_DOLOOP
   5 349c 00000000 	    .word XT_ENDLOOP
   6 34a0 00000000 	    .word XT_EXIT
 135              	.include "words/newest.s"
   1              	
   2              	DVARIABLE "newest", NEWEST
   2              	>  HEADER Flag_visible|Flag_variable,"newest",NEWEST,PFA_DOVARIABLE
   2              	>>  .p2align 2,0x55
   2              	>> VE_NEWEST:
   2 34a4 00000000 	>>  .word 99b
   2 34a8 01010000 	>> 99:.word Flag_visible|Flag_variable
   2 34ac 00       	>>  .byte 8f-7f
   2 34ad 6E657765 	>> 7:.ascii "newest"
   2      7374
   2 34b3 AA       	>> 8:.p2align 2,0xaa
   2 34b4 00000000 	>>  XT_NEWEST:.word PFA_DOVARIABLE
   2              	>>  PFA_NEWEST:
   2 34b8 58020080 	>  .word rampointer
   2              	>  .set rampointer,rampointer+2*cellsize
 136              	.include "words/plusloop.s"
   1              	
   2              	IMMED "+loop", PLUSLOOP
   2              	>  HEADER Flag_visible|Flag_immediate,+loop,PLUSLOOP,DOCOLON
   2              	>>  .p2align 2,0x55
   2              	>> VE_PLUSLOOP:
GAS LISTING hifive1.s 			page 119


   2 34bc 00000000 	>>  .word 99b
   2 34c0 10000000 	>> 99:.word Flag_visible|Flag_immediate
   2 34c4 00       	>>  .byte 8f-7f
   2 34c5 2B6C6F6F 	>> 7:.ascii "+loop"
   2      70
   2 34ca AAAA     	>> 8:.p2align 2,0xaa
   2 34cc 00000000 	>>  XT_PLUSLOOP:.word DOCOLON
   2              	>>  PFA_PLUSLOOP:
   3 34d0 00000000 	    .word XT_COMPILE
   4 34d4 00000000 	    .word XT_DOPLUSLOOP
   5 34d8 00000000 	    .word XT_ENDLOOP
   6 34dc 00000000 	    .word XT_EXIT
 137              	.include "words/postpone.s"
   1              	
   2              	IMMED "postpone", POSTPONE
   2              	>  HEADER Flag_visible|Flag_immediate,postpone,POSTPONE,DOCOLON
   2              	>>  .p2align 2,0x55
   2              	>> VE_POSTPONE:
   2 34e0 00000000 	>>  .word 99b
   2 34e4 10000000 	>> 99:.word Flag_visible|Flag_immediate
   2 34e8 00       	>>  .byte 8f-7f
   2 34e9 706F7374 	>> 7:.ascii "postpone"
   2      706F6E65 
   2 34f1 AAAAAA   	>> 8:.p2align 2,0xaa
   2 34f4 00000000 	>>  XT_POSTPONE:.word DOCOLON
   2              	>>  PFA_POSTPONE:
   3 34f8 00000000 	    .word XT_PARSENAME
   4 34fc 00000000 	    .word XT_FORTHRECOGNIZER
   5 3500 00000000 	    .word XT_RECOGNIZE
   6 3504 00000000 	    .word XT_DUP
   7 3508 00000000 	    .word XT_TO_R
   8 350c 00000000 	    .word XT_CELLPLUS
   9 3510 00000000 	    .word XT_CELLPLUS
  10 3514 00000000 	    .word XT_FETCH
  11 3518 00000000 	    .word XT_EXECUTE
  12 351c 00000000 	    .word XT_R_FROM
  13 3520 00000000 	    .word XT_CELLPLUS
  14 3524 00000000 	    .word XT_FETCH
  15 3528 00000000 	    .word XT_COMMA
  16 352c 00000000 	    .word XT_EXIT
 138              	.include "words/q-abort.s"
   1              	
   2              	COLON "?abort", QABORT
   2              	>  HEADER Flag_visible,"?abort",QABORT,DOCOLON
   2              	>>  .p2align 2,0x55
   2              	>> VE_QABORT:
   2 3530 00000000 	>>  .word 99b
   2 3534 00000000 	>> 99:.word Flag_visible
   2 3538 00       	>>  .byte 8f-7f
   2 3539 3F61626F 	>> 7:.ascii "?abort"
   2      7274
   2 353f AA       	>> 8:.p2align 2,0xaa
   2 3540 00000000 	>>  XT_QABORT:.word DOCOLON
   2              	>>  PFA_QABORT:
   3              	
   4 3544 00000000 	        .word XT_ROT,XT_DOCONDBRANCH,QABO1
   4      00000000 
GAS LISTING hifive1.s 			page 120


   4      00000000 
   5 3550 00000000 	        .word XT_TYPE,XT_ABORT
   5      00000000 
   6 3558 00000000 	QABO1:  .word XT_2DROP,XT_EXIT
   6      00000000 
 139              	.include "words/recurse.s"
   1              	
   2              	IMMED "recurse", RECURSE
   2              	>  HEADER Flag_visible|Flag_immediate,recurse,RECURSE,DOCOLON
   2              	>>  .p2align 2,0x55
   2              	>> VE_RECURSE:
   2 3560 00000000 	>>  .word 99b
   2 3564 10000000 	>> 99:.word Flag_visible|Flag_immediate
   2 3568 00       	>>  .byte 8f-7f
   2 3569 72656375 	>> 7:.ascii "recurse"
   2      727365
   2              	>> 8:.p2align 2,0xaa
   2 3570 00000000 	>>  XT_RECURSE:.word DOCOLON
   2              	>>  PFA_RECURSE:
   3 3574 00000000 	    .word XT_LATEST
   4 3578 00000000 	    .word XT_FETCH
   5 357c 00000000 	    .word XT_COMMA
   6 3580 00000000 	    .word XT_EXIT
 140              	.include "words/reveal.s"
   1              	
   2              	COLON "reveal", REVEAL
   2              	>  HEADER Flag_visible,"reveal",REVEAL,DOCOLON
   2              	>>  .p2align 2,0x55
   2              	>> VE_REVEAL:
   2 3584 00000000 	>>  .word 99b
   2 3588 00000000 	>> 99:.word Flag_visible
   2 358c 00       	>>  .byte 8f-7f
   2 358d 72657665 	>> 7:.ascii "reveal"
   2      616C
   2 3593 AA       	>> 8:.p2align 2,0xaa
   2 3594 00000000 	>>  XT_REVEAL:.word DOCOLON
   2              	>>  PFA_REVEAL:
   3 3598 00000000 	    .word XT_NEWEST,XT_CELLPLUS,XT_FETCH
   3      00000000 
   3      00000000 
   4 35a4 00000000 	    .word XT_QDUP,XT_DOCONDBRANCH, REVEAL1
   4      00000000 
   4      00000000 
   5 35b0 00000000 	    .word XT_NEWEST,XT_FETCH,XT_SWAP,XT_DOTO1
   5      00000000 
   5      00000000 
   5      00000000 
   6              	REVEAL1:
   7 35c0 00000000 	    .word XT_EXIT
 141              	.include "words/right-bracket.s"
   1              	
   2              	COLON "]", RBRACKET
   2              	>  HEADER Flag_visible,"]",RBRACKET,DOCOLON
   2              	>>  .p2align 2,0x55
   2              	>> VE_RBRACKET:
   2 35c4 00000000 	>>  .word 99b
   2 35c8 00000000 	>> 99:.word Flag_visible
GAS LISTING hifive1.s 			page 121


   2 35cc 00       	>>  .byte 8f-7f
   2 35cd 5D       	>> 7:.ascii "]"
   2 35ce AAAA     	>> 8:.p2align 2,0xaa
   2 35d0 00000000 	>>  XT_RBRACKET:.word DOCOLON
   2              	>>  PFA_RBRACKET:
   3 35d4 00000000 	    .word XT_ONE
   4 35d8 00000000 	    .word XT_STATE
   5 35dc 00000000 	    .word XT_STORE
   6 35e0 00000000 	    .word XT_EXIT
 142              	.include "words/colon.s"
   1              	
   2              	COLON ":", COLON
   2              	>  HEADER Flag_visible,":",COLON,DOCOLON
   2              	>>  .p2align 2,0x55
   2              	>> VE_COLON:
   2 35e4 00000000 	>>  .word 99b
   2 35e8 00000000 	>> 99:.word Flag_visible
   2 35ec 00       	>>  .byte 8f-7f
   2 35ed 3A       	>> 7:.ascii ":"
   2 35ee AAAA     	>> 8:.p2align 2,0xaa
   2 35f0 00000000 	>>  XT_COLON:.word DOCOLON
   2              	>>  PFA_COLON:
   3 35f4 00000000 	    .word XT_DOCREATE
   4 35f8 00000000 	    .word XT_COLONNONAME
   5 35fc 00000000 	    .word XT_DROP
   6 3600 00000000 	    .word XT_EXIT
 143              	.include "words/semicolon.s"
   1              	
   2              	IMMED "\x3b", SEMICOLON
   2              	>  HEADER Flag_visible|Flag_immediate,\x3b,SEMICOLON,DOCOLON
   2              	>>  .p2align 2,0x55
   2              	>> VE_SEMICOLON:
   2 3604 00000000 	>>  .word 99b
   2 3608 10000000 	>> 99:.word Flag_visible|Flag_immediate
   2 360c 00       	>>  .byte 8f-7f
   2 360d 3B       	>> 7:.ascii "\x3b"
   2 360e AAAA     	>> 8:.p2align 2,0xaa
   2 3610 00000000 	>>  XT_SEMICOLON:.word DOCOLON
   2              	>>  PFA_SEMICOLON:
   3 3614 00000000 	    .word XT_COMPILE
   4 3618 00000000 	    .word XT_EXIT
   5 361c 00000000 	    .word XT_LBRACKET
   6 3620 00000000 	    .word XT_REVEAL
   7 3624 00000000 	    .word XT_EXIT
 144              	.include "words/to.s"
   1              	
   2              	IMMED "to", TO
   2              	>  HEADER Flag_visible|Flag_immediate,to,TO,DOCOLON
   2              	>>  .p2align 2,0x55
   2              	>> VE_TO:
   2 3628 00000000 	>>  .word 99b
   2 362c 10000000 	>> 99:.word Flag_visible|Flag_immediate
   2 3630 00       	>>  .byte 8f-7f
   2 3631 746F     	>> 7:.ascii "to"
   2 3633 AA       	>> 8:.p2align 2,0xaa
   2 3634 00000000 	>>  XT_TO:.word DOCOLON
   2              	>>  PFA_TO:
GAS LISTING hifive1.s 			page 122


   3 3638 00000000 	    .word XT_TICK
   4 363c 00000000 	    .word XT_TO_BODY
   5 3640 00000000 	    .word XT_STATE
   6 3644 00000000 	    .word XT_FETCH
   7 3648 00000000 	    .word XT_DOCONDBRANCH, PFA_DOTO1
   7      00000000 
   8 3650 00000000 	      .word XT_COMPILE
   9 3654 00000000 	      .word XT_DOTO
  10 3658 00000000 	      .word XT_COMMA
  11 365c 00000000 	      .word XT_EXIT
  12              	
  13              	NONAME DOTO
  13 3660 00000000 	>  XT_DOTO:.word DOCOLON
  13              	>  PFA_DOTO:
  14 3664 00000000 	    .word XT_R_FROM
  15 3668 00000000 	    .word XT_DUP
  16 366c 00000000 	    .word XT_CELLPLUS
  17 3670 00000000 	    .word XT_TO_R
  18 3674 00000000 	    .word XT_FETCH
  19 3678 00000000 	    .word XT_DOTO1
  20 367c 00000000 	    .word XT_EXIT
  21              	
  22              	NONAME DOTO1
  22 3680 00000000 	>  XT_DOTO1:.word DOCOLON
  22              	>  PFA_DOTO1:
  23 3684 00000000 	    .word XT_CELLPLUS
  24 3688 00000000 	    .word XT_DUP, XT_FETCH, XT_SWAP
  24      00000000 
  24      00000000 
  25 3694 00000000 	    .word XT_CELLPLUS
  26 3698 00000000 	    .word XT_CELLPLUS
  27 369c 00000000 	    .word XT_CELLPLUS
  28 36a0 00000000 	    .word XT_FETCH
  29 36a4 00000000 	    .word XT_EXECUTE
  30 36a8 00000000 	    .word XT_EXIT
 145              	.include "words/variable.s"
   1              	
   2              	COLON "variable", VARIABLE
   2              	>  HEADER Flag_visible,"variable",VARIABLE,DOCOLON
   2              	>>  .p2align 2,0x55
   2              	>> VE_VARIABLE:
   2 36ac 00000000 	>>  .word 99b
   2 36b0 00000000 	>> 99:.word Flag_visible
   2 36b4 00       	>>  .byte 8f-7f
   2 36b5 76617269 	>> 7:.ascii "variable"
   2      61626C65 
   2 36bd AAAAAA   	>> 8:.p2align 2,0xaa
   2 36c0 00000000 	>>  XT_VARIABLE:.word DOCOLON
   2              	>>  PFA_VARIABLE:
   3 36c4 00000000 	    .word XT_HERE
   4 36c8 00000000 	    .word XT_CONSTANT
   5 36cc 00000000 	    .word XT_DOLITERAL,4
   5      04000000 
   6 36d4 00000000 	    .word XT_ALLOT
   7 36d8 00000000 	    .word XT_EXIT
 146              	.include "words/wlscope.s"
   1              	
GAS LISTING hifive1.s 			page 123


   2              	DEFER "wlscope", WLSCOPE, XT_GET_CURRENT
   2              	>  HEADER Flag_visible|Flag_defer|Flag_init,"wlscope",WLSCOPE,PFA_DODEFER
   2              	>>  .p2align 2,0x55
   2              	>> VE_WLSCOPE:
   2 36dc 00000000 	>>  .word 99b
   2 36e0 C0000000 	>> 99:.word Flag_visible|Flag_defer|Flag_init
   2 36e4 00       	>>  .byte 8f-7f
   2 36e5 776C7363 	>> 7:.ascii "wlscope"
   2      6F7065
   2              	>> 8:.p2align 2,0xaa
   2 36ec 00000000 	>>  XT_WLSCOPE:.word PFA_DODEFER
   2              	>>  PFA_WLSCOPE:
   2 36f0 60020080 	>  .word rampointer
   2              	>  .equ DEFER_RAM_WLSCOPE,rampointer
   2              	>  .set rampointer,rampointer+4
   2 36f4 00000000 	>  .word XT_GET_CURRENT
   2 36f8 00000000 	>  .word XT_FETCH
   2 36fc 00000000 	>  .word XT_STORE
 147              	.include "words/to-body.s"
   1              	
   2              	COLON ">body", TO_BODY
   2              	>  HEADER Flag_visible,">body",TO_BODY,DOCOLON
   2              	>>  .p2align 2,0x55
   2              	>> VE_TO_BODY:
   2 3700 00000000 	>>  .word 99b
   2 3704 00000000 	>> 99:.word Flag_visible
   2 3708 00       	>>  .byte 8f-7f
   2 3709 3E626F64 	>> 7:.ascii ">body"
   2      79
   2 370e AAAA     	>> 8:.p2align 2,0xaa
   2 3710 00000000 	>>  XT_TO_BODY:.word DOCOLON
   2              	>>  PFA_TO_BODY:
   3 3714 00000000 	    .word XT_CELLPLUS,XT_EXIT
   3      00000000 
 148              	.include "words/get-current.s"
   1              	
   2              	COLON "get-current", GET_CURRENT
   2              	>  HEADER Flag_visible,"get-current",GET_CURRENT,DOCOLON
   2              	>>  .p2align 2,0x55
   2              	>> VE_GET_CURRENT:
   2 371c 00000000 	>>  .word 99b
   2 3720 00000000 	>> 99:.word Flag_visible
   2 3724 00       	>>  .byte 8f-7f
   2 3725 6765742D 	>> 7:.ascii "get-current"
   2      63757272 
   2      656E74
   2              	>> 8:.p2align 2,0xaa
   2 3730 00000000 	>>  XT_GET_CURRENT:.word DOCOLON
   2              	>>  PFA_GET_CURRENT:
   3              	
   4 3734 00000000 	    .word XT_CURRENT,XT_EXIT
   4      00000000 
 149              	.include "words/greater-zero.s"
   1              	
   2              	COLON "0>", GREATERZERO
   2              	>  HEADER Flag_visible,"0>",GREATERZERO,DOCOLON
   2              	>>  .p2align 2,0x55
GAS LISTING hifive1.s 			page 124


   2              	>> VE_GREATERZERO:
   2 373c 00000000 	>>  .word 99b
   2 3740 00000000 	>> 99:.word Flag_visible
   2 3744 00       	>>  .byte 8f-7f
   2 3745 303E     	>> 7:.ascii "0>"
   2 3747 AA       	>> 8:.p2align 2,0xaa
   2 3748 00000000 	>>  XT_GREATERZERO:.word DOCOLON
   2              	>>  PFA_GREATERZERO:
   3 374c 00000000 	    .word XT_ZERO,XT_GREATER,XT_EXIT
   3      00000000 
   3      00000000 
 150              	.include "words/to-in.s"
   1              	VARIABLE ">in", TO_IN 
   1              	>  HEADER Flag_visible|Flag_variable,">in",TO_IN,PFA_DOVARIABLE
   1              	>>  .p2align 2,0x55
   1              	>> VE_TO_IN:
   1 3758 00000000 	>>  .word 99b
   1 375c 01010000 	>> 99:.word Flag_visible|Flag_variable
   1 3760 00       	>>  .byte 8f-7f
   1 3761 3E696E   	>> 7:.ascii ">in"
   1              	>> 8:.p2align 2,0xaa
   1 3764 00000000 	>>  XT_TO_IN:.word PFA_DOVARIABLE
   1              	>>  PFA_TO_IN:
   1 3768 64020080 	>  .word rampointer
   1              	>  .set rampointer,rampointer+4
 151              	.include "words/dp.s"
   1              	
   2              	VALUE "dp", DP, HERESTART
   2              	>  HEADER Flag_visible|Flag_value|Flag_init,"dp",DP,PFA_DOVALUE
   2              	>>  .p2align 2,0x55
   2              	>> VE_DP:
   2 376c 00000000 	>>  .word 99b
   2 3770 A0000000 	>> 99:.word Flag_visible|Flag_value|Flag_init
   2 3774 00       	>>  .byte 8f-7f
   2 3775 6470     	>> 7:.ascii "dp"
   2 3777 AA       	>> 8:.p2align 2,0xaa
   2 3778 00000000 	>>  XT_DP:.word PFA_DOVALUE
   2              	>>  PFA_DP:
   2 377c 68020080 	>  .word rampointer
   2              	>  .equ RAM_DP,rampointer
   2              	>  .set rampointer,rampointer+4
   2 3780 80020080 	>  .word HERESTART
   2 3784 00000000 	>  .word XT_FETCH
   2 3788 00000000 	>  .word XT_STORE
 152              	.include "words/udefer.s"
   1              	
   2              	COLON "Udefer@", UDEFER_FETCH
   2              	>  HEADER Flag_visible,"Udefer@",UDEFER_FETCH,DOCOLON
   2              	>>  .p2align 2,0x55
   2              	>> VE_UDEFER_FETCH:
   2 378c 00000000 	>>  .word 99b
   2 3790 00000000 	>> 99:.word Flag_visible
   2 3794 00       	>>  .byte 8f-7f
   2 3795 55646566 	>> 7:.ascii "Udefer@"
   2      657240
   2              	>> 8:.p2align 2,0xaa
   2 379c 00000000 	>>  XT_UDEFER_FETCH:.word DOCOLON
GAS LISTING hifive1.s 			page 125


   2              	>>  PFA_UDEFER_FETCH:
   3 37a0 00000000 	  .word XT_UP_FETCH, XT_PLUS, XT_FETCH
   3      00000000 
   3      00000000 
   4 37ac 00000000 	.word XT_EXIT
   5              	
   6              	COLON "Udefer!", UDEFER_STORE
   6              	>  HEADER Flag_visible,"Udefer!",UDEFER_STORE,DOCOLON
   6              	>>  .p2align 2,0x55
   6              	>> VE_UDEFER_STORE:
   6 37b0 00000000 	>>  .word 99b
   6 37b4 00000000 	>> 99:.word Flag_visible
   6 37b8 00       	>>  .byte 8f-7f
   6 37b9 55646566 	>> 7:.ascii "Udefer!"
   6      657221
   6              	>> 8:.p2align 2,0xaa
   6 37c0 00000000 	>>  XT_UDEFER_STORE:.word DOCOLON
   6              	>>  PFA_UDEFER_STORE:
   7 37c4 00000000 	  .word XT_UP_FETCH, XT_PLUS, XT_STORE
   7      00000000 
   7      00000000 
   8 37d0 00000000 	.word XT_EXIT
 153              	.include "words/wordlist.s"
   1              	
   2              	COLON "wordlist", WORDLIST
   2              	>  HEADER Flag_visible,"wordlist",WORDLIST,DOCOLON
   2              	>>  .p2align 2,0x55
   2              	>> VE_WORDLIST:
   2 37d4 00000000 	>>  .word 99b
   2 37d8 00000000 	>> 99:.word Flag_visible
   2 37dc 00       	>>  .byte 8f-7f
   2 37dd 776F7264 	>> 7:.ascii "wordlist"
   2      6C697374 
   2 37e5 AAAAAA   	>> 8:.p2align 2,0xaa
   2 37e8 00000000 	>>  XT_WORDLIST:.word DOCOLON
   2              	>>  PFA_WORDLIST:
   3              	
   4 37ec 00000000 	    .word XT_HERE
   5 37f0 00000000 	    .word XT_DOLITERAL,4
   5      04000000 
   6 37f8 00000000 	    .word XT_ALLOT
   7 37fc 00000000 	    .word XT_DUP,XT_ZERO,XT_SWAP,XT_STORE
   7      00000000 
   7      00000000 
   7      00000000 
   8 380c 00000000 	    .word XT_EXIT
 154              	.include "words/ramwordlist.s"
   1              	
   2              	VALUE "ram-wordlist", RAM_WORDLIST, 0
   2              	>  HEADER Flag_visible|Flag_value|Flag_init,"ram-wordlist",RAM_WORDLIST,PFA_DOVALUE
   2              	>>  .p2align 2,0x55
   2              	>> VE_RAM_WORDLIST:
   2 3810 00000000 	>>  .word 99b
   2 3814 A0000000 	>> 99:.word Flag_visible|Flag_value|Flag_init
   2 3818 00       	>>  .byte 8f-7f
   2 3819 72616D2D 	>> 7:.ascii "ram-wordlist"
   2      776F7264 
GAS LISTING hifive1.s 			page 126


   2      6C697374 
   2 3825 AAAAAA   	>> 8:.p2align 2,0xaa
   2 3828 00000000 	>>  XT_RAM_WORDLIST:.word PFA_DOVALUE
   2              	>>  PFA_RAM_WORDLIST:
   2 382c 6C020080 	>  .word rampointer
   2              	>  .equ RAM_RAM_WORDLIST,rampointer
   2              	>  .set rampointer,rampointer+4
   2 3830 00000000 	>  .word 0
   2 3834 00000000 	>  .word XT_FETCH
   2 3838 00000000 	>  .word XT_STORE
 155              	
 156              	.include "dict_appl.inc"
   1              	
   2              	.include "words/gpio.s"
   1              	# -----------------------------------------------------------------------------
   2              	# Labels for a few hardware ports
   3              	# -----------------------------------------------------------------------------
   4              	
   5              	.equ GPIOBASE, 0x10012000
   6              	
   7              	.equ GPIO_VALUE        , GPIOBASE + 0x00
   8              	.equ GPIO_INPUT_EN     , GPIOBASE + 0x04
   9              	.equ GPIO_OUTPUT_EN    , GPIOBASE + 0x08
  10              	.equ GPIO_PORT         , GPIOBASE + 0x0C
  11              	.equ GPIO_PUE          , GPIOBASE + 0x10
  12              	.equ GPIO_IOF_EN       , GPIOBASE + 0x38
  13              	.equ GPIO_IOF_SEL      , GPIOBASE + 0x3C
  14              	.equ GPIO_OUT_XOR      , GPIOBASE + 0x40
   3              	
   4              	.include "words/usart.s"
   1              	.equ UART0BASE, 0x10013000
   2              	
   3              	.equ UART0_TXDATA    , UART0BASE + 0x00
   4              	.equ UART0_RXDATA    , UART0BASE + 0x04
   5              	.equ UART0_TXCTRL    , UART0BASE + 0x08
   6              	.equ UART0_RXCTRL    , UART0BASE + 0x0C
   7              	.equ UART0_IE        , UART0BASE + 0x10
   8              	.equ UART0_IP        , UART0BASE + 0x14
   9              	.equ UART0_DIV       , UART0BASE + 0x18
  10              	
  11              	CODEWORD "+usart", INIT_USART
  11              	>  HEADER Flag_visible,"+usart",INIT_USART,PFA_INIT_USART
  11              	>>  .p2align 2,0x55
  11              	>> VE_INIT_USART:
  11 383c 00000000 	>>  .word 99b
  11 3840 00000000 	>> 99:.word Flag_visible
  11 3844 00       	>>  .byte 8f-7f
  11 3845 2B757361 	>> 7:.ascii "+usart"
  11      7274
  11 384b AA       	>> 8:.p2align 2,0xaa
  11 384c 00000000 	>>  XT_INIT_USART:.word PFA_INIT_USART
  11              	>>  PFA_INIT_USART:
  12              	
  13              	  # UART RX/TX are selected IOF_SEL on Reset. Set IOF_EN bits.
  14              	
  15 3850 37250110 	  li x10, GPIO_IOF_EN
  15      13058503 
GAS LISTING hifive1.s 			page 127


  16 3858 B7050300 	  li x11, (1<<17)|(1<<16)
  17 385c 2320B500 	  sw x11, 0(x10)
  18              	
  19              	  # Set baud rate
  20              	
  21 3860 37350110 	  li x10, UART0_DIV
  21      13058501 
  22              	#  li x11, 139-1  # 16 MHz / 115200 Baud = 138.89
  23 3868 9305001A 	  li x11, 417-1  # 16 MHz / 38400 Baud = 416,67
  24 386c 2320B500 	  sw x11, 0(x10)
  25              	
  26              	  # Enable transmit
  27              	
  28 3870 37350110 	  li x10, UART0_TXCTRL
  28      13058500 
  29 3878 93051000 	  li x11, 1
  30 387c 2320B500 	  sw x11, 0(x10)
  31              	
  32              	  # Enable receive
  33              	
  34 3880 37350110 	  li x10, UART0_RXCTRL
  34      1305C500 
  35 3888 93051000 	  li x11, 1
  36 388c 2320B500 	  sw x11, 0(x10)
  37              	
  38              	  NEXT
  38 3890 6FC09FE4 	>  j DO_NEXT
  39              	
  40              	  VARIABLE  "serial-lastchar", SERIAL_LASTCHAR # ( -- addr )
  40              	>  HEADER Flag_visible|Flag_variable,"serial-lastchar",SERIAL_LASTCHAR,PFA_DOVARIABLE
  40              	>>  .p2align 2,0x55
  40              	>> VE_SERIAL_LASTCHAR:
  40 3894 00000000 	>>  .word 99b
  40 3898 01010000 	>> 99:.word Flag_visible|Flag_variable
  40 389c 00       	>>  .byte 8f-7f
  40 389d 73657269 	>> 7:.ascii "serial-lastchar"
  40      616C2D6C 
  40      61737463 
  40      686172
  40              	>> 8:.p2align 2,0xaa
  40 38ac 00000000 	>>  XT_SERIAL_LASTCHAR:.word PFA_DOVARIABLE
  40              	>>  PFA_SERIAL_LASTCHAR:
  40 38b0 70020080 	>  .word rampointer
  40              	>  .set rampointer,rampointer+4
  41              	
  42              	# -----------------------------------------------------------------------------
  43              	  CODEWORD  "serial-key", SERIAL_KEY
  43              	>  HEADER Flag_visible,"serial-key",SERIAL_KEY,PFA_SERIAL_KEY
  43              	>>  .p2align 2,0x55
  43              	>> VE_SERIAL_KEY:
  43 38b4 00000000 	>>  .word 99b
  43 38b8 00000000 	>> 99:.word Flag_visible
  43 38bc 00       	>>  .byte 8f-7f
  43 38bd 73657269 	>> 7:.ascii "serial-key"
  43      616C2D6B 
  43      6579
  43 38c7 AA       	>> 8:.p2align 2,0xaa
GAS LISTING hifive1.s 			page 128


  43 38c8 00000000 	>>  XT_SERIAL_KEY:.word PFA_SERIAL_KEY
  43              	>>  PFA_SERIAL_KEY:
  44              	# -----------------------------------------------------------------------------
  45              	  savetos
  45 38cc 1302C2FF 	>  addi x4,x4,-4
  45 38d0 23203200 	>  sw x3,0(x4)
  46 38d4 17030000 	  la x6, PFA_SERIAL_LASTCHAR
  46      13030300 
  47 38dc 03230300 	  lw x6, 0(x6)
  48 38e0 83210300 	  lw x3, 0(x6)
  49              	
  50 38e4 9302F0FF 	  li x5, -1
  51 38e8 23205300 	  sw x5, 0(x6)
  52              	
  53              	  NEXT
  53 38ec 6FC0DFDE 	>  j DO_NEXT
  54              	
  55              	# -----------------------------------------------------------------------------
  56              	  CODEWORD  "serial-key?", SERIAL_KEYQ
  56              	>  HEADER Flag_visible,"serial-key?",SERIAL_KEYQ,PFA_SERIAL_KEYQ
  56              	>>  .p2align 2,0x55
  56              	>> VE_SERIAL_KEYQ:
  56 38f0 00000000 	>>  .word 99b
  56 38f4 00000000 	>> 99:.word Flag_visible
  56 38f8 00       	>>  .byte 8f-7f
  56 38f9 73657269 	>> 7:.ascii "serial-key?"
  56      616C2D6B 
  56      65793F
  56              	>> 8:.p2align 2,0xaa
  56 3904 00000000 	>>  XT_SERIAL_KEYQ:.word PFA_SERIAL_KEYQ
  56              	>>  PFA_SERIAL_KEYQ:
  57              	# -----------------------------------------------------------------------------
  58              	
  59              	  savetos
  59 3908 1302C2FF 	>  addi x4,x4,-4
  59 390c 23203200 	>  sw x3,0(x4)
  60              	
  61              	  # Check buffer for waiting character
  62              	
  63 3910 17030000 	  la x6, PFA_SERIAL_LASTCHAR
  63      13030300 
  64 3918 83220300 	  lw x5, 0(x6)
  65 391c 93D1F241 	  srai x3, x5, 31 # Sign extend the "receive FIFO empty" bit
  66 3920 63820102 	  beq x3, zero, 1f 
  67              	
  68              	  # No character waiting in the buffer variable. Check UART for new character:
  69              	
  70 3924 37330110 	  li x6, UART0_RXDATA
  70      13034300 
  71 392c 83220300 	  lw x5, 0(x6)
  72 3930 17030000 	  la x6, PFA_SERIAL_LASTCHAR
  72      13030300 
  73 3938 03230300 	  lw x6, 0(x6)
  74 393c 23205300 	  sw x5, 0(x6)
  75              	
  76 3940 93D1F241 	  srai x3, x5, 31 # Sign extend the "receive FIFO empty" bit
  77              	
GAS LISTING hifive1.s 			page 129


  78              	1:
  79 3944 93C1F1FF 	  xori x3, x3, -1
  80              	  NEXT
  80 3948 6FC01FD9 	>  j DO_NEXT
  81              	
  82              	# -----------------------------------------------------------------------------
  83              	  CODEWORD  "serial-emit", SERIAL_EMIT
  83              	>  HEADER Flag_visible,"serial-emit",SERIAL_EMIT,PFA_SERIAL_EMIT
  83              	>>  .p2align 2,0x55
  83              	>> VE_SERIAL_EMIT:
  83 394c 00000000 	>>  .word 99b
  83 3950 00000000 	>> 99:.word Flag_visible
  83 3954 00       	>>  .byte 8f-7f
  83 3955 73657269 	>> 7:.ascii "serial-emit"
  83      616C2D65 
  83      6D6974
  83              	>> 8:.p2align 2,0xaa
  83 3960 00000000 	>>  XT_SERIAL_EMIT:.word PFA_SERIAL_EMIT
  83              	>>  PFA_SERIAL_EMIT:
  84              	# -----------------------------------------------------------------------------
  85              	
  86              	SERIAL_EMIT_WAIT:
  87 3964 B7320110 	  li x5, UART0_TXDATA
  88 3968 83A20200 	  lw x5, 0(x5)
  89 396c E3CC02FE 	  blt x5,zero, SERIAL_EMIT_WAIT
  90              	
  91 3970 37330110 	  li x6, UART0_TXDATA
  92 3974 23203300 	  sw x3, 0(x6)
  93              	  loadtos
  93 3978 83210200 	>  lw x3,0(x4)
  93 397c 13024200 	>  addi x4,x4,4
  94              	
  95              	  NEXT
  95 3980 6FC09FD5 	>  j DO_NEXT
  96              	
  97              	# -----------------------------------------------------------------------------
  98              	  CODEWORD  "serial-emit?", SERIAL_EMITQ
  98              	>  HEADER Flag_visible,"serial-emit?",SERIAL_EMITQ,PFA_SERIAL_EMITQ
  98              	>>  .p2align 2,0x55
  98              	>> VE_SERIAL_EMITQ:
  98 3984 00000000 	>>  .word 99b
  98 3988 00000000 	>> 99:.word Flag_visible
  98 398c 00       	>>  .byte 8f-7f
  98 398d 73657269 	>> 7:.ascii "serial-emit?"
  98      616C2D65 
  98      6D69743F 
  98 3999 AAAAAA   	>> 8:.p2align 2,0xaa
  98 399c 00000000 	>>  XT_SERIAL_EMITQ:.word PFA_SERIAL_EMITQ
  98              	>>  PFA_SERIAL_EMITQ:
  99              	# -----------------------------------------------------------------------------
 100              	  savetos
 100 39a0 1302C2FF 	>  addi x4,x4,-4
 100 39a4 23203200 	>  sw x3,0(x4)
 101 39a8 B7320110 	  li x5, UART0_TXDATA
 102 39ac 83A20200 	  lw x5, 0(x5)
 103 39b0 93D2F241 	  srai x5, x5, 31  # Sign extend the "transmit FIFO full" bit
 104 39b4 93C1F2FF 	  xori x3, x5, -1  # Invert it
GAS LISTING hifive1.s 			page 130


 105              	
 106              	  NEXT
 106 39b8 6FC01FD2 	>  j DO_NEXT
   5              	
   6              	.include "flash.s"
   1              	
   2              	COLON "!i", STORE_FLASH
   2              	>  HEADER Flag_visible,"!i",STORE_FLASH,DOCOLON
   2              	>>  .p2align 2,0x55
   2              	>> VE_STORE_FLASH:
   2 39bc 00000000 	>>  .word 99b
   2 39c0 00000000 	>> 99:.word Flag_visible
   2 39c4 00       	>>  .byte 8f-7f
   2 39c5 2169     	>> 7:.ascii "!i"
   2 39c7 AA       	>> 8:.p2align 2,0xaa
   2 39c8 00000000 	>>  XT_STORE_FLASH:.word DOCOLON
   2              	>>  PFA_STORE_FLASH:
   3 39cc 00000000 	    .word XT_DOLITERAL, -20, XT_THROW, XT_EXIT
   3      ECFFFFFF 
   3      00000000 
   3      00000000 
   4              	
   5              	COLON "c!i", CSTORE_FLASH
   5              	>  HEADER Flag_visible,"c!i",CSTORE_FLASH,DOCOLON
   5              	>>  .p2align 2,0x55
   5              	>> VE_CSTORE_FLASH:
   5 39dc 00000000 	>>  .word 99b
   5 39e0 00000000 	>> 99:.word Flag_visible
   5 39e4 00       	>>  .byte 8f-7f
   5 39e5 632169   	>> 7:.ascii "c!i"
   5              	>> 8:.p2align 2,0xaa
   5 39e8 00000000 	>>  XT_CSTORE_FLASH:.word DOCOLON
   5              	>>  PFA_CSTORE_FLASH:
   6 39ec 00000000 	    .word XT_DOLITERAL, -20, XT_THROW, XT_EXIT
   6      ECFFFFFF 
   6      00000000 
   6      00000000 
   7              	
   8              	COLON "inflash?", INFLASHQ
   8              	>  HEADER Flag_visible,"inflash?",INFLASHQ,DOCOLON
   8              	>>  .p2align 2,0x55
   8              	>> VE_INFLASHQ:
   8 39fc 00000000 	>>  .word 99b
   8 3a00 00000000 	>> 99:.word Flag_visible
   8 3a04 00       	>>  .byte 8f-7f
   8 3a05 696E666C 	>> 7:.ascii "inflash?"
   8      6173683F 
   8 3a0d AAAAAA   	>> 8:.p2align 2,0xaa
   8 3a10 00000000 	>>  XT_INFLASHQ:.word DOCOLON
   8              	>>  PFA_INFLASHQ:
   9 3a14 00000000 	    .word XT_FALSE, XT_EXIT
   9      00000000 
  10              	
  11              	COLON "cacheflush", CACHEFLUSH
  11              	>  HEADER Flag_visible,"cacheflush",CACHEFLUSH,DOCOLON
  11              	>>  .p2align 2,0x55
  11              	>> VE_CACHEFLUSH:
GAS LISTING hifive1.s 			page 131


  11 3a1c 00000000 	>>  .word 99b
  11 3a20 00000000 	>> 99:.word Flag_visible
  11 3a24 00       	>>  .byte 8f-7f
  11 3a25 63616368 	>> 7:.ascii "cacheflush"
  11      65666C75 
  11      7368
  11 3a2f AA       	>> 8:.p2align 2,0xaa
  11 3a30 00000000 	>>  XT_CACHEFLUSH:.word DOCOLON
  11              	>>  PFA_CACHEFLUSH:
  12 3a34 00000000 	    .word XT_EXIT
   7              	.include "words/leds.s"
   1              	
   2              	
   3              	# Common Anode tied to Vcc. LEDs shine on low.
   4              	.equ green, 1<<19 # GPIO 19: Green LED
   5              	.equ blue,  1<<21 # GPIO 21: Blue LED
   6              	.equ red,   1<<22 # GPIO 22: Red LED
   7              	
   8              	CODEWORD  "led-init", LED_INIT
   8              	>  HEADER Flag_visible,"led-init",LED_INIT,PFA_LED_INIT
   8              	>>  .p2align 2,0x55
   8              	>> VE_LED_INIT:
   8 3a38 00000000 	>>  .word 99b
   8 3a3c 00000000 	>> 99:.word Flag_visible
   8 3a40 00       	>>  .byte 8f-7f
   8 3a41 6C65642D 	>> 7:.ascii "led-init"
   8      696E6974 
   8 3a49 AAAAAA   	>> 8:.p2align 2,0xaa
   8 3a4c 00000000 	>>  XT_LED_INIT:.word PFA_LED_INIT
   8              	>>  PFA_LED_INIT:
   9 3a50 370A6800 	  li x20, red|green|blue
  10 3a54 B72A0110 	  li x21, GPIO_OUTPUT_EN
  10      938A8A00 
  11 3a5c 23A04A01 	  sw x20, 0(x21)
  12 3a60 370A6800 	  li x20, red|green|blue
  13 3a64 B72A0110 	  li x21, GPIO_PORT
  13      938ACA00 
  14 3a6c 23A04A01 	  sw x20, 0(x21)
  15              	NEXT
  15 3a70 6FC09FC6 	>  j DO_NEXT
  16              	
  17              	CODEWORD  "red", RED
  17              	>  HEADER Flag_visible,"red",RED,PFA_RED
  17              	>>  .p2align 2,0x55
  17              	>> VE_RED:
  17 3a74 00000000 	>>  .word 99b
  17 3a78 00000000 	>> 99:.word Flag_visible
  17 3a7c 00       	>>  .byte 8f-7f
  17 3a7d 726564   	>> 7:.ascii "red"
  17              	>> 8:.p2align 2,0xaa
  17 3a80 00000000 	>>  XT_RED:.word PFA_RED
  17              	>>  PFA_RED:
  18 3a84 370A2800 	    li x20, blue|green
  19 3a88 B72A0110 	    li x21, GPIO_PORT
  19      938ACA00 
  20 3a90 23A04A01 	    sw x20, 0(x21)
  21              	NEXT
GAS LISTING hifive1.s 			page 132


  21 3a94 6FC05FC4 	>  j DO_NEXT
  22              	
  23              	
  24              	CODEWORD  "green", GREEN
  24              	>  HEADER Flag_visible,"green",GREEN,PFA_GREEN
  24              	>>  .p2align 2,0x55
  24              	>> VE_GREEN:
  24 3a98 00000000 	>>  .word 99b
  24 3a9c 00000000 	>> 99:.word Flag_visible
  24 3aa0 00       	>>  .byte 8f-7f
  24 3aa1 67726565 	>> 7:.ascii "green"
  24      6E
  24 3aa6 AAAA     	>> 8:.p2align 2,0xaa
  24 3aa8 00000000 	>>  XT_GREEN:.word PFA_GREEN
  24              	>>  PFA_GREEN:
  25 3aac 370A6000 	    li x20, blue|red
  26 3ab0 B72A0110 	    li x21, GPIO_PORT
  26      938ACA00 
  27 3ab8 23A04A01 	    sw x20, 0(x21)
  28              	NEXT
  28 3abc 6FC0DFC1 	>  j DO_NEXT
  29              	
  30              	CODEWORD  "blue", BLUE
  30              	>  HEADER Flag_visible,"blue",BLUE,PFA_BLUE
  30              	>>  .p2align 2,0x55
  30              	>> VE_BLUE:
  30 3ac0 00000000 	>>  .word 99b
  30 3ac4 00000000 	>> 99:.word Flag_visible
  30 3ac8 00       	>>  .byte 8f-7f
  30 3ac9 626C7565 	>> 7:.ascii "blue"
  30 3acd AAAAAA   	>> 8:.p2align 2,0xaa
  30 3ad0 00000000 	>>  XT_BLUE:.word PFA_BLUE
  30              	>>  PFA_BLUE:
  31 3ad4 370A4800 	    li x20, red|green
  32 3ad8 B72A0110 	    li x21, GPIO_PORT
  32      938ACA00 
  33 3ae0 23A04A01 	    sw x20, 0(x21)
  34              	NEXT
  34 3ae4 6FC05FBF 	>  j DO_NEXT
  35              	
  36              	CODEWORD  "white", WHITE
  36              	>  HEADER Flag_visible,"white",WHITE,PFA_WHITE
  36              	>>  .p2align 2,0x55
  36              	>> VE_WHITE:
  36 3ae8 00000000 	>>  .word 99b
  36 3aec 00000000 	>> 99:.word Flag_visible
  36 3af0 00       	>>  .byte 8f-7f
  36 3af1 77686974 	>> 7:.ascii "white"
  36      65
  36 3af6 AAAA     	>> 8:.p2align 2,0xaa
  36 3af8 00000000 	>>  XT_WHITE:.word PFA_WHITE
  36              	>>  PFA_WHITE:
  37 3afc 130A0000 	    li x20, 0
  38 3b00 B72A0110 	    li x21, GPIO_PORT
  38      938ACA00 
  39 3b08 23A04A01 	    sw x20, 0(x21)
  40              	NEXT
GAS LISTING hifive1.s 			page 133


  40 3b0c 6FC0DFBC 	>  j DO_NEXT
  41              	
  42              	CODEWORD  "yellow", YELLOW
  42              	>  HEADER Flag_visible,"yellow",YELLOW,PFA_YELLOW
  42              	>>  .p2align 2,0x55
  42              	>> VE_YELLOW:
  42 3b10 00000000 	>>  .word 99b
  42 3b14 00000000 	>> 99:.word Flag_visible
  42 3b18 00       	>>  .byte 8f-7f
  42 3b19 79656C6C 	>> 7:.ascii "yellow"
  42      6F77
  42 3b1f AA       	>> 8:.p2align 2,0xaa
  42 3b20 00000000 	>>  XT_YELLOW:.word PFA_YELLOW
  42              	>>  PFA_YELLOW:
  43 3b24 370A2000 	    li x20, blue
  44 3b28 B72A0110 	    li x21, GPIO_PORT
  44      938ACA00 
  45 3b30 23A04A01 	    sw x20, 0(x21)
  46              	NEXT
  46 3b34 6FC05FBA 	>  j DO_NEXT
  47              	
  48              	CODEWORD  "cyan", CYAN
  48              	>  HEADER Flag_visible,"cyan",CYAN,PFA_CYAN
  48              	>>  .p2align 2,0x55
  48              	>> VE_CYAN:
  48 3b38 00000000 	>>  .word 99b
  48 3b3c 00000000 	>> 99:.word Flag_visible
  48 3b40 00       	>>  .byte 8f-7f
  48 3b41 6379616E 	>> 7:.ascii "cyan"
  48 3b45 AAAAAA   	>> 8:.p2align 2,0xaa
  48 3b48 00000000 	>>  XT_CYAN:.word PFA_CYAN
  48              	>>  PFA_CYAN:
  49 3b4c 370A4000 	    li x20, red
  50 3b50 B72A0110 	    li x21, GPIO_PORT
  50      938ACA00 
  51 3b58 23A04A01 	    sw x20, 0(x21)
  52              	NEXT
  52 3b5c 6FC0DFB7 	>  j DO_NEXT
  53              	
  54              	CODEWORD  "magenta", MAGENTA
  54              	>  HEADER Flag_visible,"magenta",MAGENTA,PFA_MAGENTA
  54              	>>  .p2align 2,0x55
  54              	>> VE_MAGENTA:
  54 3b60 00000000 	>>  .word 99b
  54 3b64 00000000 	>> 99:.word Flag_visible
  54 3b68 00       	>>  .byte 8f-7f
  54 3b69 6D616765 	>> 7:.ascii "magenta"
  54      6E7461
  54              	>> 8:.p2align 2,0xaa
  54 3b70 00000000 	>>  XT_MAGENTA:.word PFA_MAGENTA
  54              	>>  PFA_MAGENTA:
  55 3b74 370A0800 	    li x20, green
  56 3b78 B72A0110 	    li x21, GPIO_PORT
  56      938ACA00 
  57 3b80 23A04A01 	    sw x20, 0(x21)
  58              	NEXT
  58 3b84 6FC05FB5 	>  j DO_NEXT
GAS LISTING hifive1.s 			page 134


  59              	
  60              	CODEWORD  "black", BLACK
  60              	>  HEADER Flag_visible,"black",BLACK,PFA_BLACK
  60              	>>  .p2align 2,0x55
  60              	>> VE_BLACK:
  60 3b88 00000000 	>>  .word 99b
  60 3b8c 00000000 	>> 99:.word Flag_visible
  60 3b90 00       	>>  .byte 8f-7f
  60 3b91 626C6163 	>> 7:.ascii "black"
  60      6B
  60 3b96 AAAA     	>> 8:.p2align 2,0xaa
  60 3b98 00000000 	>>  XT_BLACK:.word PFA_BLACK
  60              	>>  PFA_BLACK:
  61 3b9c 370A6800 	    li x20, red|green|blue
  62 3ba0 B72A0110 	    li x21, GPIO_PORT
  62      938ACA00 
  63 3ba8 23A04A01 	    sw x20, 0(x21)
  64              	NEXT
  64 3bac 6FC0DFB2 	>  j DO_NEXT
   8              	.include "words/mtime.s"
   1              	
   2              	.equ CLINT_CTRL_ADDR, 0x02000000
   3              	.equ CLINT_MTIME, 0xBFF8
   4              	.equ CLINT_MTIMECMP, 0x4000
   5              	
   6              	COLON "mtime", MTIME
   6              	>  HEADER Flag_visible,"mtime",MTIME,DOCOLON
   6              	>>  .p2align 2,0x55
   6              	>> VE_MTIME:
   6 3bb0 00000000 	>>  .word 99b
   6 3bb4 00000000 	>> 99:.word Flag_visible
   6 3bb8 00       	>>  .byte 8f-7f
   6 3bb9 6D74696D 	>> 7:.ascii "mtime"
   6      65
   6 3bbe AAAA     	>> 8:.p2align 2,0xaa
   6 3bc0 00000000 	>>  XT_MTIME:.word DOCOLON
   6              	>>  PFA_MTIME:
   7 3bc4 00000000 	  .word XT_DOLITERAL, CLINT_MTIME+CLINT_CTRL_ADDR
   7      F8BF0002 
   8 3bcc 00000000 	  .word XT_FETCH
   9 3bd0 00000000 	.word XT_EXIT
  10              	
  11              	COLON "mtimecmp", MTIMECMP
  11              	>  HEADER Flag_visible,"mtimecmp",MTIMECMP,DOCOLON
  11              	>>  .p2align 2,0x55
  11              	>> VE_MTIMECMP:
  11 3bd4 00000000 	>>  .word 99b
  11 3bd8 00000000 	>> 99:.word Flag_visible
  11 3bdc 00       	>>  .byte 8f-7f
  11 3bdd 6D74696D 	>> 7:.ascii "mtimecmp"
  11      65636D70 
  11 3be5 AAAAAA   	>> 8:.p2align 2,0xaa
  11 3be8 00000000 	>>  XT_MTIMECMP:.word DOCOLON
  11              	>>  PFA_MTIMECMP:
  12 3bec 00000000 	  .word XT_DOLITERAL, CLINT_MTIMECMP+CLINT_CTRL_ADDR
  12      00400002 
  13 3bf4 00000000 	.word XT_EXIT
GAS LISTING hifive1.s 			page 135


   9              	
  10              	.include "words/env-board.s"
   1              	
   2              	ENVIRONMENT "board", BOARD
   2              	>  .p2align 2,0xf0
   2              	> VE_ENV_BOARD:
   2 3bf8 00000000 	>  .word 98b
   2              	> 98:
   2 3bfc 00000000 	>  .word Flag_visible
   2              	> 
   2 3c00 00       	>  .byte 8f-7f
   2 3c01 626F6172 	> 7:.ascii "board"
   2      64
   2 3c06 F0F0     	> 8:.p2align 2,0xf0
   2              	> 
   2 3c08 00000000 	>  XT_ENV_BOARD:.word DOCOLON
   2              	>  PFA_ENV_BOARD:
   3              	  STRING "SiFive Hifive1"
   3 3c0c 00000000 	>  .word XT_DOSLITERAL
   3 3c10 00       	>  .byte 8f-7f
   3 3c11 53694669 	> 7:.ascii "SiFive Hifive1"
   3      76652048 
   3      69666976 
   3      6531
   3 3c1f 0F       	> 8:.p2align 2,0x0f
   4 3c20 00000000 	.word XT_EXIT
  11              	.include "words/build-info.s"
   1              	
   2              	COLON "build-info", BUILD_INFO
   2              	>  HEADER Flag_visible,"build-info",BUILD_INFO,DOCOLON
   2              	>>  .p2align 2,0x55
   2              	>> VE_BUILD_INFO:
   2 3c24 00000000 	>>  .word 99b
   2 3c28 00000000 	>> 99:.word Flag_visible
   2 3c2c 00       	>>  .byte 8f-7f
   2 3c2d 6275696C 	>> 7:.ascii "build-info"
   2      642D696E 
   2      666F
   2 3c37 AA       	>> 8:.p2align 2,0xaa
   2 3c38 00000000 	>>  XT_BUILD_INFO:.word DOCOLON
   2              	>>  PFA_BUILD_INFO:
   3              	 STRING " Sun Oct 18 18:22:02 CEST 2020"
   3 3c3c 00000000 	>  .word XT_DOSLITERAL
   3 3c40 00       	>  .byte 8f-7f
   3 3c41 2053756E 	> 7:.ascii " Sun Oct 18 18:22:02 CEST 2020"
   3      204F6374 
   3      20313820 
   3      31383A32 
   3      323A3032 
   3 3c5f 0F       	> 8:.p2align 2,0x0f
   4 3c60 00000000 	.word XT_EXIT
   5              	
   6              	COLON "rev-info", REV_INFO
   6              	>  HEADER Flag_visible,"rev-info",REV_INFO,DOCOLON
   6              	>>  .p2align 2,0x55
   6              	>> VE_REV_INFO:
   6 3c64 00000000 	>>  .word 99b
GAS LISTING hifive1.s 			page 136


   6 3c68 00000000 	>> 99:.word Flag_visible
   6 3c6c 00       	>>  .byte 8f-7f
   6 3c6d 7265762D 	>> 7:.ascii "rev-info"
   6      696E666F 
   6 3c75 AAAAAA   	>> 8:.p2align 2,0xaa
   6 3c78 00000000 	>>  XT_REV_INFO:.word DOCOLON
   6              	>>  PFA_REV_INFO:
   7              	 STRING "2454"
   7 3c7c 00000000 	>  .word XT_DOSLITERAL
   7 3c80 00       	>  .byte 8f-7f
   7 3c81 32343534 	> 7:.ascii "2454"
   7 3c85 0F0F0F   	> 8:.p2align 2,0x0f
   8 3c88 00000000 	.word XT_EXIT
  12              	.include "words/applturnkey.s"
   1              	
   2              	COLON "hifive-turnkey", APPLTURNKEY
   2              	>  HEADER Flag_visible,"hifive-turnkey",APPLTURNKEY,DOCOLON
   2              	>>  .p2align 2,0x55
   2              	>> VE_APPLTURNKEY:
   2 3c8c 00000000 	>>  .word 99b
   2 3c90 00000000 	>> 99:.word Flag_visible
   2 3c94 00       	>>  .byte 8f-7f
   2 3c95 68696669 	>> 7:.ascii "hifive-turnkey"
   2      76652D74 
   2      75726E6B 
   2      6579
   2 3ca3 AA       	>> 8:.p2align 2,0xaa
   2 3ca4 00000000 	>>  XT_APPLTURNKEY:.word DOCOLON
   2              	>>  PFA_APPLTURNKEY:
   3              	
   4 3ca8 00000000 	  .word XT_LED_INIT
   5 3cac 00000000 	  .word XT_DECIMAL
   6 3cb0 00000000 	  .word XT_INIT_USART
   7              	
   8 3cb4 00000000 	  .word XT_DOT_VER, XT_SPACE
   8      00000000 
   9 3cbc 00000000 	  .word XT_ENV_BOARD,XT_TYPE, XT_CR
   9      00000000 
   9      00000000 
  10              	
  11 3cc8 00000000 	  .word XT_BUILD_INFO,XT_TYPE
  11      00000000 
  12 3cd0 00000000 	  .word XT_SPACE, XT_REV_INFO, XT_TYPE
  12      00000000 
  12      00000000 
  13              	
  14 3cdc 00000000 	.word XT_EXIT
  13              	
  14              	.include "words/type0.s"
   1              	
   2              	COLON "type0", TYPE0
   2              	>  HEADER Flag_visible,"type0",TYPE0,DOCOLON
   2              	>>  .p2align 2,0x55
   2              	>> VE_TYPE0:
   2 3ce0 00000000 	>>  .word 99b
   2 3ce4 00000000 	>> 99:.word Flag_visible
   2 3ce8 00       	>>  .byte 8f-7f
GAS LISTING hifive1.s 			page 137


   2 3ce9 74797065 	>> 7:.ascii "type0"
   2      30
   2 3cee AAAA     	>> 8:.p2align 2,0xaa
   2 3cf0 00000000 	>>  XT_TYPE0:.word DOCOLON
   2              	>>  PFA_TYPE0:
   3              	
   4              	PFA_TYPE0_LOOP:
   5 3cf4 00000000 	    .word XT_DUP,XT_CFETCH,XT_DUP, XT_NOTZEROEQUAL,XT_DOCONDBRANCH,PFA_TYPE0_LEAVE
   5      00000000 
   5      00000000 
   5      00000000 
   5      00000000 
   6 3d0c 00000000 	    .word XT_DUP,XT_DOLITERAL,10,XT_EQUAL,XT_DOCONDBRANCH,PFA_TYPE0_1,XT_DOLITERAL,13,XT_EMIT
   6      00000000 
   6      0A000000 
   6      00000000 
   6      00000000 
   7              	PFA_TYPE0_1:
   8 3d30 00000000 	    .word XT_EMIT, XT_1PLUS, XT_DOBRANCH,PFA_TYPE0_LOOP
   8      00000000 
   8      00000000 
   8      00000000 
   9              	PFA_TYPE0_LEAVE:
  10 3d40 00000000 	    .word XT_2DROP,XT_EXIT
  10      00000000 
  15              	
  16              	.include "words/dump.s"
   1              	# RAM dump is byte oriented:
   2              	# 00B0 BD 3E 55 33 5B E6 C4 9B 4A 63 72 20 63 72 20 24   .>U3[...Jcr.cr.$
   3              	# 00C0 62 30 20 32 30 20 64 75 6D 70 20 63 72 20 63 72   b0.20.dump.cr.cr
   4              	
   5              	#: ?ascii ( char -- printable-char )
   6              	#  dup $20 < if drop $2e
   7              	#           else dup $7e > 
   8              	#                if drop $2e then
   9              	#           then ;
  10              	
  11              	
  12              	COLON "?ascii", QASCII
  12              	>  HEADER Flag_visible,"?ascii",QASCII,DOCOLON
  12              	>>  .p2align 2,0x55
  12              	>> VE_QASCII:
  12 3d48 00000000 	>>  .word 99b
  12 3d4c 00000000 	>> 99:.word Flag_visible
  12 3d50 00       	>>  .byte 8f-7f
  12 3d51 3F617363 	>> 7:.ascii "?ascii"
  12      6969
  12 3d57 AA       	>> 8:.p2align 2,0xaa
  12 3d58 00000000 	>>  XT_QASCII:.word DOCOLON
  12              	>>  PFA_QASCII:
  13 3d5c 00000000 	    .word XT_DUP, XT_DOLITERAL,0x20,XT_LESS
  13      00000000 
  13      20000000 
  13      00000000 
  14 3d6c 00000000 	    .word XT_DOCONDBRANCH,PFA_QASCII1
  14      00000000 
  15 3d74 00000000 		.word XT_DROP, XT_DOLITERAL,0x2e
GAS LISTING hifive1.s 			page 138


  15      00000000 
  15      2E000000 
  16 3d80 00000000 		.word XT_DOBRANCH, PFA_QASCII2
  16      00000000 
  17              	PFA_QASCII1:
  18 3d88 00000000 		.word XT_DUP, XT_DOLITERAL, 0x7e,XT_GREATER
  18      00000000 
  18      7E000000 
  18      00000000 
  19 3d98 00000000 		.word XT_DOCONDBRANCH,PFA_QASCII2
  19      00000000 
  20 3da0 00000000 		.word XT_DROP, XT_DOLITERAL,0x2e
  20      00000000 
  20      2E000000 
  21              	PFA_QASCII2:
  22 3dac 00000000 	    .word XT_EXIT
  23              	
  24              	
  25              	COLON ".2hex", DOT2HEX
  25              	>  HEADER Flag_visible,".2hex",DOT2HEX,DOCOLON
  25              	>>  .p2align 2,0x55
  25              	>> VE_DOT2HEX:
  25 3db0 00000000 	>>  .word 99b
  25 3db4 00000000 	>> 99:.word Flag_visible
  25 3db8 00       	>>  .byte 8f-7f
  25 3db9 2E326865 	>> 7:.ascii ".2hex"
  25      78
  25 3dbe AAAA     	>> 8:.p2align 2,0xaa
  25 3dc0 00000000 	>>  XT_DOT2HEX:.word DOCOLON
  25              	>>  PFA_DOT2HEX:
  26 3dc4 00000000 	    .word XT_BASE,XT_FETCH,XT_TO_R,XT_HEX
  26      00000000 
  26      00000000 
  26      00000000 
  27 3dd4 00000000 	    .word XT_S2D,XT_L_SHARP,XT_SHARP,XT_SHARP,XT_SHARP_G,XT_TYPE
  27      00000000 
  27      00000000 
  27      00000000 
  27      00000000 
  28 3dec 00000000 	    .word XT_R_FROM,XT_BASE,XT_STORE
  28      00000000 
  28      00000000 
  29 3df8 00000000 	    .word XT_EXIT
  30              	
  31              	#: .2hex base @ >r hex s>d <# # # #> type r> base ! ;
  32              	#: .4hex base @ >r hex s>d <# # # # # #> type r> base ! ;
  33              	
  34              	COLON ".4hex", DOT4HEX
  34              	>  HEADER Flag_visible,".4hex",DOT4HEX,DOCOLON
  34              	>>  .p2align 2,0x55
  34              	>> VE_DOT4HEX:
  34 3dfc 00000000 	>>  .word 99b
  34 3e00 00000000 	>> 99:.word Flag_visible
  34 3e04 00       	>>  .byte 8f-7f
  34 3e05 2E346865 	>> 7:.ascii ".4hex"
  34      78
  34 3e0a AAAA     	>> 8:.p2align 2,0xaa
GAS LISTING hifive1.s 			page 139


  34 3e0c 00000000 	>>  XT_DOT4HEX:.word DOCOLON
  34              	>>  PFA_DOT4HEX:
  35 3e10 00000000 	    .word XT_BASE,XT_FETCH,XT_TO_R,XT_HEX
  35      00000000 
  35      00000000 
  35      00000000 
  36 3e20 00000000 	    .word XT_S2D,XT_L_SHARP,XT_SHARP,XT_SHARP,XT_SHARP,XT_SHARP
  36      00000000 
  36      00000000 
  36      00000000 
  36      00000000 
  37 3e38 00000000 	    .word XT_SHARP_G,XT_TYPE
  37      00000000 
  38 3e40 00000000 	    .word XT_R_FROM,XT_BASE,XT_STORE
  38      00000000 
  38      00000000 
  39 3e4c 00000000 	    .word XT_EXIT
  40              	
  41              	COLON ".8hex", DOT8HEX
  41              	>  HEADER Flag_visible,".8hex",DOT8HEX,DOCOLON
  41              	>>  .p2align 2,0x55
  41              	>> VE_DOT8HEX:
  41 3e50 00000000 	>>  .word 99b
  41 3e54 00000000 	>> 99:.word Flag_visible
  41 3e58 00       	>>  .byte 8f-7f
  41 3e59 2E386865 	>> 7:.ascii ".8hex"
  41      78
  41 3e5e AAAA     	>> 8:.p2align 2,0xaa
  41 3e60 00000000 	>>  XT_DOT8HEX:.word DOCOLON
  41              	>>  PFA_DOT8HEX:
  42 3e64 00000000 	    .word XT_BASE,XT_FETCH,XT_TO_R,XT_HEX
  42      00000000 
  42      00000000 
  42      00000000 
  43 3e74 00000000 	    .word XT_S2D,XT_L_SHARP,XT_SHARP,XT_SHARP,XT_SHARP,XT_SHARP
  43      00000000 
  43      00000000 
  43      00000000 
  43      00000000 
  44 3e8c 00000000 	    .word XT_SHARP,XT_SHARP,XT_SHARP,XT_SHARP
  44      00000000 
  44      00000000 
  44      00000000 
  45 3e9c 00000000 	    .word XT_SHARP_G,XT_TYPE
  45      00000000 
  46 3ea4 00000000 	    .word XT_R_FROM,XT_BASE,XT_STORE
  46      00000000 
  46      00000000 
  47 3eb0 00000000 	    .word XT_EXIT
  48              	
  49              	
  50              	#: dump ( addr count -- )
  51              	#  swap $f invert and $swap
  52              	#  cr 0
  53              	#  do dup .8hex space
  54              	#     $10 0 do dup i + c@ .2hex space loop 2 spaces
  55              	#     $10 0 do dup i + c@ ?ascii emit loop
GAS LISTING hifive1.s 			page 140


  56              	#     $10 + cr 
  57              	#  $10 +loop drop ;
  58              	
  59              	COLON "dump", DUMP
  59              	>  HEADER Flag_visible,"dump",DUMP,DOCOLON
  59              	>>  .p2align 2,0x55
  59              	>> VE_DUMP:
  59 3eb4 00000000 	>>  .word 99b
  59 3eb8 00000000 	>> 99:.word Flag_visible
  59 3ebc 00       	>>  .byte 8f-7f
  59 3ebd 64756D70 	>> 7:.ascii "dump"
  59 3ec1 AAAAAA   	>> 8:.p2align 2,0xaa
  59 3ec4 00000000 	>>  XT_DUMP:.word DOCOLON
  59              	>>  PFA_DUMP:
  60 3ec8 00000000 	    .word XT_SWAP,XT_DOLITERAL, 0xfffffff0, XT_AND,XT_SWAP
  60      00000000 
  60      F0FFFFFF 
  60      00000000 
  60      00000000 
  61 3edc 00000000 	    .word XT_CR,XT_ZERO,XT_DODO
  61      00000000 
  61      00000000 
  62              	PFA_DUMP0:
  63 3ee8 00000000 	      .word XT_DUP,XT_DOT8HEX,XT_SPACE
  63      00000000 
  63      00000000 
  64 3ef4 00000000 	      .word XT_DOLITERAL,0x10,XT_ZERO,XT_DODO
  64      10000000 
  64      00000000 
  64      00000000 
  65              	  PFA_DUMP1:
  66 3f04 00000000 	        .word XT_DUP,XT_I,XT_PLUS,XT_CFETCH,XT_DOT2HEX,XT_SPACE,XT_DOLOOP,PFA_DUMP1
  66      00000000 
  66      00000000 
  66      00000000 
  66      00000000 
  67              	  PFA_DUMP2:
  68 3f24 00000000 	      .word XT_SPACE,XT_SPACE
  68      00000000 
  69 3f2c 00000000 	      .word XT_DOLITERAL,0x10,XT_ZERO,XT_DODO
  69      10000000 
  69      00000000 
  69      00000000 
  70              	  PFA_DUMP3:
  71 3f3c 00000000 	        .word XT_DUP,XT_I,XT_PLUS,XT_CFETCH,XT_QASCII, XT_EMIT,XT_DOLOOP,PFA_DUMP3
  71      00000000 
  71      00000000 
  71      00000000 
  71      00000000 
  72              	  PFA_DUMP4:
  73              	
  74 3f5c 00000000 	      .word XT_DOLITERAL,0x10,XT_PLUS,XT_CR
  74      10000000 
  74      00000000 
  74      00000000 
  75              	PFA_DUMP5:
  76 3f6c 00000000 	    .word XT_DOLITERAL,0x10,XT_DOPLUSLOOP,PFA_DUMP0
GAS LISTING hifive1.s 			page 141


  76      10000000 
  76      00000000 
  76      00000000 
  77 3f7c 00000000 	.word XT_DROP,XT_EXIT
  77      00000000 
  17              	.include "words/csr.s"
   1              	
   2              	
   3              	CSR 0x000, ustatus
   3              	>  .p2align 2,0xf0
   3              	> VE_CSR_ustatus:
   3 3f84 00000000 	>  .word 97b
   3 3f88 00000000 	> 97:.word Flag_visible
   3              	> 
   3 3f8c 00       	>  .byte 8f-7f
   3 3f8d 75737461 	> 7:.ascii "ustatus"
   3      747573
   3              	> 8:.p2align 2,0xf0
   3              	> 
   3 3f94 00000000 	>  XT_CSR_ustatus:.word PFA_CSR_ustatus
   3              	>  PFA_CSR_ustatus:
   3              	>  savetos
   3 3f98 1302C2FF 	>>  addi x4,x4,-4
   3 3f9c 23203200 	>>  sw x3,0(x4)
   3 3fa0 F3210000 	>  csrr x3,0x000
   3              	>  NEXT
   3 3fa4 6FC04FF3 	>>  j DO_NEXT
   4              	CSR 0x004, uie
   4              	>  .p2align 2,0xf0
   4              	> VE_CSR_uie:
   4 3fa8 00000000 	>  .word 97b
   4 3fac 00000000 	> 97:.word Flag_visible
   4              	> 
   4 3fb0 00       	>  .byte 8f-7f
   4 3fb1 756965   	> 7:.ascii "uie"
   4              	> 8:.p2align 2,0xf0
   4              	> 
   4 3fb4 00000000 	>  XT_CSR_uie:.word PFA_CSR_uie
   4              	>  PFA_CSR_uie:
   4              	>  savetos
   4 3fb8 1302C2FF 	>>  addi x4,x4,-4
   4 3fbc 23203200 	>>  sw x3,0(x4)
   4 3fc0 F3214000 	>  csrr x3,0x004
   4              	>  NEXT
   4 3fc4 6FC04FF1 	>>  j DO_NEXT
   5              	CSR 0x005, utvec
   5              	>  .p2align 2,0xf0
   5              	> VE_CSR_utvec:
   5 3fc8 00000000 	>  .word 97b
   5 3fcc 00000000 	> 97:.word Flag_visible
   5              	> 
   5 3fd0 00       	>  .byte 8f-7f
   5 3fd1 75747665 	> 7:.ascii "utvec"
   5      63
   5 3fd6 F0F0     	> 8:.p2align 2,0xf0
   5              	> 
   5 3fd8 00000000 	>  XT_CSR_utvec:.word PFA_CSR_utvec
GAS LISTING hifive1.s 			page 142


   5              	>  PFA_CSR_utvec:
   5              	>  savetos
   5 3fdc 1302C2FF 	>>  addi x4,x4,-4
   5 3fe0 23203200 	>>  sw x3,0(x4)
   5 3fe4 F3215000 	>  csrr x3,0x005
   5              	>  NEXT
   5 3fe8 6FC00FEF 	>>  j DO_NEXT
   6              	CSR 0x040, uscratch
   6              	>  .p2align 2,0xf0
   6              	> VE_CSR_uscratch:
   6 3fec 00000000 	>  .word 97b
   6 3ff0 00000000 	> 97:.word Flag_visible
   6              	> 
   6 3ff4 00       	>  .byte 8f-7f
   6 3ff5 75736372 	> 7:.ascii "uscratch"
   6      61746368 
   6 3ffd F0F0F0   	> 8:.p2align 2,0xf0
   6              	> 
   6 4000 00000000 	>  XT_CSR_uscratch:.word PFA_CSR_uscratch
   6              	>  PFA_CSR_uscratch:
   6              	>  savetos
   6 4004 1302C2FF 	>>  addi x4,x4,-4
   6 4008 23203200 	>>  sw x3,0(x4)
   6 400c F3210004 	>  csrr x3,0x040
   6              	>  NEXT
   6 4010 6FC08FEC 	>>  j DO_NEXT
   7              	CSR 0x041, uepc
   7              	>  .p2align 2,0xf0
   7              	> VE_CSR_uepc:
   7 4014 00000000 	>  .word 97b
   7 4018 00000000 	> 97:.word Flag_visible
   7              	> 
   7 401c 00       	>  .byte 8f-7f
   7 401d 75657063 	> 7:.ascii "uepc"
   7 4021 F0F0F0   	> 8:.p2align 2,0xf0
   7              	> 
   7 4024 00000000 	>  XT_CSR_uepc:.word PFA_CSR_uepc
   7              	>  PFA_CSR_uepc:
   7              	>  savetos
   7 4028 1302C2FF 	>>  addi x4,x4,-4
   7 402c 23203200 	>>  sw x3,0(x4)
   7 4030 F3211004 	>  csrr x3,0x041
   7              	>  NEXT
   7 4034 6FC04FEA 	>>  j DO_NEXT
   8              	CSR 0x042, ucause
   8              	>  .p2align 2,0xf0
   8              	> VE_CSR_ucause:
   8 4038 00000000 	>  .word 97b
   8 403c 00000000 	> 97:.word Flag_visible
   8              	> 
   8 4040 00       	>  .byte 8f-7f
   8 4041 75636175 	> 7:.ascii "ucause"
   8      7365
   8 4047 F0       	> 8:.p2align 2,0xf0
   8              	> 
   8 4048 00000000 	>  XT_CSR_ucause:.word PFA_CSR_ucause
   8              	>  PFA_CSR_ucause:
GAS LISTING hifive1.s 			page 143


   8              	>  savetos
   8 404c 1302C2FF 	>>  addi x4,x4,-4
   8 4050 23203200 	>>  sw x3,0(x4)
   8 4054 F3212004 	>  csrr x3,0x042
   8              	>  NEXT
   8 4058 6FC00FE8 	>>  j DO_NEXT
   9              	CSR 0x042, ubadaddress
   9              	>  .p2align 2,0xf0
   9              	> VE_CSR_ubadaddress:
   9 405c 00000000 	>  .word 97b
   9 4060 00000000 	> 97:.word Flag_visible
   9              	> 
   9 4064 00       	>  .byte 8f-7f
   9 4065 75626164 	> 7:.ascii "ubadaddress"
   9      61646472 
   9      657373
   9              	> 8:.p2align 2,0xf0
   9              	> 
   9 4070 00000000 	>  XT_CSR_ubadaddress:.word PFA_CSR_ubadaddress
   9              	>  PFA_CSR_ubadaddress:
   9              	>  savetos
   9 4074 1302C2FF 	>>  addi x4,x4,-4
   9 4078 23203200 	>>  sw x3,0(x4)
   9 407c F3212004 	>  csrr x3,0x042
   9              	>  NEXT
   9 4080 6FC08FE5 	>>  j DO_NEXT
  10              	
  11              	CSR 0x300, mstatus
  11              	>  .p2align 2,0xf0
  11              	> VE_CSR_mstatus:
  11 4084 00000000 	>  .word 97b
  11 4088 00000000 	> 97:.word Flag_visible
  11              	> 
  11 408c 00       	>  .byte 8f-7f
  11 408d 6D737461 	> 7:.ascii "mstatus"
  11      747573
  11              	> 8:.p2align 2,0xf0
  11              	> 
  11 4094 00000000 	>  XT_CSR_mstatus:.word PFA_CSR_mstatus
  11              	>  PFA_CSR_mstatus:
  11              	>  savetos
  11 4098 1302C2FF 	>>  addi x4,x4,-4
  11 409c 23203200 	>>  sw x3,0(x4)
  11 40a0 F3210030 	>  csrr x3,0x300
  11              	>  NEXT
  11 40a4 6FC04FE3 	>>  j DO_NEXT
  12              	CSR 0x301, misa
  12              	>  .p2align 2,0xf0
  12              	> VE_CSR_misa:
  12 40a8 00000000 	>  .word 97b
  12 40ac 00000000 	> 97:.word Flag_visible
  12              	> 
  12 40b0 00       	>  .byte 8f-7f
  12 40b1 6D697361 	> 7:.ascii "misa"
  12 40b5 F0F0F0   	> 8:.p2align 2,0xf0
  12              	> 
  12 40b8 00000000 	>  XT_CSR_misa:.word PFA_CSR_misa
GAS LISTING hifive1.s 			page 144


  12              	>  PFA_CSR_misa:
  12              	>  savetos
  12 40bc 1302C2FF 	>>  addi x4,x4,-4
  12 40c0 23203200 	>>  sw x3,0(x4)
  12 40c4 F3211030 	>  csrr x3,0x301
  12              	>  NEXT
  12 40c8 6FC00FE1 	>>  j DO_NEXT
  13              	CSR 0x342, mcause
  13              	>  .p2align 2,0xf0
  13              	> VE_CSR_mcause:
  13 40cc 00000000 	>  .word 97b
  13 40d0 00000000 	> 97:.word Flag_visible
  13              	> 
  13 40d4 00       	>  .byte 8f-7f
  13 40d5 6D636175 	> 7:.ascii "mcause"
  13      7365
  13 40db F0       	> 8:.p2align 2,0xf0
  13              	> 
  13 40dc 00000000 	>  XT_CSR_mcause:.word PFA_CSR_mcause
  13              	>  PFA_CSR_mcause:
  13              	>  savetos
  13 40e0 1302C2FF 	>>  addi x4,x4,-4
  13 40e4 23203200 	>>  sw x3,0(x4)
  13 40e8 F3212034 	>  csrr x3,0x342
  13              	>  NEXT
  13 40ec 6FC0CFDE 	>>  j DO_NEXT
  14              	
  15              	CSR 0xb00, mcycle
  15              	>  .p2align 2,0xf0
  15              	> VE_CSR_mcycle:
  15 40f0 00000000 	>  .word 97b
  15 40f4 00000000 	> 97:.word Flag_visible
  15              	> 
  15 40f8 00       	>  .byte 8f-7f
  15 40f9 6D637963 	> 7:.ascii "mcycle"
  15      6C65
  15 40ff F0       	> 8:.p2align 2,0xf0
  15              	> 
  15 4100 00000000 	>  XT_CSR_mcycle:.word PFA_CSR_mcycle
  15              	>  PFA_CSR_mcycle:
  15              	>  savetos
  15 4104 1302C2FF 	>>  addi x4,x4,-4
  15 4108 23203200 	>>  sw x3,0(x4)
  15 410c F32100B0 	>  csrr x3,0xb00
  15              	>  NEXT
  15 4110 6FC08FDC 	>>  j DO_NEXT
  16              	CSR 0xb80, mcycleh
  16              	>  .p2align 2,0xf0
  16              	> VE_CSR_mcycleh:
  16 4114 00000000 	>  .word 97b
  16 4118 00000000 	> 97:.word Flag_visible
  16              	> 
  16 411c 00       	>  .byte 8f-7f
  16 411d 6D637963 	> 7:.ascii "mcycleh"
  16      6C6568
  16              	> 8:.p2align 2,0xf0
  16              	> 
GAS LISTING hifive1.s 			page 145


  16 4124 00000000 	>  XT_CSR_mcycleh:.word PFA_CSR_mcycleh
  16              	>  PFA_CSR_mcycleh:
  16              	>  savetos
  16 4128 1302C2FF 	>>  addi x4,x4,-4
  16 412c 23203200 	>>  sw x3,0(x4)
  16 4130 F32100B8 	>  csrr x3,0xb80
  16              	>  NEXT
  16 4134 6FC04FDA 	>>  j DO_NEXT
  17              	
  18              	COLON "@cycle", FETCH_CYCLE
  18              	>  HEADER Flag_visible,"@cycle",FETCH_CYCLE,DOCOLON
  18              	>>  .p2align 2,0x55
  18              	>> VE_FETCH_CYCLE:
  18 4138 00000000 	>>  .word 99b
  18 413c 00000000 	>> 99:.word Flag_visible
  18 4140 00       	>>  .byte 8f-7f
  18 4141 40637963 	>> 7:.ascii "@cycle"
  18      6C65
  18 4147 AA       	>> 8:.p2align 2,0xaa
  18 4148 00000000 	>>  XT_FETCH_CYCLE:.word DOCOLON
  18              	>>  PFA_FETCH_CYCLE:
  19 414c 00000000 	  .word XT_CSR_mcycle
  20 4150 00000000 	  .word XT_CSR_mcycleh
  21 4154 00000000 	  .word XT_EXIT
  16              	.include "dict_env.inc"
   1              	
   2              	.include "words/env-forthname.s"
   1              	
   2              	ENVIRONMENT "name", FORTHNAME
   2              	>  .p2align 2,0xf0
   2              	> VE_ENV_FORTHNAME:
   2 4158 00000000 	>  .word 98b
   2              	> 98:
   2 415c 00000000 	>  .word Flag_visible
   2              	> 
   2 4160 00       	>  .byte 8f-7f
   2 4161 6E616D65 	> 7:.ascii "name"
   2 4165 F0F0F0   	> 8:.p2align 2,0xf0
   2              	> 
   2 4168 00000000 	>  XT_ENV_FORTHNAME:.word DOCOLON
   2              	>  PFA_ENV_FORTHNAME:
   3              	    STRING "amforth"
   3 416c 00000000 	>  .word XT_DOSLITERAL
   3 4170 00       	>  .byte 8f-7f
   3 4171 616D666F 	> 7:.ascii "amforth"
   3      727468
   3              	> 8:.p2align 2,0x0f
   4 4178 00000000 	    .word XT_EXIT
   3              	.include "words/env-forthversion.s"
   1              	
   2              	ENVIRONMENT "version", FORTHVERSION
   2              	>  .p2align 2,0xf0
   2              	> VE_ENV_FORTHVERSION:
   2 417c 00000000 	>  .word 98b
   2              	> 98:
   2 4180 00000000 	>  .word Flag_visible
   2              	> 
GAS LISTING hifive1.s 			page 146


   2 4184 00       	>  .byte 8f-7f
   2 4185 76657273 	> 7:.ascii "version"
   2      696F6E
   2              	> 8:.p2align 2,0xf0
   2              	> 
   2 418c 00000000 	>  XT_ENV_FORTHVERSION:.word DOCOLON
   2              	>  PFA_ENV_FORTHVERSION:
   3 4190 00000000 	    .word XT_DOLITERAL, 69, XT_EXIT
   3      45000000 
   3      00000000 
   4              	.include "words/env-cpu.s"
   1              	
   2              	ENVIRONMENT "cpu", CPU
   2              	>  .p2align 2,0xf0
   2              	> VE_ENV_CPU:
   2 419c 00000000 	>  .word 98b
   2              	> 98:
   2 41a0 00000000 	>  .word Flag_visible
   2              	> 
   2 41a4 00       	>  .byte 8f-7f
   2 41a5 637075   	> 7:.ascii "cpu"
   2              	> 8:.p2align 2,0xf0
   2              	> 
   2 41a8 00000000 	>  XT_ENV_CPU:.word DOCOLON
   2              	>  PFA_ENV_CPU:
   3              	  STRING "RV32IM"
   3 41ac 00000000 	>  .word XT_DOSLITERAL
   3 41b0 00       	>  .byte 8f-7f
   3 41b1 52563332 	> 7:.ascii "RV32IM"
   3      494D
   3 41b7 0F       	> 8:.p2align 2,0x0f
   4 41b8 00000000 	.word XT_EXIT
   5              	.include "words/env-usersize.s"
   1              	
   2              	ENVIRONMENT "/user", SLASH_USER
   2              	>  .p2align 2,0xf0
   2              	> VE_ENV_SLASH_USER:
   2 41bc 00000000 	>  .word 98b
   2              	> 98:
   2 41c0 00000000 	>  .word Flag_visible
   2              	> 
   2 41c4 00       	>  .byte 8f-7f
   2 41c5 2F757365 	> 7:.ascii "/user"
   2      72
   2 41ca F0F0     	> 8:.p2align 2,0xf0
   2              	> 
   2 41cc 00000000 	>  XT_ENV_SLASH_USER:.word DOCOLON
   2              	>  PFA_ENV_SLASH_USER:
   3 41d0 00000000 	    .word XT_DOLITERAL, userarea_size
   3      88000000 
   4 41d8 00000000 	    .word XT_EXIT
  17              	
  18              	ENDDICT
  18              	> VALUE "riscv-wordlist",RISCV_WORDLIST,97b
  18              	>>  HEADER Flag_visible|Flag_value|Flag_init,"riscv-wordlist",RISCV_WORDLIST,PFA_DOVALUE
  18              	>>>  .p2align 2,0x55
  18              	>>> VE_RISCV_WORDLIST:
GAS LISTING hifive1.s 			page 147


  18 41dc 00000000 	>>>  .word 99b
  18 41e0 A0000000 	>>> 99:.word Flag_visible|Flag_value|Flag_init
  18 41e4 00       	>>>  .byte 8f-7f
  18 41e5 72697363 	>>> 7:.ascii "riscv-wordlist"
  18      762D776F 
  18      72646C69 
  18      7374
  18 41f3 AA       	>>> 8:.p2align 2,0xaa
  18 41f4 00000000 	>>>  XT_RISCV_WORDLIST:.word PFA_DOVALUE
  18              	>>>  PFA_RISCV_WORDLIST:
  18 41f8 74020080 	>>  .word rampointer
  18              	>>  .equ RAM_RISCV_WORDLIST,rampointer
  18              	>>  .set rampointer,rampointer+4
  18 41fc 00000000 	>>  .word 97b
  18 4200 00000000 	>>  .word XT_FETCH
  18 4204 00000000 	>>  .word XT_STORE
  18              	> VALUE "environment",ENVIRONMENT,98b
  18              	>>  HEADER Flag_visible|Flag_value|Flag_init,"environment",ENVIRONMENT,PFA_DOVALUE
  18              	>>>  .p2align 2,0x55
  18              	>>> VE_ENVIRONMENT:
  18 4208 00000000 	>>>  .word 99b
  18 420c A0000000 	>>> 99:.word Flag_visible|Flag_value|Flag_init
  18 4210 00       	>>>  .byte 8f-7f
  18 4211 656E7669 	>>> 7:.ascii "environment"
  18      726F6E6D 
  18      656E74
  18              	>>> 8:.p2align 2,0xaa
  18 421c 00000000 	>>>  XT_ENVIRONMENT:.word PFA_DOVALUE
  18              	>>>  PFA_ENVIRONMENT:
  18 4220 78020080 	>>  .word rampointer
  18              	>>  .equ RAM_ENVIRONMENT,rampointer
  18              	>>  .set rampointer,rampointer+4
  18 4224 00000000 	>>  .word 98b
  18 4228 00000000 	>>  .word XT_FETCH
  18 422c 00000000 	>>  .word XT_STORE
  18              	> VALUE "forth-wordlist",FORTH_WORDLIST,99b
  18              	>>  HEADER Flag_visible|Flag_value|Flag_init,"forth-wordlist",FORTH_WORDLIST,PFA_DOVALUE
  18              	>>>  .p2align 2,0x55
  18              	>>> VE_FORTH_WORDLIST:
  18 4230 00000000 	>>>  .word 99b
  18 4234 A0000000 	>>> 99:.word Flag_visible|Flag_value|Flag_init
  18 4238 00       	>>>  .byte 8f-7f
  18 4239 666F7274 	>>> 7:.ascii "forth-wordlist"
  18      682D776F 
  18      72646C69 
  18      7374
  18 4247 AA       	>>> 8:.p2align 2,0xaa
  18 4248 00000000 	>>>  XT_FORTH_WORDLIST:.word PFA_DOVALUE
  18              	>>>  PFA_FORTH_WORDLIST:
  18 424c 7C020080 	>>  .word rampointer
  18              	>>  .equ RAM_FORTH_WORDLIST,rampointer
  18              	>>  .set rampointer,rampointer+4
  18 4250 00000000 	>>  .word 99b
  18 4254 00000000 	>>  .word XT_FETCH
  18 4258 00000000 	>>  .word XT_STORE
  18              	> .set DPSTART,99b
  18              	> .equ HERESTART,rampointer
GAS LISTING hifive1.s 			page 148


GAS LISTING hifive1.s 			page 149


DEFINED SYMBOLS
           hifive1.s:5      *ABS*:0000000080000000 RamStart
           hifive1.s:6      *ABS*:0000000080004000 RamEnd
           hifive1.s:8      *ABS*:0000000020400000 FlashStart
           hifive1.s:9      *ABS*:0000000020410000 FlashEnd
           hifive1.s:11     *ABS*:0000000000000080 datastack_size
           hifive1.s:12     *ABS*:0000000000000080 returnstack_size
           hifive1.s:13     *ABS*:0000000000000060 refill_buf_size
           hifive1.s:14     *ABS*:0000000000000008 appl_userarea_size
                            *ABS*:0000000000000004 cellsize
           hifive1.s:15     *ABS*:0000000000000020 leavestack_size
           hifive1.s:17     *ABS*:0000000000000001 WANT_IGNORECASE
../../risc-v/words/cold.s:11     .text:0000000000000f80 PFA_COLD
../../risc-v/macros.s:108    *ABS*:00000000ffffffff Flag_invisible
../../risc-v/macros.s:109    *ABS*:0000000000000000 Flag_visible
../../risc-v/macros.s:111    *ABS*:0000000000000010 Flag_immediate
../../risc-v/macros.s:112    *ABS*:0000000000000020 Flag_value
../../risc-v/macros.s:113    *ABS*:0000000000000040 Flag_defer
../../risc-v/macros.s:114    *ABS*:0000000000000080 Flag_init
../../risc-v/macros.s:116    *ABS*:0000000000000100 Flag_ramallot
../../risc-v/macros.s:117    *ABS*:0000000000000101 Flag_variable
../../risc-v/macros.s:118    *ABS*:0000000000000102 Flag_2variable
           hifive1.s:15     *ABS*:0000000080000280 rampointer
../../risc-v/preamble.inc:8      *ABS*:0000000000000080 sys_userarea_size
           hifive1.s:14     *ABS*:0000000000000088 userarea_size
../../risc-v/preamble.inc:12     *ABS*:0000000080000000 RAM_lower_datastack
../../risc-v/preamble.inc:12     *ABS*:0000000080000080 RAM_upper_datastack
../../risc-v/preamble.inc:13     *ABS*:0000000080000080 RAM_lower_returnstack
../../risc-v/preamble.inc:13     *ABS*:0000000080000100 RAM_upper_returnstack
../../risc-v/preamble.inc:14     *ABS*:0000000080000100 RAM_lower_refill_buf
../../risc-v/preamble.inc:14     *ABS*:0000000080000160 RAM_upper_refill_buf
../../risc-v/preamble.inc:15     *ABS*:0000000080000160 RAM_lower_userarea
           hifive1.s:14     *ABS*:00000000800001e8 RAM_upper_userarea
../../risc-v/preamble.inc:16     *ABS*:00000000800001e8 RAM_lower_leavestack
           hifive1.s:15     *ABS*:0000000080000208 RAM_upper_leavestack
../../risc-v/user.inc:2      *ABS*:0000000000000000 USER_STATE
../../risc-v/user.inc:3      *ABS*:0000000000000004 USER_FOLLOWER
../../risc-v/user.inc:5      *ABS*:0000000000000008 USER_RP
../../risc-v/user.inc:6      *ABS*:000000000000000c USER_SP0
../../risc-v/user.inc:7      *ABS*:0000000000000010 USER_SP
../../risc-v/user.inc:8      *ABS*:0000000000000014 USER_HANDLER
../../risc-v/user.inc:9      *ABS*:0000000000000018 USER_BASE
../../risc-v/words/exit.s:2      .text:0000000000000008 VE_EXIT
../../risc-v/words/exit.s:2      .text:0000000000000018 XT_EXIT
../../risc-v/words/exit.s:2      .text:000000000000001c PFA_EXIT
../../risc-v/dict_prims.inc:39     .text:00000000000006d8 DO_NEXT
../../risc-v/words/drop.s:2      .text:0000000000000028 VE_DROP
../../risc-v/words/drop.s:2      .text:0000000000000038 XT_DROP
../../risc-v/words/drop.s:2      .text:000000000000003c PFA_DROP
../../risc-v/words/swap.s:1      .text:0000000000000048 VE_SWAP
../../risc-v/words/swap.s:1      .text:0000000000000058 XT_SWAP
../../risc-v/words/swap.s:1      .text:000000000000005c PFA_SWAP
../../risc-v/words/dup.s:2      .text:000000000000006c VE_DUP
../../risc-v/words/dup.s:2      .text:0000000000000078 XT_DUP
../../risc-v/words/dup.s:2      .text:000000000000007c PFA_DUP
../../risc-v/words/nip.s:1      .text:0000000000000088 VE_NIP
../../risc-v/words/nip.s:1      .text:0000000000000094 XT_NIP
GAS LISTING hifive1.s 			page 150


../../risc-v/words/nip.s:1      .text:0000000000000098 PFA_NIP
../../risc-v/words/over.s:1      .text:00000000000000a0 VE_OVER
../../risc-v/words/over.s:1      .text:00000000000000b0 XT_OVER
../../risc-v/words/over.s:1      .text:00000000000000b4 PFA_OVER
../../risc-v/words/rot.s:2      .text:00000000000000c4 VE_ROT
../../risc-v/words/rot.s:2      .text:00000000000000d0 XT_ROT
../../risc-v/words/rot.s:2      .text:00000000000000d4 PFA_ROT
../../risc-v/words/q-dup.s:2      .text:00000000000000ec VE_QDUP
../../risc-v/words/q-dup.s:2      .text:00000000000000fc XT_QDUP
../../risc-v/words/q-dup.s:2      .text:0000000000000100 PFA_QDUP
../../risc-v/words/tuck.s:2      .text:0000000000000110 VE_TUCK
../../risc-v/words/tuck.s:2      .text:0000000000000120 XT_TUCK
../../risc-v/words/tuck.s:2      .text:0000000000000124 PFA_TUCK
../../risc-v/words/m-rot.s:2      .text:0000000000000138 VE_MROT
../../risc-v/words/m-rot.s:2      .text:0000000000000148 XT_MROT
../../risc-v/words/m-rot.s:2      .text:000000000000014c PFA_MROT
../../risc-v/words/pick.s:2      .text:0000000000000164 VE_PICK
../../risc-v/words/pick.s:2      .text:0000000000000174 XT_PICK
../../risc-v/words/pick.s:2      .text:0000000000000178 PFA_PICK
../../risc-v/words/to-r.s:1      .text:0000000000000188 VE_TO_R
../../risc-v/words/to-r.s:1      .text:0000000000000194 XT_TO_R
../../risc-v/words/to-r.s:1      .text:0000000000000198 PFA_TO_R
../../risc-v/words/r-from.s:1      .text:00000000000001a4 VE_R_FROM
../../risc-v/words/r-from.s:1      .text:00000000000001b0 XT_R_FROM
../../risc-v/words/r-from.s:1      .text:00000000000001b4 PFA_R_FROM
../../risc-v/words/r-fetch.s:2      .text:00000000000001c8 VE_R_FETCH
../../risc-v/words/r-fetch.s:2      .text:00000000000001d4 XT_R_FETCH
../../risc-v/words/r-fetch.s:2      .text:00000000000001d8 PFA_R_FETCH
../../risc-v/words/rp.s:2      .text:00000000000001e8 VE_RP_FETCH
../../risc-v/words/rp.s:2      .text:00000000000001f4 XT_RP_FETCH
../../risc-v/words/rp.s:2      .text:00000000000001f8 PFA_RP_FETCH
../../risc-v/words/rp.s:8      .text:0000000000000208 VE_RP_STORE
../../risc-v/words/rp.s:8      .text:0000000000000214 XT_RP_STORE
../../risc-v/words/rp.s:8      .text:0000000000000218 PFA_RP_STORE
../../risc-v/words/rp.s:14     .text:0000000000000228 VE_RP
../../risc-v/words/rp.s:14     .text:0000000000000234 XT_RP
../../risc-v/words/do-user.s:1      .text:0000000000001328 PFA_DOUSER
../../risc-v/words/rp.s:14     .text:0000000000000238 PFA_RP
../../risc-v/words/sp.s:2      .text:000000000000023c VE_SP_FETCH
../../risc-v/words/sp.s:2      .text:0000000000000248 XT_SP_FETCH
../../risc-v/words/sp.s:2      .text:000000000000024c PFA_SP_FETCH
../../risc-v/words/sp.s:8      .text:000000000000025c VE_SP_STORE
../../risc-v/words/sp.s:8      .text:0000000000000268 XT_SP_STORE
../../risc-v/words/sp.s:8      .text:000000000000026c PFA_SP_STORE
../../risc-v/words/sp.s:15     .text:000000000000027c VE_SP
../../risc-v/words/sp.s:15     .text:0000000000000288 XT_SP
../../risc-v/words/sp.s:15     .text:000000000000028c PFA_SP
../../risc-v/words/sp.s:16     .text:0000000000000290 VE_SP0
../../risc-v/words/sp.s:16     .text:000000000000029c XT_SP0
../../risc-v/words/sp.s:16     .text:00000000000002a0 PFA_SP0
../../risc-v/words/fetch.s:2      .text:00000000000002a4 VE_FETCH
../../risc-v/words/fetch.s:2      .text:00000000000002b0 XT_FETCH
../../risc-v/words/fetch.s:2      .text:00000000000002b4 PFA_FETCH
../../risc-v/words/store.s:1      .text:00000000000002bc VE_STORE
../../risc-v/words/store.s:1      .text:00000000000002c8 XT_STORE
../../risc-v/words/store.s:1      .text:00000000000002cc PFA_STORE
../../risc-v/words/negate.s:2      .text:00000000000002e0 VE_NEGATE
GAS LISTING hifive1.s 			page 151


../../risc-v/words/negate.s:2      .text:00000000000002f0 XT_NEGATE
../../risc-v/words/negate.s:2      .text:00000000000002f4 PFA_NEGATE
../../risc-v/words/abs.s:2      .text:0000000000000300 VE_ABS
../../risc-v/words/abs.s:2      .text:000000000000030c XT_ABS
../../risc-v/words/abs.s:2      .text:0000000000000310 PFA_ABS
../../risc-v/words/multiplydivide.s:7      .text:0000000000000320 VE_STAR
../../risc-v/words/multiplydivide.s:7      .text:000000000000032c XT_STAR
../../risc-v/words/multiplydivide.s:7      .text:0000000000000330 PFA_STAR
../../risc-v/words/multiplydivide.s:15     .text:0000000000000340 VE_UMSTAR
../../risc-v/words/multiplydivide.s:15     .text:000000000000034c XT_UMSTAR
../../risc-v/words/multiplydivide.s:15     .text:0000000000000350 PFA_UMSTAR
../../risc-v/words/multiplydivide.s:24     .text:0000000000000364 VE_MSTAR
../../risc-v/words/multiplydivide.s:24     .text:0000000000000370 XT_MSTAR
../../risc-v/words/multiplydivide.s:24     .text:0000000000000374 PFA_MSTAR
../../risc-v/words/multiplydivide.s:33     .text:0000000000000388 VE_SLASH
../../risc-v/words/multiplydivide.s:33     .text:0000000000000394 XT_SLASH
../../risc-v/words/multiplydivide.s:33     .text:0000000000000398 PFA_SLASH
../../risc-v/words/multiplydivide.s:41     .text:00000000000003a8 VE_MOD
../../risc-v/words/multiplydivide.s:41     .text:00000000000003b4 XT_MOD
../../risc-v/words/multiplydivide.s:41     .text:00000000000003b8 PFA_MOD
../../risc-v/words/multiplydivide.s:49     .text:00000000000003c8 VE_U_SLASH_MOD
../../risc-v/words/multiplydivide.s:49     .text:00000000000003d8 XT_U_SLASH_MOD
../../risc-v/words/multiplydivide.s:49     .text:00000000000003dc PFA_U_SLASH_MOD
../../risc-v/words/multiplydivide.s:58     .text:00000000000003f0 VE_SLASHMOD
../../risc-v/words/multiplydivide.s:58     .text:0000000000000400 XT_SLASHMOD
../../risc-v/words/multiplydivide.s:58     .text:0000000000000404 PFA_SLASHMOD
../../risc-v/words/stack.s:4      .text:0000000000000418 VE_DEPTH
../../risc-v/words/stack.s:4      .text:0000000000000428 XT_DEPTH
../../risc-v/words/stack.s:4      .text:000000000000042c PFA_DEPTH
../../risc-v/words/stack.s:15     .text:0000000000000448 VE_RDEPTH
../../risc-v/words/stack.s:15     .text:0000000000000458 XT_RDEPTH
../../risc-v/words/stack.s:15     .text:000000000000045c PFA_RDEPTH
../../risc-v/words/stack.s:26     .text:0000000000000478 VE_RDROP
../../risc-v/words/stack.s:26     .text:0000000000000488 XT_RDROP
../../risc-v/words/stack.s:26     .text:000000000000048c PFA_RDROP
../../risc-v/words/logic.s:4      .text:0000000000000494 VE_AND
../../risc-v/words/logic.s:4      .text:00000000000004a0 XT_AND
../../risc-v/words/logic.s:4      .text:00000000000004a4 PFA_AND
../../risc-v/words/logic.s:13     .text:00000000000004b4 VE_OR
../../risc-v/words/logic.s:13     .text:00000000000004c0 XT_OR
../../risc-v/words/logic.s:13     .text:00000000000004c4 PFA_OR
../../risc-v/words/logic.s:22     .text:00000000000004d4 VE_XOR
../../risc-v/words/logic.s:22     .text:00000000000004e0 XT_XOR
../../risc-v/words/logic.s:22     .text:00000000000004e4 PFA_XOR
../../risc-v/words/logic.s:31     .text:00000000000004f4 VE_NOT
../../risc-v/words/logic.s:31     .text:0000000000000500 XT_NOT
../../risc-v/words/logic.s:31     .text:0000000000000504 PFA_NOT
../../risc-v/words/logic.s:37     .text:000000000000050c VE_INVERT
../../risc-v/words/logic.s:37     .text:000000000000051c XT_INVERT
../../risc-v/words/logic.s:37     .text:0000000000000520 PFA_INVERT
../../risc-v/words/logic.s:43     .text:0000000000000528 VE_RSHIFT
../../risc-v/words/logic.s:43     .text:0000000000000538 XT_RSHIFT
../../risc-v/words/logic.s:43     .text:000000000000053c PFA_RSHIFT
../../risc-v/words/logic.s:50     .text:000000000000054c VE_LSHIFT
../../risc-v/words/logic.s:50     .text:000000000000055c XT_LSHIFT
../../risc-v/words/logic.s:50     .text:0000000000000560 PFA_LSHIFT
../../risc-v/words/memory.s:4      .text:0000000000000570 VE_MOVE
GAS LISTING hifive1.s 			page 152


../../risc-v/words/memory.s:4      .text:0000000000000580 XT_MOVE
../../risc-v/words/memory.s:4      .text:0000000000000584 PFA_MOVE
../../risc-v/words/memory.s:56     .text:0000000000000608 VE_FILL
../../risc-v/words/memory.s:56     .text:0000000000000618 XT_FILL
../../risc-v/words/memory.s:56     .text:000000000000061c PFA_FILL
../../risc-v/words/memory.s:89     .text:0000000000000664 VE_PLUSSTORE
../../risc-v/words/memory.s:89     .text:0000000000000670 XT_PLUSSTORE
../../risc-v/words/memory.s:89     .text:0000000000000674 PFA_PLUSSTORE
../../risc-v/words/memory.s:101    .text:0000000000000690 VE_CFETCH
../../risc-v/words/memory.s:101    .text:000000000000069c XT_CFETCH
../../risc-v/words/memory.s:101    .text:00000000000006a0 PFA_CFETCH
../../risc-v/words/memory.s:108    .text:00000000000006a8 VE_CSTORE
../../risc-v/words/memory.s:108    .text:00000000000006b4 XT_CSTORE
../../risc-v/words/memory.s:108    .text:00000000000006b8 PFA_CSTORE
../../risc-v/dict_prims.inc:36     .text:00000000000006cc DOCOLON
../../risc-v/dict_prims.inc:42     .text:00000000000006e0 DO_EXECUTE
../../risc-v/words/comparisions.s:4      .text:00000000000006ec VE_ZEROEQUAL
../../risc-v/words/comparisions.s:4      .text:00000000000006f8 XT_ZEROEQUAL
../../risc-v/words/comparisions.s:4      .text:00000000000006fc PFA_ZEROEQUAL
../../risc-v/words/comparisions.s:13     .text:000000000000070c VE_NOTZEROEQUAL
../../risc-v/words/comparisions.s:13     .text:0000000000000718 XT_NOTZEROEQUAL
../../risc-v/words/comparisions.s:13     .text:000000000000071c PFA_NOTZEROEQUAL
../../risc-v/words/comparisions.s:20     .text:0000000000000728 VE_ZEROLESS
../../risc-v/words/comparisions.s:20     .text:0000000000000734 XT_ZEROLESS
../../risc-v/words/comparisions.s:20     .text:0000000000000738 PFA_ZEROLESS
../../risc-v/words/comparisions.s:26     .text:0000000000000740 VE_GREATEREQUAL
../../risc-v/words/comparisions.s:26     .text:000000000000074c XT_GREATEREQUAL
../../risc-v/words/comparisions.s:26     .text:0000000000000750 PFA_GREATEREQUAL
../../risc-v/words/comparisions.s:35     .text:0000000000000764 VE_LESSEQUAL
../../risc-v/words/comparisions.s:35     .text:0000000000000770 XT_LESSEQUAL
../../risc-v/words/comparisions.s:35     .text:0000000000000774 PFA_LESSEQUAL
../../risc-v/words/comparisions.s:44     .text:0000000000000788 VE_LESS
../../risc-v/words/comparisions.s:44     .text:0000000000000794 XT_LESS
../../risc-v/words/comparisions.s:44     .text:0000000000000798 PFA_LESS
../../risc-v/words/comparisions.s:55     .text:00000000000007b0 VE_GREATER
../../risc-v/words/comparisions.s:55     .text:00000000000007bc XT_GREATER
../../risc-v/words/comparisions.s:55     .text:00000000000007c0 PFA_GREATER
../../risc-v/words/comparisions.s:66     .text:00000000000007d8 VE_UGREATEREQUAL
../../risc-v/words/comparisions.s:66     .text:00000000000007e4 XT_UGREATEREQUAL
../../risc-v/words/comparisions.s:66     .text:00000000000007e8 PFA_UGREATEREQUAL
../../risc-v/words/comparisions.s:75     .text:00000000000007fc VE_ULESSEQUAL
../../risc-v/words/comparisions.s:75     .text:0000000000000808 XT_ULESSEQUAL
../../risc-v/words/comparisions.s:75     .text:000000000000080c PFA_ULESSEQUAL
../../risc-v/words/comparisions.s:84     .text:0000000000000820 VE_ULESS
../../risc-v/words/comparisions.s:84     .text:000000000000082c XT_ULESS
../../risc-v/words/comparisions.s:84     .text:0000000000000830 PFA_ULESS
../../risc-v/words/comparisions.s:94     .text:0000000000000848 VE_UGREATER
../../risc-v/words/comparisions.s:94     .text:0000000000000854 XT_UGREATER
../../risc-v/words/comparisions.s:94     .text:0000000000000858 PFA_UGREATER
../../risc-v/words/comparisions.s:104    .text:0000000000000870 VE_NOTEQUAL
../../risc-v/words/comparisions.s:104    .text:000000000000087c XT_NOTEQUAL
../../risc-v/words/comparisions.s:104    .text:0000000000000880 PFA_NOTEQUAL
../../risc-v/words/comparisions.s:116    .text:0000000000000898 VE_EQUAL
../../risc-v/words/comparisions.s:116    .text:00000000000008a4 XT_EQUAL
../../risc-v/words/comparisions.s:116    .text:00000000000008a8 PFA_EQUAL
../../risc-v/words/comparisions.s:119    .text:00000000000008a8 equal_einsprung
../../risc-v/words/comparisions.s:129    .text:00000000000008c4 VE_MIN
GAS LISTING hifive1.s 			page 153


../../risc-v/words/comparisions.s:129    .text:00000000000008d0 XT_MIN
../../risc-v/words/comparisions.s:129    .text:00000000000008d4 PFA_MIN
../../risc-v/words/comparisions.s:139    .text:00000000000008e8 VE_MAX
../../risc-v/words/comparisions.s:139    .text:00000000000008f4 XT_MAX
../../risc-v/words/comparisions.s:139    .text:00000000000008f8 PFA_MAX
../../risc-v/words/comparisions.s:149    .text:000000000000090c VE_UMIN
../../risc-v/words/comparisions.s:149    .text:000000000000091c XT_UMIN
../../risc-v/words/comparisions.s:149    .text:0000000000000920 PFA_UMIN
../../risc-v/words/comparisions.s:158    .text:0000000000000934 VE_UMAX
../../risc-v/words/comparisions.s:158    .text:0000000000000944 XT_UMAX
../../risc-v/words/comparisions.s:158    .text:0000000000000948 PFA_UMAX
../../risc-v/words/2swap.s:2      .text:000000000000095c VE_2SWAP
../../risc-v/words/2swap.s:2      .text:000000000000096c XT_2SWAP
../../risc-v/words/2swap.s:2      .text:0000000000000970 PFA_2SWAP
../../risc-v/words/2nip.s:2      .text:0000000000000990 VE_2NIP
../../risc-v/words/2nip.s:2      .text:00000000000009a0 XT_2NIP
../../risc-v/words/2nip.s:2      .text:00000000000009a4 PFA_2NIP
../../risc-v/words/2drop.s:1      .text:00000000000009b4 VE_2DROP
../../risc-v/words/2drop.s:1      .text:00000000000009c4 XT_2DROP
../../risc-v/words/2drop.s:1      .text:00000000000009c8 PFA_2DROP
../../risc-v/words/2over.s:2      .text:00000000000009d4 VE_2OVER
../../risc-v/words/2over.s:2      .text:00000000000009e4 XT_2OVER
../../risc-v/words/2over.s:2      .text:00000000000009e8 PFA_2OVER
../../risc-v/words/2r-fetch.s:1      .text:0000000000000a04 VE_2RFETCH
../../risc-v/words/2r-fetch.s:1      .text:0000000000000a10 XT_2RFETCH
../../risc-v/words/2r-fetch.s:1      .text:0000000000000a14 PFA_2RFETCH
../../risc-v/words/2to-r.s:2      .text:0000000000000a30 VE_2TO_R
../../risc-v/words/2to-r.s:2      .text:0000000000000a3c XT_2TO_R
../../risc-v/words/2to-r.s:2      .text:0000000000000a40 PFA_2TO_R
../../risc-v/words/2r-from.s:2      .text:0000000000000a68 VE_2R_FROM
../../risc-v/words/2r-from.s:2      .text:0000000000000a74 XT_2R_FROM
../../risc-v/words/2r-from.s:2      .text:0000000000000a78 PFA_2R_FROM
../../risc-v/words/d-2star.s:2      .text:0000000000000aa0 VE_D2STAR
../../risc-v/words/d-2star.s:2      .text:0000000000000aac XT_D2STAR
../../risc-v/words/d-2star.s:2      .text:0000000000000ab0 PFA_D2STAR
../../risc-v/words/d-2slash.s:2      .text:0000000000000acc VE_D2SLASH
../../risc-v/words/d-2slash.s:2      .text:0000000000000ad8 XT_D2SLASH
../../risc-v/words/d-2slash.s:2      .text:0000000000000adc PFA_D2SLASH
../../shared/words/dabs.s:1      .text:0000000000000af8 VE_DABS
../../shared/words/dabs.s:1      .text:0000000000000b08 XT_DABS
../../shared/words/dabs.s:1      .text:0000000000000b0c PFA_DABS
../../risc-v/words/docondbranch.s:2      .text:00000000000013d8 XT_DOCONDBRANCH
../../shared/words/dabs.s:4      .text:0000000000000b20 DABS_LEAVE
../../risc-v/words/dnegate.s:2      .text:0000000000000b34 XT_DNEGATE
../../risc-v/words/dnegate.s:2      .text:0000000000000b24 VE_DNEGATE
../../risc-v/words/dnegate.s:2      .text:0000000000000b38 PFA_DNEGATE
../../risc-v/words/d-plus.s:2      .text:0000000000000b74 PFA_DPLUS
../../risc-v/words/d-plus.s:2      .text:0000000000000b64 VE_DPLUS
../../risc-v/words/d-plus.s:2      .text:0000000000000b70 XT_DPLUS
../../risc-v/words/d-minus.s:10     .text:0000000000000bac VE_DMINUS
../../risc-v/words/d-minus.s:10     .text:0000000000000bb8 XT_DMINUS
../../risc-v/words/d-minus.s:10     .text:0000000000000bbc PFA_DMINUS
../../risc-v/words/2dup.s:1      .text:0000000000000bf4 VE_2DUP
../../risc-v/words/2dup.s:1      .text:0000000000000c04 XT_2DUP
../../risc-v/words/2dup.s:1      .text:0000000000000c08 PFA_2DUP
../../risc-v/words/double.s:3      .text:0000000000000c1c VE_S2D
../../risc-v/words/double.s:3      .text:0000000000000c28 XT_S2D
GAS LISTING hifive1.s 			page 154


../../risc-v/words/double.s:3      .text:0000000000000c2c PFA_S2D
../../risc-v/words/double.s:10     .text:0000000000000c3c VE_UMSLASHMOD
../../risc-v/words/double.s:10     .text:0000000000000c4c XT_UMSLASHMOD
../../risc-v/words/double.s:10     .text:0000000000000c50 PFA_UMSLASHMOD
../../risc-v/words/double.s:11     .text:0000000000000c50 um_slash_mod
../../shared/words/num-constants.s:2      .text:0000000000001524 XT_ZERO
../../risc-v/words/double.s:17     .text:0000000000000c74 XT_UDSLASHMOD
../../risc-v/words/double.s:17     .text:0000000000000c64 VE_UDSLASHMOD
../../risc-v/words/double.s:17     .text:0000000000000c78 PFA_UDSLASHMOD
../../risc-v/words/double.s:30     .text:0000000000000c78 ud_slash_mod
../../risc-v/words/double.s:55     .text:0000000000000c9c ud_slash_mod_internal
../../risc-v/words/double.s:129    .text:0000000000000db0 VE_DZEROLESS
../../risc-v/words/double.s:129    .text:0000000000000dbc XT_DZEROLESS
../../risc-v/words/double.s:129    .text:0000000000000dc0 PFA_DZEROLESS
../../risc-v/words/double.s:136    .text:0000000000000dcc VE_DZEROEQUAL
../../risc-v/words/double.s:136    .text:0000000000000dd8 XT_DZEROEQUAL
../../risc-v/words/double.s:136    .text:0000000000000ddc PFA_DZEROEQUAL
../../shared/words/base.s:1      .text:0000000000000df8 VE_BASE
../../shared/words/base.s:1      .text:0000000000000e08 XT_BASE
../../shared/words/base.s:1      .text:0000000000000e0c PFA_BASE
../../risc-v/words/plus.s:2      .text:0000000000000e10 VE_PLUS
../../risc-v/words/plus.s:2      .text:0000000000000e1c XT_PLUS
../../risc-v/words/plus.s:2      .text:0000000000000e20 PFA_PLUS
../../risc-v/words/minus.s:2      .text:0000000000000e30 VE_MINUS
../../risc-v/words/minus.s:2      .text:0000000000000e3c XT_MINUS
../../risc-v/words/minus.s:2      .text:0000000000000e40 PFA_MINUS
../../risc-v/words/1-plus.s:2      .text:0000000000000e50 VE_1PLUS
../../risc-v/words/1-plus.s:2      .text:0000000000000e5c XT_1PLUS
../../risc-v/words/1-plus.s:2      .text:0000000000000e60 PFA_1PLUS
../../risc-v/words/1-minus.s:2      .text:0000000000000e68 VE_1MINUS
../../risc-v/words/1-minus.s:2      .text:0000000000000e74 XT_1MINUS
../../risc-v/words/1-minus.s:2      .text:0000000000000e78 PFA_1MINUS
../../risc-v/words/2-plus.s:2      .text:0000000000000e80 VE_2PLUS
../../risc-v/words/2-plus.s:2      .text:0000000000000e8c XT_2PLUS
../../risc-v/words/2-plus.s:2      .text:0000000000000e90 PFA_2PLUS
../../risc-v/words/2-minus.s:2      .text:0000000000000e98 VE_2MINUS
../../risc-v/words/2-minus.s:2      .text:0000000000000ea4 XT_2MINUS
../../risc-v/words/2-minus.s:2      .text:0000000000000ea8 PFA_2MINUS
../../risc-v/words/2-star.s:2      .text:0000000000000eb0 VE_2STAR
../../risc-v/words/2-star.s:2      .text:0000000000000ebc XT_2STAR
../../risc-v/words/2-star.s:2      .text:0000000000000ec0 PFA_2STAR
../../risc-v/words/2-slash.s:2      .text:0000000000000ec8 VE_2SLASH
../../risc-v/words/2-slash.s:2      .text:0000000000000ed4 XT_2SLASH
../../risc-v/words/2-slash.s:2      .text:0000000000000ed8 PFA_2SLASH
../../risc-v/words/cell-plus.s:2      .text:0000000000000ee0 VE_CELLPLUS
../../risc-v/words/cell-plus.s:2      .text:0000000000000ef0 XT_CELLPLUS
../../risc-v/words/cell-plus.s:2      .text:0000000000000ef4 PFA_CELLPLUS
../../risc-v/words/cells.s:2      .text:0000000000000efc VE_CELLS
../../risc-v/words/cells.s:2      .text:0000000000000f0c XT_CELLS
../../risc-v/words/cells.s:2      .text:0000000000000f10 PFA_CELLS
../../shared/words/state.s:2      .text:0000000000000f18 VE_STATE
../../shared/words/state.s:2      .text:0000000000000f28 XT_STATE
../../risc-v/words/do-variable.s:2      .text:00000000000012d8 PFA_DOVARIABLE
../../shared/words/state.s:2      .text:0000000000000f2c PFA_STATE
../../risc-v/words/tib.s:2      .text:0000000000000f30 VE_TIB
../../risc-v/words/tib.s:2      .text:0000000000000f3c XT_TIB
../../risc-v/words/tib.s:2      .text:0000000000000f40 PFA_TIB
GAS LISTING hifive1.s 			page 155


../../risc-v/words/tib.s:8      .text:0000000000000f54 VE_NUMBERTIB
../../risc-v/words/tib.s:8      .text:0000000000000f64 XT_NUMBERTIB
../../risc-v/words/tib.s:8      .text:0000000000000f68 PFA_NUMBERTIB
../../risc-v/words/cold.s:2      *ABS*:0000000010008000 PRCI_BASE
../../risc-v/words/cold.s:4      *ABS*:0000000010008000 PRCI_HFROSCCFG
../../risc-v/words/cold.s:5      *ABS*:0000000010008004 PRCI_HFXOSCCFG
../../risc-v/words/cold.s:6      *ABS*:0000000010008008 PRCI_PLLCFG
../../risc-v/words/cold.s:7      *ABS*:000000001000800c PRCI_PLLDIV
../../risc-v/words/cold.s:8      *ABS*:00000000100080f0 PRCI_PROCMONCFG
../../risc-v/words/cold.s:11     .text:0000000000000f6c VE_COLD
../../risc-v/words/cold.s:11     .text:0000000000000f7c XT_COLD
../../shared/words/warm.s:2      .text:00000000000015bc XT_WARM
../../shared/words/quit.s:1      .text:0000000000000fc4 VE_QUIT
../../shared/words/quit.s:1      .text:0000000000000fd4 XT_QUIT
../../shared/words/quit.s:1      .text:0000000000000fd8 PFA_QUIT
../../shared/words/leave.s:2      .text:0000000000002fe4 XT_LP0
../../shared/words/leave.s:3      .text:0000000000003004 XT_LP
../../shared/words/left-bracket.s:2      .text:00000000000016b0 XT_LBRACKET
../../shared/words/quit.s:10     .text:0000000000000fe8 PFA_QUIT2
../../shared/words/quit.s:14     .text:0000000000001000 PFA_QUIT4
../../shared/words/prompt-ready.s:2      .text:0000000000001d04 XT_PROMPTREADY
../../shared/words/refill.s:2      .text:0000000000001a48 XT_REFILL
../../shared/words/prompt-input.s:2      .text:0000000000001c94 XT_PROMPTINPUT
../../shared/words/quit.s:29     .text:000000000000104c PFA_QUIT3
../../risc-v/words/doliteral.s:2      .text:00000000000013f4 XT_DOLITERAL
../../shared/words/interpret.s:2      .text:0000000000002a80 XT_INTERPRET
../../shared/words/catch.s:4      .text:0000000000001d58 XT_CATCH
../../shared/words/quit.s:27     .text:0000000000001044 PFA_QUIT5
../../shared/words/prompt-error.s:2      .text:0000000000001c2c XT_PROMPTERROR
../../risc-v/words/dobranch.s:2      .text:00000000000013cc XT_DOBRANCH
../../shared/words/prompt-ok.s:2      .text:0000000000001cc0 XT_PROMPTOK
../../risc-v/words/execute.s:2      .text:0000000000001058 VE_EXECUTE
../../risc-v/words/execute.s:2      .text:0000000000001068 XT_EXECUTE
../../risc-v/words/execute.s:2      .text:000000000000106c PFA_EXECUTE
../../shared/words/key.s:1      .text:000000000000107c VE_KEY
../../shared/words/key.s:1      .text:0000000000001088 XT_KEY
../../risc-v/words/do-defer.s:2      .text:0000000000001318 PFA_DODEFER
../../shared/words/key.s:1      .text:000000000000108c PFA_KEY
../../shared/words/key.s:1      *ABS*:0000000080000210 DEFER_RAM_KEY
../../shared/words/key.s:3      .text:000000000000109c XT_KEY_PAUSE
../../shared/words/key.s:3      .text:00000000000010a0 PFA_KEY_PAUSE
../../shared/words/pause.s:1      .text:0000000000001150 XT_PAUSE
     ./words/usart.s:56     .text:0000000000003904 XT_SERIAL_KEYQ
     ./words/usart.s:43     .text:00000000000038c8 XT_SERIAL_KEY
../../shared/words/keyq.s:1      .text:00000000000010b8 VE_KEYQ
../../shared/words/keyq.s:1      .text:00000000000010c8 XT_KEYQ
../../shared/words/keyq.s:1      .text:00000000000010cc PFA_KEYQ
../../shared/words/keyq.s:1      *ABS*:0000000080000214 DEFER_RAM_KEYQ
../../shared/words/emit.s:1      .text:00000000000010dc VE_EMIT
../../shared/words/emit.s:1      .text:00000000000010ec XT_EMIT
../../shared/words/emit.s:1      .text:00000000000010f0 PFA_EMIT
../../shared/words/emit.s:1      *ABS*:0000000080000218 DEFER_RAM_EMIT
../../shared/words/emit.s:3      .text:0000000000001100 XT_EMIT_PAUSE
../../shared/words/emit.s:3      .text:0000000000001104 PFA_EMIT_PAUSE
     ./words/usart.s:98     .text:000000000000399c XT_SERIAL_EMITQ
     ./words/usart.s:83     .text:0000000000003960 XT_SERIAL_EMIT
../../shared/words/emitq.s:1      .text:000000000000111c VE_EMITQ
GAS LISTING hifive1.s 			page 156


../../shared/words/emitq.s:1      .text:000000000000112c XT_EMITQ
../../shared/words/emitq.s:1      .text:0000000000001130 PFA_EMITQ
../../shared/words/emitq.s:1      *ABS*:000000008000021c DEFER_RAM_EMITQ
../../shared/words/pause.s:1      .text:0000000000001140 VE_PAUSE
../../shared/words/pause.s:1      .text:0000000000001154 PFA_PAUSE
../../shared/words/pause.s:1      *ABS*:0000000080000220 DEFER_RAM_PAUSE
../../risc-v/words/nop.s:2      .text:0000000000001170 XT_NOOP
../../risc-v/words/nop.s:2      .text:0000000000001164 VE_NOOP
../../risc-v/words/nop.s:2      .text:0000000000001174 PFA_NOOP
../../shared/words/bounds.s:1      .text:0000000000001178 VE_BOUNDS
../../shared/words/bounds.s:1      .text:0000000000001188 XT_BOUNDS
../../shared/words/bounds.s:1      .text:000000000000118c PFA_BOUNDS
../../risc-v/words/do-do.s:2      .text:000000000000119c XT_DODO
../../risc-v/words/do-do.s:2      .text:00000000000011a0 PFA_DODO
../../risc-v/words/do-loop.s:2      .text:00000000000011d4 XT_DOLOOP
../../risc-v/words/do-loop.s:2      .text:00000000000011d8 PFA_DOLOOP
../../risc-v/words/do-loop.s:9      .text:00000000000011f0 PFA_DOPLUSLOOP1
../../risc-v/words/do-loop.s:6      .text:00000000000011e0 XT_DOPLUSLOOP
../../risc-v/words/do-loop.s:6      .text:00000000000011e4 PFA_DOPLUSLOOP
../../risc-v/words/do-loop.s:17     .text:000000000000120c PFA_DOLOOP_LEAVE
../../risc-v/words/unloop.s:2      .text:0000000000001220 VE_UNLOOP
../../risc-v/words/unloop.s:2      .text:0000000000001230 XT_UNLOOP
../../risc-v/words/unloop.s:2      .text:0000000000001234 PFA_UNLOOP
../../risc-v/words/i.s:2      .text:0000000000001244 VE_I
../../risc-v/words/i.s:2      .text:0000000000001250 XT_I
../../risc-v/words/i.s:2      .text:0000000000001254 PFA_I
../../risc-v/words/j.s:1      .text:0000000000001264 VE_J
../../risc-v/words/j.s:1      .text:0000000000001270 XT_J
../../risc-v/words/j.s:1      .text:0000000000001274 PFA_J
../../risc-v/words/aligned.s:1      .text:000000000000128c VE_ALIGNED
../../risc-v/words/aligned.s:1      .text:000000000000129c XT_ALIGNED
../../risc-v/words/aligned.s:1      .text:00000000000012a0 PFA_ALIGNED
../../shared/words/do-sliteral.s:2      .text:00000000000012b4 XT_DOSLITERAL
../../shared/words/do-sliteral.s:2      .text:00000000000012b8 PFA_DOSLITERAL
../../shared/words/count.s:2      .text:0000000000002cf0 XT_COUNT
../../risc-v/words/do-variable.s:2      .text:00000000000012d4 XT_DOVARIABLE
../../risc-v/words/do-data.s:1      .text:00000000000012e8 XT_DODATA
../../risc-v/words/do-data.s:1      .text:00000000000012ec PFA_DODATA
../../risc-v/words/do-value.s:2      .text:00000000000012fc XT_DOVALUE
../../risc-v/words/do-value.s:2      .text:0000000000001300 PFA_DOVALUE
../../risc-v/words/do-defer.s:2      .text:0000000000001314 XT_DODEFER
../../risc-v/words/do-user.s:1      .text:0000000000001324 XT_DOUSER
../../risc-v/words/do-does.s:1      .text:000000000000133c XT_DODOES
../../risc-v/words/do-does.s:1      .text:0000000000001340 PFA_DODOES
../../risc-v/words/up.s:2      .text:0000000000001360 VE_UP_FETCH
../../risc-v/words/up.s:2      .text:000000000000136c XT_UP_FETCH
../../risc-v/words/up.s:2      .text:0000000000001370 PFA_UP_FETCH
../../risc-v/words/up.s:7      .text:0000000000001380 VE_UP_STORE
../../risc-v/words/up.s:7      .text:000000000000138c XT_UP_STORE
../../risc-v/words/up.s:7      .text:0000000000001390 PFA_UP_STORE
../../risc-v/words/1ms.s:2      .text:00000000000013a0 VE_1MS
../../risc-v/words/1ms.s:2      .text:00000000000013ac XT_1MS
../../risc-v/words/1ms.s:2      .text:00000000000013b0 PFA_1MS
../../risc-v/words/dobranch.s:2      .text:00000000000013d0 PFA_DOBRANCH
../../risc-v/words/docondbranch.s:2      .text:00000000000013dc PFA_DOCONDBRANCH
../../risc-v/words/doliteral.s:2      .text:00000000000013f8 PFA_DOLITERAL
../../risc-v/words/compare.s:2      .text:000000000000140c VE_COMPARE
GAS LISTING hifive1.s 			page 157


../../risc-v/words/compare.s:2      .text:000000000000141c XT_COMPARE
../../risc-v/words/compare.s:2      .text:0000000000001420 PFA_COMPARE
../../risc-v/words/n_to_r.s:1      .text:0000000000001490 VE_N_TO_R
../../risc-v/words/n_to_r.s:1      .text:000000000000149c XT_N_TO_R
../../risc-v/words/n_to_r.s:1      .text:00000000000014a0 PFA_N_TO_R
../../risc-v/words/n_to_r.s:4      .text:00000000000014a8 N_TO_R_LOOP
../../risc-v/words/n_r_from.s:1      .text:00000000000014d4 VE_N_R_FROM
../../risc-v/words/n_r_from.s:1      .text:00000000000014e0 XT_N_R_FROM
../../risc-v/words/n_r_from.s:1      .text:00000000000014e4 PFA_N_R_FROM
../../risc-v/words/n_r_from.s:5      .text:00000000000014f8 N_R_FROM_LOOP
../../shared/words/num-constants.s:2      .text:0000000000001518 VE_ZERO
../../shared/words/num-constants.s:2      .text:0000000000001528 PFA_ZERO
../../shared/words/num-constants.s:3      .text:000000000000152c VE_ONE
../../shared/words/num-constants.s:3      .text:0000000000001538 XT_ONE
../../shared/words/num-constants.s:3      .text:000000000000153c PFA_ONE
../../shared/words/num-constants.s:4      .text:0000000000001540 VE_TWO
../../shared/words/num-constants.s:4      .text:000000000000154c XT_TWO
../../shared/words/num-constants.s:4      .text:0000000000001550 PFA_TWO
../../shared/words/num-constants.s:5      .text:0000000000001554 VE_FOUR
../../shared/words/num-constants.s:5      .text:0000000000001560 XT_FOUR
../../shared/words/num-constants.s:5      .text:0000000000001564 PFA_FOUR
../../shared/words/num-constants.s:6      .text:0000000000001568 VE_MINUSONE
../../shared/words/num-constants.s:6      .text:0000000000001574 XT_MINUSONE
../../shared/words/num-constants.s:6      .text:0000000000001578 PFA_MINUSONE
../../shared/words/num-constants.s:7      .text:000000000000157c VE_TRUE
../../shared/words/num-constants.s:7      .text:000000000000158c XT_TRUE
../../shared/words/num-constants.s:7      .text:0000000000001590 PFA_TRUE
../../shared/words/num-constants.s:8      .text:0000000000001594 VE_FALSE
../../shared/words/num-constants.s:8      .text:00000000000015a4 XT_FALSE
../../shared/words/num-constants.s:8      .text:00000000000015a8 PFA_FALSE
../../shared/words/warm.s:2      .text:00000000000015ac VE_WARM
../../shared/words/warm.s:2      .text:00000000000015c0 PFA_WARM
../../shared/words/init-ram.s:2      .text:0000000000002bcc XT_INIT_RAM
../../shared/words/turnkey.s:2      .text:00000000000030e8 XT_TURNKEY
../../shared/words/ms.s:2      .text:00000000000015d4 VE_MS
../../shared/words/ms.s:2      .text:00000000000015e0 XT_MS
../../shared/words/ms.s:2      .text:00000000000015e4 PFA_MS
../../shared/words/ms.s:4      .text:00000000000015e4 XT_MS_LOOP
../../shared/words/cr.s:1      .text:0000000000001604 VE_CR
../../shared/words/cr.s:1      .text:0000000000001610 XT_CR
../../shared/words/cr.s:1      .text:0000000000001614 PFA_CR
../../shared/words/bl.s:2      .text:0000000000001630 VE_BL
../../shared/words/bl.s:2      .text:000000000000163c XT_BL
../../shared/words/bl.s:2      .text:0000000000001640 PFA_BL
../../shared/words/space.s:2      .text:0000000000001644 VE_SPACE
../../shared/words/space.s:2      .text:0000000000001654 XT_SPACE
../../shared/words/space.s:2      .text:0000000000001658 PFA_SPACE
../../shared/words/spaces.s:2      .text:0000000000001664 VE_SPACES
../../shared/words/spaces.s:2      .text:0000000000001674 XT_SPACES
../../shared/words/spaces.s:2      .text:0000000000001678 PFA_SPACES
../../shared/words/spaces.s:5      .text:0000000000001680 SPCS1
../../shared/words/spaces.s:8      .text:000000000000169c SPCS2
../../shared/words/left-bracket.s:2      .text:00000000000016a4 VE_LBRACKET
../../shared/words/left-bracket.s:2      .text:00000000000016b4 PFA_LBRACKET
../../shared/words/l-paren.s:2      .text:00000000000016c4 VE_LPAREN
../../shared/words/l-paren.s:2      .text:00000000000016d0 XT_LPAREN
../../shared/words/l-paren.s:2      .text:00000000000016d4 PFA_LPAREN
GAS LISTING hifive1.s 			page 158


../../shared/words/parse.s:2      .text:0000000000001fc4 XT_PARSE
../../shared/words/decimal.s:2      .text:00000000000016e8 VE_DECIMAL
../../shared/words/decimal.s:2      .text:00000000000016f8 XT_DECIMAL
../../shared/words/decimal.s:2      .text:00000000000016fc PFA_DECIMAL
../../shared/words/hex.s:2      .text:0000000000001710 VE_HEX
../../shared/words/hex.s:2      .text:000000000000171c XT_HEX
../../shared/words/hex.s:2      .text:0000000000001720 PFA_HEX
../../shared/words/pad.s:1      .text:0000000000001734 VE_PAD
../../shared/words/pad.s:1      .text:0000000000001740 XT_PAD
../../shared/words/pad.s:1      .text:0000000000001744 PFA_PAD
../../shared/words/here.s:2      .text:0000000000001768 XT_HERE
../../shared/words/here.s:2      .text:0000000000001758 VE_HERE
../../shared/words/here.s:2      .text:000000000000176c PFA_HERE
../../shared/words/dp.s:2      .text:0000000000003778 XT_DP
../../shared/words/allot.s:2      .text:0000000000001774 VE_ALLOT
../../shared/words/allot.s:2      .text:0000000000001784 XT_ALLOT
../../shared/words/allot.s:2      .text:0000000000001788 PFA_ALLOT
../../shared/words/to.s:13     .text:0000000000003660 XT_DOTO
../../shared/words/hold.s:2      .text:000000000000179c VE_HLD
../../shared/words/hold.s:2      .text:00000000000017a8 XT_HLD
../../shared/words/hold.s:2      .text:00000000000017ac PFA_HLD
../../shared/words/hold.s:4      .text:00000000000017b0 VE_HOLD
../../shared/words/hold.s:4      .text:00000000000017c0 XT_HOLD
../../shared/words/hold.s:4      .text:00000000000017c4 PFA_HOLD
../../shared/words/sharp.s:2      .text:00000000000017f0 VE_L_SHARP
../../shared/words/sharp.s:2      .text:00000000000017fc XT_L_SHARP
../../shared/words/sharp.s:2      .text:0000000000001800 PFA_L_SHARP
../../shared/words/sharp.s:7      .text:0000000000001810 VE_SHARP
../../shared/words/sharp.s:7      .text:000000000000181c XT_SHARP
../../shared/words/sharp.s:7      .text:0000000000001820 PFA_SHARP
../../shared/words/sharp.s:15     .text:0000000000001854 PFA_SHARP1
../../shared/words/sharp.s:19     .text:0000000000001868 VE_SHARP_S
../../shared/words/sharp.s:19     .text:0000000000001874 XT_SHARP_S
../../shared/words/sharp.s:19     .text:0000000000001878 PFA_SHARP_S
../../shared/words/sharp.s:24     .text:0000000000001894 VE_SHARP_G
../../shared/words/sharp.s:24     .text:00000000000018a0 XT_SHARP_G
../../shared/words/sharp.s:24     .text:00000000000018a4 PFA_SHARP_G
../../shared/words/sign.s:2      .text:00000000000018c0 VE_SIGN
../../shared/words/sign.s:2      .text:00000000000018d0 XT_SIGN
../../shared/words/sign.s:2      .text:00000000000018d4 PFA_SIGN
../../shared/words/sign.s:9      .text:00000000000018ec PFA_SIGN1
../../shared/words/dot.s:2      .text:00000000000018f0 VE_DOT
../../shared/words/dot.s:2      .text:00000000000018fc XT_DOT
../../shared/words/dot.s:2      .text:0000000000001900 PFA_DOT
../../shared/words/d-dot.s:2      .text:0000000000001960 XT_DDOT
../../shared/words/d-dot-r.s:2      .text:000000000000190c VE_DDOTR
../../shared/words/d-dot-r.s:2      .text:0000000000001918 XT_DDOTR
../../shared/words/d-dot-r.s:2      .text:000000000000191c PFA_DDOTR
../../shared/words/type.s:2      .text:0000000000002d18 XT_TYPE
../../shared/words/d-dot.s:2      .text:0000000000001954 VE_DDOT
../../shared/words/d-dot.s:2      .text:0000000000001964 PFA_DDOT
../../shared/words/u-dot.s:1      .text:0000000000001974 VE_UDOT
../../shared/words/u-dot.s:1      .text:0000000000001980 XT_UDOT
../../shared/words/u-dot.s:1      .text:0000000000001984 PFA_UDOT
../../shared/words/ud-dot.s:2      .text:000000000000199c XT_UDDOT
../../shared/words/ud-dot.s:2      .text:0000000000001990 VE_UDDOT
../../shared/words/ud-dot.s:2      .text:00000000000019a0 PFA_UDDOT
GAS LISTING hifive1.s 			page 159


../../shared/words/ud-dot-r.s:2      .text:00000000000019c0 XT_UDDOTR
../../shared/words/ud-dot-r.s:2      .text:00000000000019b0 VE_UDDOTR
../../shared/words/ud-dot-r.s:2      .text:00000000000019c4 PFA_UDDOTR
../../shared/words/dot-s.s:2      .text:00000000000019ec VE_DOTS
../../shared/words/dot-s.s:2      .text:00000000000019f8 XT_DOTS
../../shared/words/dot-s.s:2      .text:00000000000019fc PFA_DOTS
../../shared/words/qdo.s:11     .text:0000000000002b8c XT_QDOCHECK
../../shared/words/dot-s.s:16     .text:0000000000001a34 PFA_DOTS2
../../shared/words/dot-s.s:11     .text:0000000000001a20 PFA_DOTS1
../../shared/words/refill.s:2      .text:0000000000001a38 VE_REFILL
../../shared/words/refill.s:2      .text:0000000000001a4c PFA_REFILL
../../shared/words/refill.s:2      *ABS*:0000000080000228 DEFER_RAM_REFILL
../../shared/words/refill.s:4      .text:0000000000001a70 XT_REFILLTIB
../../shared/words/refill.s:4      .text:0000000000001a5c VE_REFILLTIB
../../shared/words/refill.s:4      .text:0000000000001a74 PFA_REFILLTIB
../../shared/words/accept.s:2      .text:0000000000001ab0 XT_ACCEPT
../../shared/words/to-in.s:1      .text:0000000000003764 XT_TO_IN
../../shared/words/accept.s:2      .text:0000000000001aa0 VE_ACCEPT
../../shared/words/accept.s:2      .text:0000000000001ab4 PFA_ACCEPT
../../shared/words/accept.s:5      .text:0000000000001ac0 ACC1
../../shared/words/accept.s:40     .text:0000000000001bf0 XT_CRLFQ
../../shared/words/accept.s:28     .text:0000000000001ba0 ACC5
../../shared/words/accept.s:14     .text:0000000000001b38 ACC3
../../shared/words/accept.s:12     .text:0000000000001b30 ACC6
../../shared/words/accept.s:31     .text:0000000000001bc0 XT_BS
../../shared/words/accept.s:26     .text:0000000000001b98 ACC4
../../shared/words/accept.s:19     .text:0000000000001b54 PFA_ACCEPT6
../../shared/words/accept.s:25     .text:0000000000001b94 ACC7
../../shared/words/accept.s:31     .text:0000000000001bb4 VE_BS
../../shared/words/accept.s:31     .text:0000000000001bc4 PFA_BS
../../shared/words/accept.s:40     .text:0000000000001be0 VE_CRLFQ
../../shared/words/accept.s:40     .text:0000000000001bf4 PFA_CRLFQ
../../shared/words/prompt-error.s:2      .text:0000000000001c1c VE_PROMPTERROR
../../shared/words/prompt-error.s:2      .text:0000000000001c30 PFA_PROMPTERROR
../../shared/words/prompt-error.s:2      *ABS*:000000008000022c DEFER_RAM_PROMPTERROR
../../shared/words/prompt-error.s:4      .text:0000000000001c40 XT_PROMPTERROR_DEFAULT
../../shared/words/prompt-error.s:4      .text:0000000000001c44 PFA_PROMPTERROR_DEFAULT
../../shared/words/prompt-input.s:2      .text:0000000000001c84 VE_PROMPTINPUT
../../shared/words/prompt-input.s:2      .text:0000000000001c98 PFA_PROMPTINPUT
../../shared/words/prompt-input.s:2      *ABS*:0000000080000230 DEFER_RAM_PROMPTINPUT
../../shared/words/prompt-input.s:4      .text:0000000000001ca8 XT_PROMPTINPUT_DEFAULT
../../shared/words/prompt-input.s:4      .text:0000000000001cac PFA_PROMPTINPUT_DEFAULT
../../shared/words/prompt-ok.s:2      .text:0000000000001cb4 VE_PROMPTOK
../../shared/words/prompt-ok.s:2      .text:0000000000001cc4 PFA_PROMPTOK
../../shared/words/prompt-ok.s:2      *ABS*:0000000080000234 DEFER_RAM_PROMPTOK
../../shared/words/prompt-ok.s:4      .text:0000000000001cd4 XT_PROMPTOKDEFAULT
../../shared/words/prompt-ok.s:4      .text:0000000000001cd8 PFA_PROMPTOKDEFAULT
../../shared/words/prompt-ready.s:2      .text:0000000000001cf4 VE_PROMPTREADY
../../shared/words/prompt-ready.s:2      .text:0000000000001d08 PFA_PROMPTREADY
../../shared/words/prompt-ready.s:2      *ABS*:0000000080000238 DEFER_RAM_PROMPTREADY
../../shared/words/prompt-ready.s:4      .text:0000000000001d18 XT_PROMPTREADYDEFAULT
../../shared/words/prompt-ready.s:4      .text:0000000000001d1c PFA_PROMPTREADYDEFAULT
../../shared/words/catch.s:2      .text:0000000000001d30 VE_HANDLER
../../shared/words/catch.s:2      .text:0000000000001d40 XT_HANDLER
../../shared/words/catch.s:2      .text:0000000000001d44 PFA_HANDLER
../../shared/words/catch.s:4      .text:0000000000001d48 VE_CATCH
../../shared/words/catch.s:4      .text:0000000000001d5c PFA_CATCH
GAS LISTING hifive1.s 			page 160


../../shared/words/throw.s:1      .text:0000000000001d9c VE_THROW
../../shared/words/throw.s:1      .text:0000000000001dac XT_THROW
../../shared/words/throw.s:1      .text:0000000000001db0 PFA_THROW
../../shared/words/throw.s:17     .text:0000000000001dec PFA_THROW1
../../shared/words/source.s:2      .text:0000000000001df0 VE_SOURCE
../../shared/words/source.s:2      .text:0000000000001e00 XT_SOURCE
../../shared/words/source.s:2      .text:0000000000001e04 PFA_SOURCE
../../shared/words/source.s:2      *ABS*:000000008000023c DEFER_RAM_SOURCE
../../shared/words/source.s:4      .text:0000000000001e28 XT_SOURCETIB
../../shared/words/source.s:4      .text:0000000000001e14 VE_SOURCETIB
../../shared/words/source.s:4      .text:0000000000001e2c PFA_SOURCETIB
../../shared/words/q-stack.s:1      .text:0000000000001e3c VE_QSTACK
../../shared/words/q-stack.s:1      .text:0000000000001e4c XT_QSTACK
../../shared/words/q-stack.s:1      .text:0000000000001e50 PFA_QSTACK
../../shared/words/q-stack.s:9      .text:0000000000001e6c PFA_QSTACK1
../../shared/words/cscan.s:2      .text:0000000000001e70 VE_CSCAN
../../shared/words/cscan.s:2      .text:0000000000001e80 XT_CSCAN
../../shared/words/cscan.s:2      .text:0000000000001e84 PFA_CSCAN
../../shared/words/cscan.s:5      .text:0000000000001e8c PFA_CSCAN1
../../shared/words/cscan.s:21     .text:0000000000001ed4 PFA_CSCAN2
../../shared/words/cskip.s:2      .text:0000000000001eec VE_CSKIP
../../shared/words/cskip.s:2      .text:0000000000001efc XT_CSKIP
../../shared/words/cskip.s:2      .text:0000000000001f00 PFA_CSKIP
../../shared/words/cskip.s:5      .text:0000000000001f04 PFA_CSKIP1
../../shared/words/cskip.s:16     .text:0000000000001f3c PFA_CSKIP2
../../shared/words/slash-string.s:2      .text:0000000000002014 XT_SLASHSTRING
../../shared/words/parse-name.s:2      .text:0000000000001f48 VE_PARSENAME
../../shared/words/parse-name.s:2      .text:0000000000001f5c XT_PARSENAME
../../shared/words/parse-name.s:2      .text:0000000000001f60 PFA_PARSENAME
../../shared/words/parse-name.s:7      .text:0000000000001f6c XT_SKIPSCANCHAR
../../shared/words/parse-name.s:7      .text:0000000000001f70 PFA_SKIPSCANCHAR
../../shared/words/parse.s:2      .text:0000000000001fb4 VE_PARSE
../../shared/words/parse.s:2      .text:0000000000001fc8 PFA_PARSE
../../shared/words/slash-string.s:2      .text:0000000000002004 VE_SLASHSTRING
../../shared/words/slash-string.s:2      .text:0000000000002018 PFA_SLASHSTRING
../../shared/words/2literal.s:2      .text:0000000000002034 VE_2LITERAL
../../shared/words/2literal.s:2      .text:0000000000002048 XT_2LITERAL
../../shared/words/2literal.s:2      .text:000000000000204c PFA_2LITERAL
../../shared/words/literal.s:2      .text:000000000000206c XT_LITERAL
../../shared/words/literal.s:2      .text:000000000000205c VE_LITERAL
../../shared/words/literal.s:2      .text:0000000000002070 PFA_LITERAL
../../shared/words/compile.s:2      .text:0000000000002090 XT_COMPILE
../../shared/words/comma.s:2      .text:00000000000020bc XT_COMMA
../../shared/words/compile.s:2      .text:0000000000002080 VE_COMPILE
../../shared/words/compile.s:2      .text:0000000000002094 PFA_COMPILE
../../shared/words/comma.s:2      .text:00000000000020b0 VE_COMMA
../../shared/words/comma.s:2      .text:00000000000020c0 PFA_COMMA
../../shared/words/comma.s:10     .text:00000000000020d8 VE_CCOMMA
../../shared/words/comma.s:10     .text:00000000000020e4 XT_CCOMMA
../../shared/words/comma.s:10     .text:00000000000020e8 PFA_CCOMMA
../../shared/words/immediate-q.s:2      .text:00000000000020fc XT_IMMEDIATEQ
../../shared/words/immediate-q.s:2      .text:0000000000002100 PFA_IMMEDIATEQ
../../shared/words/immediate-q.s:12     .text:0000000000002128 IMMEDIATEQ1
../../shared/words/order.s:2      .text:0000000000002130 VE_CFG_ORDER
../../shared/words/order.s:2      .text:0000000000002144 XT_CFG_ORDER
../../shared/words/order.s:2      .text:0000000000002148 PFA_CFG_ORDER
../../shared/words/ramwordlist.s:2      .text:0000000000003828 XT_RAM_WORDLIST
GAS LISTING hifive1.s 			page 161


../../risc-v/amforth.s:18     .text:0000000000004248 XT_FORTH_WORDLIST
../../risc-v/amforth.s:18     .text:000000000000421c XT_ENVIRONMENT
../../shared/words/find-xt.s:2      .text:0000000000002158 VE_FINDXT
../../shared/words/find-xt.s:2      .text:0000000000002168 XT_FINDXT
../../shared/words/find-xt.s:2      .text:000000000000216c PFA_FINDXT
../../shared/words/find-xt.s:15     .text:0000000000002194 XT_FINDXTA
../../shared/words/map-stack.s:2      .text:0000000000002ae0 XT_MAPSTACK
../../shared/words/find-xt.s:12     .text:0000000000002190 PFA_FINDXT1
../../shared/words/find-xt.s:15     .text:0000000000002198 PFA_FINDXTA
../../shared/words/search-wordlist.s:2      .text:0000000000002304 XT_SEARCH_WORDLIST
../../shared/words/find-xt.s:27     .text:00000000000021cc PFA_FINDXTA1
../../shared/words/nfa2lfa.s:2      .text:00000000000021d0 VE_NFA2LFA
../../shared/words/nfa2lfa.s:2      .text:00000000000021e0 XT_NFA2LFA
../../shared/words/nfa2lfa.s:2      .text:00000000000021e4 PFA_NFA2LFA
../../shared/words/nfa2cfa.s:2      .text:00000000000021f4 VE_NFA2CFA
../../shared/words/nfa2cfa.s:2      .text:0000000000002204 XT_NFA2CFA
../../shared/words/nfa2cfa.s:2      .text:0000000000002208 PFA_NFA2CFA
../../shared/words/traverse-wordlist.s:2      .text:000000000000221c VE_TRAVERSEWORDLIST
../../shared/words/traverse-wordlist.s:2      .text:0000000000002238 XT_TRAVERSEWORDLIST
../../shared/words/traverse-wordlist.s:2      .text:000000000000223c PFA_TRAVERSEWORDLIST
../../shared/words/traverse-wordlist.s:4      .text:000000000000223c PFA_TRAVERSEWORDLIST1
../../shared/words/traverse-wordlist.s:17     .text:0000000000002278 PFA_TRAVERSEWORDLIST2
../../shared/words/show-wordlist.s:2      .text:0000000000002280 VE_SHOWWORDLIST
../../shared/words/show-wordlist.s:2      .text:0000000000002298 XT_SHOWWORDLIST
../../shared/words/show-wordlist.s:2      .text:000000000000229c PFA_SHOWWORDLIST
../../shared/words/show-wordlist.s:9      .text:00000000000022b0 XT_SHOWWORD
../../shared/words/show-wordlist.s:9      .text:00000000000022b4 PFA_SHOWWORD
../../shared/words/name2string.s:2      .text:00000000000023b4 XT_NAME2STRING
../../shared/words/current.s:2      .text:00000000000022c8 VE_CURRENT
../../shared/words/current.s:2      .text:00000000000022d8 XT_CURRENT
../../shared/words/current.s:2      .text:00000000000022dc PFA_CURRENT
../../shared/words/current.s:2      *ABS*:0000000080000240 RAM_CURRENT
../../shared/words/search-wordlist.s:2      .text:00000000000022ec VE_SEARCH_WORDLIST
../../shared/words/search-wordlist.s:2      .text:0000000000002308 PFA_SEARCH_WORDLIST
../../shared/words/search-wordlist.s:25     .text:0000000000002358 XT_ISWORD
../../shared/words/search-wordlist.s:17     .text:0000000000002340 PFA_SEARCH_WORDLIST1
../../shared/words/name2flags.s:1      .text:00000000000023e4 XT_NAME2FLAGS
../../shared/words/search-wordlist.s:25     .text:000000000000235c PFA_ISWORD
../../shared/words/search-wordlist.s:38     .text:0000000000002390 PFA_ISWORD3
../../shared/words/name2string.s:2      .text:00000000000023a0 VE_NAME2STRING
../../shared/words/name2string.s:2      .text:00000000000023b8 PFA_NAME2STRING
../../shared/words/name2flags.s:1      .text:00000000000023d0 VE_NAME2FLAGS
../../shared/words/name2flags.s:1      .text:00000000000023e8 PFA_NAME2FLAGS
../../shared/words/mplus.s:2      .text:00000000000023ec VE_MPLUS
../../shared/words/mplus.s:2      .text:00000000000023f8 XT_MPLUS
../../shared/words/mplus.s:2      .text:00000000000023fc PFA_MPLUS
../../shared/words/ud-star.s:2      .text:0000000000002408 VE_UDSTAR
../../shared/words/ud-star.s:2      .text:0000000000002414 XT_UDSTAR
../../shared/words/ud-star.s:2      .text:0000000000002418 PFA_UDSTAR
../../shared/words/within.s:2      .text:0000000000002440 VE_WITHIN
../../shared/words/within.s:2      .text:0000000000002450 XT_WITHIN
../../shared/words/within.s:2      .text:0000000000002454 PFA_WITHIN
../../shared/words/to-upper.s:2      .text:0000000000002470 VE_TOUPPER
../../shared/words/to-upper.s:2      .text:0000000000002480 XT_TOUPPER
../../shared/words/to-upper.s:2      .text:0000000000002484 PFA_TOUPPER
../../shared/words/to-upper.s:13     .text:00000000000024b0 PFA_TOUPPER0
../../shared/words/digit-q.s:2      .text:00000000000024b4 VE_DIGITQ
GAS LISTING hifive1.s 			page 162


../../shared/words/digit-q.s:2      .text:00000000000024c4 XT_DIGITQ
../../shared/words/digit-q.s:2      .text:00000000000024c8 PFA_DIGITQ
../../shared/words/to-number.s:2      .text:000000000000252c VE_TO_NUMBER
../../shared/words/to-number.s:2      .text:000000000000253c XT_TO_NUMBER
../../shared/words/to-number.s:2      .text:0000000000002540 PFA_TO_NUMBER
../../shared/words/to-number.s:5      .text:0000000000002540 TONUM1
../../shared/words/to-number.s:12     .text:00000000000025a0 TONUM3
../../shared/words/to-number.s:9      .text:000000000000256c TONUM2
../../shared/words/number.s:1      .text:00000000000025a4 VE_NUMBER
../../shared/words/number.s:1      .text:00000000000025b4 XT_NUMBER
../../shared/words/number.s:1      .text:00000000000025b8 PFA_NUMBER
../../shared/words/q-sign.s:2      .text:00000000000026d0 XT_QSIGN
../../shared/words/set-base.s:5      .text:0000000000002744 XT_SET_BASE
../../shared/words/number.s:25     .text:0000000000002610 PFA_NUMBER0
../../shared/words/number.s:57     .text:00000000000026a0 PFA_NUMBER1
../../shared/words/number.s:46     .text:000000000000267c PFA_NUMBER2
../../shared/words/number.s:48     .text:0000000000002680 PFA_NUMBER6
../../shared/words/number.s:43     .text:000000000000266c PFA_NUMBER3
../../shared/words/number.s:64     .text:00000000000026bc PFA_NUMBER5
../../shared/words/number.s:62     .text:00000000000026b4 PFA_NUMBER4
../../shared/words/q-sign.s:2      .text:00000000000026d4 PFA_QSIGN
../../shared/words/q-sign.s:14     .text:0000000000002704 PFA_NUMBERSIGN_DONE
../../shared/words/set-base.s:2      .text:000000000000270c VE_BASES
../../shared/words/set-base.s:2      .text:000000000000271c XT_BASES
../../shared/words/set-base.s:2      .text:0000000000002720 PFA_BASES
../../shared/words/set-base.s:5      .text:0000000000002730 VE_SET_BASE
../../shared/words/set-base.s:5      .text:0000000000002748 PFA_SET_BASE
../../shared/words/set-base.s:26     .text:00000000000027a4 SET_BASE1
../../shared/words/set-base.s:28     .text:00000000000027a8 SET_BASE2
../../shared/words/rec-null.s:2      .text:00000000000027ac VE_RECTYPE_NULL
../../shared/words/rec-null.s:2      .text:00000000000027c4 XT_RECTYPE_NULL
../../shared/words/rec-null.s:2      .text:00000000000027c8 PFA_RECTYPE_NULL
../../shared/words/rec-null.s:7      .text:00000000000027d4 XT_FAIL
../../shared/words/rec-null.s:7      .text:00000000000027d8 PFA_FAIL
../../shared/words/rec-find.s:2      .text:00000000000027e4 VE_REC_FIND
../../shared/words/rec-find.s:2      .text:00000000000027f8 XT_REC_FIND
../../shared/words/rec-find.s:2      .text:00000000000027fc PFA_REC_FIND
../../shared/words/rec-find.s:9      .text:000000000000281c PFA_REC_WORD_FOUND
../../shared/words/rec-find.s:14     .text:0000000000002838 XT_RECTYPE_XT
../../shared/words/rec-find.s:14     .text:0000000000002824 VE_RECTYPE_XT
../../shared/words/rec-find.s:14     .text:000000000000283c PFA_RECTYPE_XT
../../shared/words/rec-find.s:19     .text:0000000000002848 XT_R_WORD_INTERPRET
../../shared/words/rec-find.s:24     .text:0000000000002858 XT_R_WORD_COMPILE
../../shared/words/rec-find.s:19     .text:000000000000284c PFA_R_WORD_INTERPRET
../../shared/words/rec-find.s:24     .text:000000000000285c PFA_R_WORD_COMPILE
../../shared/words/rec-find.s:29     .text:0000000000002870 PFA_R_WORD_COMPILE1
../../shared/words/rec-intnum.s:2      .text:0000000000002878 VE_RECTYPE_NUM
../../shared/words/rec-intnum.s:2      .text:000000000000288c XT_RECTYPE_NUM
../../shared/words/rec-intnum.s:2      .text:0000000000002890 PFA_RECTYPE_NUM
../../shared/words/rec-intnum.s:7      .text:000000000000289c VE_RECTYPE_DNUM
../../shared/words/rec-intnum.s:7      .text:00000000000028b4 XT_RECTYPE_DNUM
../../shared/words/rec-intnum.s:7      .text:00000000000028b8 PFA_RECTYPE_DNUM
../../shared/words/rec-intnum.s:12     .text:00000000000028c4 VE_REC_NUM
../../shared/words/rec-intnum.s:12     .text:00000000000028d4 XT_REC_NUM
../../shared/words/rec-intnum.s:12     .text:00000000000028d8 PFA_REC_NUM
../../shared/words/rec-intnum.s:23     .text:0000000000002908 PFA_REC_NONUMBER
../../shared/words/rec-intnum.s:20     .text:0000000000002900 PFA_REC_INTNUM2
GAS LISTING hifive1.s 			page 163


../../shared/words/rec-split.s:1      .text:0000000000002910 VE_REC_SPLIT
../../shared/words/rec-split.s:1      .text:0000000000002924 XT_REC_SPLIT
../../shared/words/rec-split.s:1      .text:0000000000002928 PFA_REC_SPLIT
../../shared/words/rec-split.s:5      .text:0000000000002948 XT_RECTYPE_SPLIT
../../shared/words/rec-split.s:5      .text:0000000000002930 VE_RECTYPE_SPLIT
../../shared/words/rec-split.s:5      .text:000000000000294c PFA_RECTYPE_SPLIT
../../shared/words/rec-split.s:10     .text:0000000000002968 XT_SPLIT
../../shared/words/rec-split.s:10     .text:0000000000002958 VE_SPLIT
../../shared/words/rec-split.s:10     .text:000000000000296c PFA_SPLIT
../../shared/words/forth-recognizer.s:2      .text:0000000000002980 VE_FORTHRECOGNIZER
../../shared/words/forth-recognizer.s:2      .text:000000000000299c XT_FORTHRECOGNIZER
../../shared/words/forth-recognizer.s:2      .text:00000000000029a0 PFA_FORTHRECOGNIZER
../../shared/words/forth-recognizer.s:2      *ABS*:0000000080000244 RAM_FORTHRECOGNIZER
../../shared/words/forth-recognizer.s:4      .text:00000000000029cc PFA_CFG_RECOGNIZER
../../shared/words/forth-recognizer.s:4      .text:00000000000029b0 VE_CFG_RECOGNIZER
../../shared/words/forth-recognizer.s:4      .text:00000000000029c8 XT_CFG_RECOGNIZER
../../shared/words/recognize.s:2      .text:00000000000029d8 VE_RECOGNIZE
../../shared/words/recognize.s:2      .text:00000000000029ec XT_RECOGNIZE
../../shared/words/recognize.s:2      .text:00000000000029f0 PFA_RECOGNIZE
../../shared/words/recognize.s:15     .text:0000000000002a18 XT_RECOGNIZE_A
../../shared/words/recognize.s:12     .text:0000000000002a14 PFA_RECOGNIZE1
../../shared/words/recognize.s:15     .text:0000000000002a1c PFA_RECOGNIZE_A
../../shared/words/recognize.s:31     .text:0000000000002a5c PFA_RECOGNIZE_A1
../../shared/words/interpret.s:2      .text:0000000000002a6c VE_INTERPRET
../../shared/words/interpret.s:2      .text:0000000000002a84 PFA_INTERPRET
../../shared/words/interpret.s:17     .text:0000000000002ac4 PFA_INTERPRET2
../../shared/words/interpret.s:12     .text:0000000000002ab0 PFA_INTERPRET1
../../shared/words/map-stack.s:2      .text:0000000000002acc VE_MAPSTACK
../../shared/words/map-stack.s:2      .text:0000000000002ae4 PFA_MAPSTACK
../../shared/words/map-stack.s:28     .text:0000000000002b54 PFA_MAPSTACK3
../../shared/words/map-stack.s:11     .text:0000000000002b0c PFA_MAPSTACK1
../../shared/words/map-stack.s:24     .text:0000000000002b40 PFA_MAPSTACK2
../../shared/words/qdo.s:2      .text:0000000000002b60 VE_QDO
../../shared/words/qdo.s:2      .text:0000000000002b6c XT_QDO
../../shared/words/qdo.s:2      .text:0000000000002b70 PFA_QDO
../../shared/words/if.s:2      .text:0000000000002f54 XT_IF
../../shared/words/do.s:2      .text:00000000000033bc XT_DO
../../shared/words/leave.s:15     .text:0000000000003048 XT_TO_L
../../shared/words/qdo.s:11     .text:0000000000002b90 PFA_QDOCHECK
../../shared/words/qdo.s:18     .text:0000000000002bac PFA_QDOCHECK1
../../shared/words/init-ram.s:2      .text:0000000000002bb8 VE_INIT_RAM
../../shared/words/init-ram.s:2      .text:0000000000002bd0 PFA_INIT_RAM
../../shared/words/to-body.s:2      .text:0000000000003710 XT_TO_BODY
../../shared/words/init-ram.s:9      .text:0000000000002c14 XT_DOINITS
../../shared/words/init-ram.s:9      .text:0000000000002c18 PFA_DOINITS
../../shared/words/init-ram.s:17     .text:0000000000002c6c PFA_DOINIT_1
../../shared/words/ver.s:2      .text:0000000000002c78 VE_DOT_VER
../../shared/words/ver.s:2      .text:0000000000002c84 XT_DOT_VER
../../shared/words/ver.s:2      .text:0000000000002c88 PFA_DOT_VER
../../shared/words/env-forthname.s:2      .text:0000000000004168 XT_ENV_FORTHNAME
../../shared/words/env-forthversion.s:2      .text:000000000000418c XT_ENV_FORTHVERSION
   ./words/env-cpu.s:2      .text:00000000000041a8 XT_ENV_CPU
../../shared/words/count.s:2      .text:0000000000002ce0 VE_COUNT
../../shared/words/count.s:2      .text:0000000000002cf4 PFA_COUNT
../../shared/words/type.s:2      .text:0000000000002d08 VE_TYPE
../../shared/words/type.s:2      .text:0000000000002d1c PFA_TYPE
../../shared/words/type.s:10     .text:0000000000002d44 PFA_TYPE_LEAVE
GAS LISTING hifive1.s 			page 164


../../shared/words/type.s:7      .text:0000000000002d30 PFA_TYPE_LOOP
../../shared/words/type.s:13     .text:0000000000002d48 VE_ITYPE
../../shared/words/type.s:13     .text:0000000000002d58 XT_ITYPE
../../shared/words/type.s:13     .text:0000000000002d5c PFA_ITYPE
../../shared/words/squote.s:2      .text:0000000000002d64 VE_SQUOTE
../../shared/words/squote.s:2      .text:0000000000002d70 XT_SQUOTE
../../shared/words/squote.s:2      .text:0000000000002d74 PFA_SQUOTE
../../shared/words/squote.s:10     .text:0000000000002d94 PFA_SQUOTE1
../../shared/words/sliteral.s:2      .text:0000000000002e28 XT_SLITERAL
../../shared/words/dot-quote.s:2      .text:0000000000002d98 VE_DOT_QUOTE
../../shared/words/dot-quote.s:2      .text:0000000000002da4 XT_DOT_QUOTE
../../shared/words/dot-quote.s:2      .text:0000000000002da8 PFA_DOT_QUOTE
../../shared/words/scomma.s:2      .text:0000000000002db8 VE_SCOMMA
../../shared/words/scomma.s:2      .text:0000000000002dc4 XT_SCOMMA
../../shared/words/scomma.s:2      .text:0000000000002dc8 PFA_SCOMMA
../../shared/words/scomma.s:15     .text:0000000000002dfc PFA_SCOMMA2
../../shared/words/scomma.s:8      .text:0000000000002de4 PFA_SCOMMA1
../../shared/words/sliteral.s:2      .text:0000000000002e14 VE_SLITERAL
../../shared/words/sliteral.s:2      .text:0000000000002e2c PFA_SLITERAL
../../shared/words/words.s:2      .text:0000000000002e3c VE_WORDS
../../shared/words/words.s:2      .text:0000000000002e4c XT_WORDS
../../shared/words/words.s:2      .text:0000000000002e50 PFA_WORDS
../../shared/words/l-mark.s:2      .text:0000000000002e5c XT_LMARK
../../shared/words/l-mark.s:2      .text:0000000000002e60 PFA_LMARK
../../shared/words/l-resolve.s:2      .text:0000000000002e68 XT_LRESOLVE
../../shared/words/l-resolve.s:2      .text:0000000000002e6c PFA_LRESOLVE
../../shared/words/g-mark.s:2      .text:0000000000002e78 XT_GMARK
../../shared/words/g-mark.s:2      .text:0000000000002e7c PFA_GMARK
../../shared/words/g-resolve.s:2      .text:0000000000002e8c XT_GRESOLVE
../../shared/words/g-resolve.s:2      .text:0000000000002e90 PFA_GRESOLVE
../../shared/words/ahead.s:2      .text:0000000000002ea4 VE_AHEAD
../../shared/words/ahead.s:2      .text:0000000000002eb4 XT_AHEAD
../../shared/words/ahead.s:2      .text:0000000000002eb8 PFA_AHEAD
../../shared/words/begin.s:2      .text:0000000000002ec8 VE_BEGIN
../../shared/words/begin.s:2      .text:0000000000002ed8 XT_BEGIN
../../shared/words/begin.s:2      .text:0000000000002edc PFA_BEGIN
../../shared/words/then.s:2      .text:0000000000002ee4 VE_THEN
../../shared/words/then.s:2      .text:0000000000002ef4 XT_THEN
../../shared/words/then.s:2      .text:0000000000002ef8 PFA_THEN
../../shared/words/until.s:2      .text:0000000000002f00 VE_UNTIL
../../shared/words/until.s:2      .text:0000000000002f10 XT_UNTIL
../../shared/words/until.s:2      .text:0000000000002f14 PFA_UNTIL
../../shared/words/while.s:2      .text:0000000000002f28 VE_WHILE
../../shared/words/while.s:2      .text:0000000000002f38 XT_WHILE
../../shared/words/while.s:2      .text:0000000000002f3c PFA_WHILE
../../shared/words/if.s:2      .text:0000000000002f48 VE_IF
../../shared/words/if.s:2      .text:0000000000002f58 PFA_IF
../../shared/words/else.s:2      .text:0000000000002f68 VE_ELSE
../../shared/words/else.s:2      .text:0000000000002f78 XT_ELSE
../../shared/words/else.s:2      .text:0000000000002f7c PFA_ELSE
../../shared/words/again.s:2      .text:0000000000002f94 VE_AGAIN
../../shared/words/again.s:2      .text:0000000000002fa4 XT_AGAIN
../../shared/words/again.s:2      .text:0000000000002fa8 PFA_AGAIN
../../shared/words/repeat.s:2      .text:0000000000002fb8 VE_REPEAT
../../shared/words/repeat.s:2      .text:0000000000002fc8 XT_REPEAT
../../shared/words/repeat.s:2      .text:0000000000002fcc PFA_REPEAT
../../shared/words/leave.s:2      .text:0000000000002fd8 VE_LP0
GAS LISTING hifive1.s 			page 165


../../shared/words/leave.s:2      .text:0000000000002fe8 PFA_LP0
../../shared/words/leave.s:2      *ABS*:0000000080000248 RAM_LP0
../../shared/words/leave.s:3      .text:0000000000002ff8 VE_LP
../../shared/words/leave.s:3      .text:0000000000003008 PFA_LP
../../shared/words/leave.s:5      .text:000000000000300c VE_L_FROM
../../shared/words/leave.s:5      .text:0000000000003018 XT_L_FROM
../../shared/words/leave.s:5      .text:000000000000301c PFA_L_FROM
../../shared/words/leave.s:15     .text:000000000000303c VE_TO_L
../../shared/words/leave.s:15     .text:000000000000304c PFA_TO_L
../../shared/words/leave.s:25     .text:000000000000306c VE_LEAVE
../../shared/words/leave.s:25     .text:000000000000307c XT_LEAVE
../../shared/words/leave.s:25     .text:0000000000003080 PFA_LEAVE
../../shared/words/immediate.s:2      .text:0000000000003094 VE_IMMEDIATE
../../shared/words/immediate.s:2      .text:00000000000030a8 XT_IMMEDIATE
../../shared/words/immediate.s:2      .text:00000000000030ac PFA_IMMEDIATE
../../shared/words/get-current.s:2      .text:0000000000003730 XT_GET_CURRENT
../../shared/words/turnkey.s:2      .text:00000000000030d8 VE_TURNKEY
../../shared/words/turnkey.s:2      .text:00000000000030ec PFA_TURNKEY
../../shared/words/turnkey.s:2      *ABS*:0000000080000250 DEFER_RAM_TURNKEY
./words/applturnkey.s:2      .text:0000000000003ca4 XT_APPLTURNKEY
../../shared/words/tick.s:2      .text:00000000000030fc VE_TICK
../../shared/words/tick.s:2      .text:0000000000003108 XT_TICK
../../shared/words/tick.s:2      .text:000000000000310c PFA_TICK
../../shared/words/tick.s:21     .text:0000000000003150 PFA_TICK1
../../shared/words/abort.s:2      .text:0000000000003158 VE_ABORT
../../shared/words/abort.s:2      .text:0000000000003168 XT_ABORT
../../shared/words/abort.s:2      .text:000000000000316c PFA_ABORT
../../shared/words/abort-string.s:2      .text:0000000000003174 VE_ABORTQUOTE
../../shared/words/abort-string.s:2      .text:0000000000003184 XT_ABORTQUOTE
../../shared/words/abort-string.s:2      .text:0000000000003188 PFA_ABORTQUOTE
../../shared/words/q-abort.s:2      .text:0000000000003540 XT_QABORT
../../shared/words/backslash.s:2      .text:0000000000003198 VE_BACKSLASH
../../shared/words/backslash.s:2      .text:00000000000031a4 XT_BACKSLASH
../../shared/words/backslash.s:2      .text:00000000000031a8 PFA_BACKSLASH
../../shared/words/bracketchar.s:2      .text:00000000000031bc VE_BRACKETCHAR
../../shared/words/bracketchar.s:2      .text:00000000000031cc XT_BRACKETCHAR
../../shared/words/bracketchar.s:2      .text:00000000000031d0 PFA_BRACKETCHAR
../../shared/words/char.s:2      .text:000000000000323c XT_CHAR
../../shared/words/bracketcompile.s:2      .text:00000000000031e4 VE_BRACKETCOMPILE
../../shared/words/bracketcompile.s:2      .text:00000000000031f8 XT_BRACKETCOMPILE
../../shared/words/bracketcompile.s:2      .text:00000000000031fc PFA_BRACKETCOMPILE
../../shared/words/brackettick.s:2      .text:0000000000003210 VE_BRACKETTICK
../../shared/words/brackettick.s:2      .text:000000000000321c XT_BRACKETTICK
../../shared/words/brackettick.s:2      .text:0000000000003220 PFA_BRACKETTICK
../../shared/words/char.s:2      .text:000000000000322c VE_CHAR
../../shared/words/char.s:2      .text:0000000000003240 PFA_CHAR
../../shared/words/char.s:6      .text:000000000000325c CHAR_1
../../shared/words/colon-noname.s:2      .text:0000000000003264 VE_COLONNONAME
../../shared/words/colon-noname.s:2      .text:0000000000003274 XT_COLONNONAME
../../shared/words/colon-noname.s:2      .text:0000000000003278 PFA_COLONNONAME
../../shared/words/latest.s:2      .text:0000000000003478 XT_LATEST
../../shared/words/right-bracket.s:2      .text:00000000000035d0 XT_RBRACKET
../../shared/words/constant.s:2      .text:0000000000003298 VE_CONSTANT
../../shared/words/constant.s:2      .text:00000000000032ac XT_CONSTANT
../../shared/words/constant.s:2      .text:00000000000032b0 PFA_CONSTANT
../../shared/words/do-create.s:2      .text:0000000000003378 XT_DOCREATE
../../shared/words/reveal.s:2      .text:0000000000003594 XT_REVEAL
GAS LISTING hifive1.s 			page 166


../../shared/words/create.s:2      .text:00000000000032c8 VE_CREATE
../../shared/words/create.s:2      .text:00000000000032d8 XT_CREATE
../../shared/words/create.s:2      .text:00000000000032dc PFA_CREATE
../../shared/words/defer-fetch.s:2      .text:00000000000032f0 VE_DEFERFETCH
../../shared/words/defer-fetch.s:2      .text:0000000000003300 XT_DEFERFETCH
../../shared/words/defer-fetch.s:2      .text:0000000000003304 PFA_DEFERFETCH
../../shared/words/defer-store.s:2      .text:0000000000003328 VE_DEFERSTORE
../../shared/words/defer-store.s:2      .text:0000000000003338 XT_DEFERSTORE
../../shared/words/defer-store.s:2      .text:000000000000333c PFA_DEFERSTORE
../../shared/words/do-create.s:2      .text:0000000000003364 VE_DOCREATE
../../shared/words/do-create.s:2      .text:000000000000337c PFA_DOCREATE
../../shared/words/wlscope.s:2      .text:00000000000036ec XT_WLSCOPE
../../shared/words/do-create.s:7      .text:000000000000338c XT_DOCREATE_IN
../../shared/words/do-create.s:7      .text:0000000000003390 PFA_DOCREATE_IN
../../shared/words/newest.s:2      .text:00000000000034b4 XT_NEWEST
../../shared/words/header.s:2      .text:0000000000003420 XT_HEADER
../../shared/words/do.s:2      .text:00000000000033b0 VE_DO
../../shared/words/do.s:2      .text:00000000000033c0 PFA_DO
../../shared/words/endloop.s:2      .text:00000000000033d8 VE_ENDLOOP
../../shared/words/endloop.s:2      .text:00000000000033e8 XT_ENDLOOP
../../shared/words/endloop.s:2      .text:00000000000033ec PFA_ENDLOOP
../../shared/words/endloop.s:5      .text:00000000000033f0 ENDLOOP1
../../shared/words/endloop.s:8      .text:000000000000340c ENDLOOP2
../../shared/words/header.s:2      .text:0000000000003410 VE_HEADER
../../shared/words/header.s:2      .text:0000000000003424 PFA_HEADER
../../shared/words/greater-zero.s:2      .text:0000000000003748 XT_GREATERZERO
../../shared/words/header.s:16     .text:000000000000345c PFA_HEADER1
../../shared/words/latest.s:2      .text:0000000000003468 VE_LATEST
../../shared/words/latest.s:2      .text:000000000000347c PFA_LATEST
../../shared/words/loop.s:2      .text:0000000000003480 VE_LOOP
../../shared/words/loop.s:2      .text:0000000000003490 XT_LOOP
../../shared/words/loop.s:2      .text:0000000000003494 PFA_LOOP
../../shared/words/newest.s:2      .text:00000000000034a4 VE_NEWEST
../../shared/words/newest.s:2      .text:00000000000034b8 PFA_NEWEST
../../shared/words/plusloop.s:2      .text:00000000000034bc VE_PLUSLOOP
../../shared/words/plusloop.s:2      .text:00000000000034cc XT_PLUSLOOP
../../shared/words/plusloop.s:2      .text:00000000000034d0 PFA_PLUSLOOP
../../shared/words/postpone.s:2      .text:00000000000034e0 VE_POSTPONE
../../shared/words/postpone.s:2      .text:00000000000034f4 XT_POSTPONE
../../shared/words/postpone.s:2      .text:00000000000034f8 PFA_POSTPONE
../../shared/words/q-abort.s:2      .text:0000000000003530 VE_QABORT
../../shared/words/q-abort.s:2      .text:0000000000003544 PFA_QABORT
../../shared/words/q-abort.s:6      .text:0000000000003558 QABO1
../../shared/words/recurse.s:2      .text:0000000000003560 VE_RECURSE
../../shared/words/recurse.s:2      .text:0000000000003570 XT_RECURSE
../../shared/words/recurse.s:2      .text:0000000000003574 PFA_RECURSE
../../shared/words/reveal.s:2      .text:0000000000003584 VE_REVEAL
../../shared/words/reveal.s:2      .text:0000000000003598 PFA_REVEAL
../../shared/words/reveal.s:6      .text:00000000000035c0 REVEAL1
../../shared/words/to.s:22     .text:0000000000003680 XT_DOTO1
../../shared/words/right-bracket.s:2      .text:00000000000035c4 VE_RBRACKET
../../shared/words/right-bracket.s:2      .text:00000000000035d4 PFA_RBRACKET
../../shared/words/colon.s:2      .text:00000000000035e4 VE_COLON
../../shared/words/colon.s:2      .text:00000000000035f0 XT_COLON
../../shared/words/colon.s:2      .text:00000000000035f4 PFA_COLON
../../shared/words/semicolon.s:2      .text:0000000000003604 VE_SEMICOLON
../../shared/words/semicolon.s:2      .text:0000000000003610 XT_SEMICOLON
GAS LISTING hifive1.s 			page 167


../../shared/words/semicolon.s:2      .text:0000000000003614 PFA_SEMICOLON
../../shared/words/to.s:2      .text:0000000000003628 VE_TO
../../shared/words/to.s:2      .text:0000000000003634 XT_TO
../../shared/words/to.s:2      .text:0000000000003638 PFA_TO
../../shared/words/to.s:22     .text:0000000000003684 PFA_DOTO1
../../shared/words/to.s:13     .text:0000000000003664 PFA_DOTO
../../shared/words/variable.s:2      .text:00000000000036ac VE_VARIABLE
../../shared/words/variable.s:2      .text:00000000000036c0 XT_VARIABLE
../../shared/words/variable.s:2      .text:00000000000036c4 PFA_VARIABLE
../../shared/words/wlscope.s:2      .text:00000000000036dc VE_WLSCOPE
../../shared/words/wlscope.s:2      .text:00000000000036f0 PFA_WLSCOPE
../../shared/words/wlscope.s:2      *ABS*:0000000080000260 DEFER_RAM_WLSCOPE
../../shared/words/to-body.s:2      .text:0000000000003700 VE_TO_BODY
../../shared/words/to-body.s:2      .text:0000000000003714 PFA_TO_BODY
../../shared/words/get-current.s:2      .text:000000000000371c VE_GET_CURRENT
../../shared/words/get-current.s:2      .text:0000000000003734 PFA_GET_CURRENT
../../shared/words/greater-zero.s:2      .text:000000000000373c VE_GREATERZERO
../../shared/words/greater-zero.s:2      .text:000000000000374c PFA_GREATERZERO
../../shared/words/to-in.s:1      .text:0000000000003758 VE_TO_IN
../../shared/words/to-in.s:1      .text:0000000000003768 PFA_TO_IN
../../shared/words/dp.s:2      .text:000000000000376c VE_DP
../../shared/words/dp.s:2      .text:000000000000377c PFA_DP
../../shared/words/dp.s:2      *ABS*:0000000080000268 RAM_DP
                            *ABS*:0000000080000280 HERESTART
../../shared/words/udefer.s:2      .text:000000000000378c VE_UDEFER_FETCH
../../shared/words/udefer.s:2      .text:000000000000379c XT_UDEFER_FETCH
../../shared/words/udefer.s:2      .text:00000000000037a0 PFA_UDEFER_FETCH
../../shared/words/udefer.s:6      .text:00000000000037b0 VE_UDEFER_STORE
../../shared/words/udefer.s:6      .text:00000000000037c0 XT_UDEFER_STORE
../../shared/words/udefer.s:6      .text:00000000000037c4 PFA_UDEFER_STORE
../../shared/words/wordlist.s:2      .text:00000000000037d4 VE_WORDLIST
../../shared/words/wordlist.s:2      .text:00000000000037e8 XT_WORDLIST
../../shared/words/wordlist.s:2      .text:00000000000037ec PFA_WORDLIST
../../shared/words/ramwordlist.s:2      .text:0000000000003810 VE_RAM_WORDLIST
../../shared/words/ramwordlist.s:2      .text:000000000000382c PFA_RAM_WORDLIST
../../shared/words/ramwordlist.s:2      *ABS*:000000008000026c RAM_RAM_WORDLIST
      ./words/gpio.s:5      *ABS*:0000000010012000 GPIOBASE
      ./words/gpio.s:7      *ABS*:0000000010012000 GPIO_VALUE
      ./words/gpio.s:8      *ABS*:0000000010012004 GPIO_INPUT_EN
      ./words/gpio.s:9      *ABS*:0000000010012008 GPIO_OUTPUT_EN
      ./words/gpio.s:10     *ABS*:000000001001200c GPIO_PORT
      ./words/gpio.s:11     *ABS*:0000000010012010 GPIO_PUE
      ./words/gpio.s:12     *ABS*:0000000010012038 GPIO_IOF_EN
      ./words/gpio.s:13     *ABS*:000000001001203c GPIO_IOF_SEL
      ./words/gpio.s:14     *ABS*:0000000010012040 GPIO_OUT_XOR
     ./words/usart.s:1      *ABS*:0000000010013000 UART0BASE
     ./words/usart.s:3      *ABS*:0000000010013000 UART0_TXDATA
     ./words/usart.s:4      *ABS*:0000000010013004 UART0_RXDATA
     ./words/usart.s:5      *ABS*:0000000010013008 UART0_TXCTRL
     ./words/usart.s:6      *ABS*:000000001001300c UART0_RXCTRL
     ./words/usart.s:7      *ABS*:0000000010013010 UART0_IE
     ./words/usart.s:8      *ABS*:0000000010013014 UART0_IP
     ./words/usart.s:9      *ABS*:0000000010013018 UART0_DIV
     ./words/usart.s:11     .text:000000000000383c VE_INIT_USART
     ./words/usart.s:11     .text:000000000000384c XT_INIT_USART
     ./words/usart.s:11     .text:0000000000003850 PFA_INIT_USART
     ./words/usart.s:40     .text:0000000000003894 VE_SERIAL_LASTCHAR
GAS LISTING hifive1.s 			page 168


     ./words/usart.s:40     .text:00000000000038ac XT_SERIAL_LASTCHAR
     ./words/usart.s:40     .text:00000000000038b0 PFA_SERIAL_LASTCHAR
     ./words/usart.s:43     .text:00000000000038b4 VE_SERIAL_KEY
     ./words/usart.s:43     .text:00000000000038cc PFA_SERIAL_KEY
     ./words/usart.s:56     .text:00000000000038f0 VE_SERIAL_KEYQ
     ./words/usart.s:56     .text:0000000000003908 PFA_SERIAL_KEYQ
     ./words/usart.s:83     .text:000000000000394c VE_SERIAL_EMIT
     ./words/usart.s:83     .text:0000000000003964 PFA_SERIAL_EMIT
     ./words/usart.s:86     .text:0000000000003964 SERIAL_EMIT_WAIT
     ./words/usart.s:98     .text:0000000000003984 VE_SERIAL_EMITQ
     ./words/usart.s:98     .text:00000000000039a0 PFA_SERIAL_EMITQ
           ./flash.s:2      .text:00000000000039bc VE_STORE_FLASH
           ./flash.s:2      .text:00000000000039c8 XT_STORE_FLASH
           ./flash.s:2      .text:00000000000039cc PFA_STORE_FLASH
           ./flash.s:5      .text:00000000000039dc VE_CSTORE_FLASH
           ./flash.s:5      .text:00000000000039e8 XT_CSTORE_FLASH
           ./flash.s:5      .text:00000000000039ec PFA_CSTORE_FLASH
           ./flash.s:8      .text:00000000000039fc VE_INFLASHQ
           ./flash.s:8      .text:0000000000003a10 XT_INFLASHQ
           ./flash.s:8      .text:0000000000003a14 PFA_INFLASHQ
           ./flash.s:11     .text:0000000000003a1c VE_CACHEFLUSH
           ./flash.s:11     .text:0000000000003a30 XT_CACHEFLUSH
           ./flash.s:11     .text:0000000000003a34 PFA_CACHEFLUSH
      ./words/leds.s:4      *ABS*:0000000000080000 green
      ./words/leds.s:5      *ABS*:0000000000200000 blue
      ./words/leds.s:6      *ABS*:0000000000400000 red
      ./words/leds.s:8      .text:0000000000003a38 VE_LED_INIT
      ./words/leds.s:8      .text:0000000000003a4c XT_LED_INIT
      ./words/leds.s:8      .text:0000000000003a50 PFA_LED_INIT
      ./words/leds.s:17     .text:0000000000003a74 VE_RED
      ./words/leds.s:17     .text:0000000000003a80 XT_RED
      ./words/leds.s:17     .text:0000000000003a84 PFA_RED
      ./words/leds.s:24     .text:0000000000003a98 VE_GREEN
      ./words/leds.s:24     .text:0000000000003aa8 XT_GREEN
      ./words/leds.s:24     .text:0000000000003aac PFA_GREEN
      ./words/leds.s:30     .text:0000000000003ac0 VE_BLUE
      ./words/leds.s:30     .text:0000000000003ad0 XT_BLUE
      ./words/leds.s:30     .text:0000000000003ad4 PFA_BLUE
      ./words/leds.s:36     .text:0000000000003ae8 VE_WHITE
      ./words/leds.s:36     .text:0000000000003af8 XT_WHITE
      ./words/leds.s:36     .text:0000000000003afc PFA_WHITE
      ./words/leds.s:42     .text:0000000000003b10 VE_YELLOW
      ./words/leds.s:42     .text:0000000000003b20 XT_YELLOW
      ./words/leds.s:42     .text:0000000000003b24 PFA_YELLOW
      ./words/leds.s:48     .text:0000000000003b38 VE_CYAN
      ./words/leds.s:48     .text:0000000000003b48 XT_CYAN
      ./words/leds.s:48     .text:0000000000003b4c PFA_CYAN
      ./words/leds.s:54     .text:0000000000003b60 VE_MAGENTA
      ./words/leds.s:54     .text:0000000000003b70 XT_MAGENTA
      ./words/leds.s:54     .text:0000000000003b74 PFA_MAGENTA
      ./words/leds.s:60     .text:0000000000003b88 VE_BLACK
      ./words/leds.s:60     .text:0000000000003b98 XT_BLACK
      ./words/leds.s:60     .text:0000000000003b9c PFA_BLACK
     ./words/mtime.s:2      *ABS*:0000000002000000 CLINT_CTRL_ADDR
     ./words/mtime.s:3      *ABS*:000000000000bff8 CLINT_MTIME
     ./words/mtime.s:4      *ABS*:0000000000004000 CLINT_MTIMECMP
     ./words/mtime.s:6      .text:0000000000003bb0 VE_MTIME
GAS LISTING hifive1.s 			page 169


     ./words/mtime.s:6      .text:0000000000003bc0 XT_MTIME
     ./words/mtime.s:6      .text:0000000000003bc4 PFA_MTIME
     ./words/mtime.s:11     .text:0000000000003bd4 VE_MTIMECMP
     ./words/mtime.s:11     .text:0000000000003be8 XT_MTIMECMP
     ./words/mtime.s:11     .text:0000000000003bec PFA_MTIMECMP
 ./words/env-board.s:2      .text:0000000000003bf8 VE_ENV_BOARD
 ./words/env-board.s:2      .text:0000000000003c08 XT_ENV_BOARD
 ./words/env-board.s:2      .text:0000000000003c0c PFA_ENV_BOARD
./words/build-info.s:2      .text:0000000000003c24 VE_BUILD_INFO
./words/build-info.s:2      .text:0000000000003c38 XT_BUILD_INFO
./words/build-info.s:2      .text:0000000000003c3c PFA_BUILD_INFO
./words/build-info.s:6      .text:0000000000003c64 VE_REV_INFO
./words/build-info.s:6      .text:0000000000003c78 XT_REV_INFO
./words/build-info.s:6      .text:0000000000003c7c PFA_REV_INFO
./words/applturnkey.s:2      .text:0000000000003c8c VE_APPLTURNKEY
./words/applturnkey.s:2      .text:0000000000003ca8 PFA_APPLTURNKEY
     ./words/type0.s:2      .text:0000000000003ce0 VE_TYPE0
     ./words/type0.s:2      .text:0000000000003cf0 XT_TYPE0
     ./words/type0.s:2      .text:0000000000003cf4 PFA_TYPE0
     ./words/type0.s:4      .text:0000000000003cf4 PFA_TYPE0_LOOP
     ./words/type0.s:9      .text:0000000000003d40 PFA_TYPE0_LEAVE
     ./words/type0.s:7      .text:0000000000003d30 PFA_TYPE0_1
../../shared/words/dump.s:12     .text:0000000000003d48 VE_QASCII
../../shared/words/dump.s:12     .text:0000000000003d58 XT_QASCII
../../shared/words/dump.s:12     .text:0000000000003d5c PFA_QASCII
../../shared/words/dump.s:17     .text:0000000000003d88 PFA_QASCII1
../../shared/words/dump.s:21     .text:0000000000003dac PFA_QASCII2
../../shared/words/dump.s:25     .text:0000000000003db0 VE_DOT2HEX
../../shared/words/dump.s:25     .text:0000000000003dc0 XT_DOT2HEX
../../shared/words/dump.s:25     .text:0000000000003dc4 PFA_DOT2HEX
../../shared/words/dump.s:34     .text:0000000000003dfc VE_DOT4HEX
../../shared/words/dump.s:34     .text:0000000000003e0c XT_DOT4HEX
../../shared/words/dump.s:34     .text:0000000000003e10 PFA_DOT4HEX
../../shared/words/dump.s:41     .text:0000000000003e50 VE_DOT8HEX
../../shared/words/dump.s:41     .text:0000000000003e60 XT_DOT8HEX
../../shared/words/dump.s:41     .text:0000000000003e64 PFA_DOT8HEX
../../shared/words/dump.s:59     .text:0000000000003eb4 VE_DUMP
../../shared/words/dump.s:59     .text:0000000000003ec4 XT_DUMP
../../shared/words/dump.s:59     .text:0000000000003ec8 PFA_DUMP
../../shared/words/dump.s:62     .text:0000000000003ee8 PFA_DUMP0
../../shared/words/dump.s:65     .text:0000000000003f04 PFA_DUMP1
../../shared/words/dump.s:67     .text:0000000000003f24 PFA_DUMP2
../../shared/words/dump.s:70     .text:0000000000003f3c PFA_DUMP3
../../shared/words/dump.s:72     .text:0000000000003f5c PFA_DUMP4
../../shared/words/dump.s:75     .text:0000000000003f6c PFA_DUMP5
       ./words/csr.s:3      .text:0000000000003f84 VE_CSR_ustatus
       ./words/csr.s:3      .text:0000000000003f94 XT_CSR_ustatus
       ./words/csr.s:3      .text:0000000000003f98 PFA_CSR_ustatus
       ./words/csr.s:4      .text:0000000000003fa8 VE_CSR_uie
       ./words/csr.s:4      .text:0000000000003fb4 XT_CSR_uie
       ./words/csr.s:4      .text:0000000000003fb8 PFA_CSR_uie
       ./words/csr.s:5      .text:0000000000003fc8 VE_CSR_utvec
       ./words/csr.s:5      .text:0000000000003fd8 XT_CSR_utvec
       ./words/csr.s:5      .text:0000000000003fdc PFA_CSR_utvec
       ./words/csr.s:6      .text:0000000000003fec VE_CSR_uscratch
       ./words/csr.s:6      .text:0000000000004000 XT_CSR_uscratch
       ./words/csr.s:6      .text:0000000000004004 PFA_CSR_uscratch
GAS LISTING hifive1.s 			page 170


       ./words/csr.s:7      .text:0000000000004014 VE_CSR_uepc
       ./words/csr.s:7      .text:0000000000004024 XT_CSR_uepc
       ./words/csr.s:7      .text:0000000000004028 PFA_CSR_uepc
       ./words/csr.s:8      .text:0000000000004038 VE_CSR_ucause
       ./words/csr.s:8      .text:0000000000004048 XT_CSR_ucause
       ./words/csr.s:8      .text:000000000000404c PFA_CSR_ucause
       ./words/csr.s:9      .text:000000000000405c VE_CSR_ubadaddress
       ./words/csr.s:9      .text:0000000000004070 XT_CSR_ubadaddress
       ./words/csr.s:9      .text:0000000000004074 PFA_CSR_ubadaddress
       ./words/csr.s:11     .text:0000000000004084 VE_CSR_mstatus
       ./words/csr.s:11     .text:0000000000004094 XT_CSR_mstatus
       ./words/csr.s:11     .text:0000000000004098 PFA_CSR_mstatus
       ./words/csr.s:12     .text:00000000000040a8 VE_CSR_misa
       ./words/csr.s:12     .text:00000000000040b8 XT_CSR_misa
       ./words/csr.s:12     .text:00000000000040bc PFA_CSR_misa
       ./words/csr.s:13     .text:00000000000040cc VE_CSR_mcause
       ./words/csr.s:13     .text:00000000000040dc XT_CSR_mcause
       ./words/csr.s:13     .text:00000000000040e0 PFA_CSR_mcause
       ./words/csr.s:15     .text:00000000000040f0 VE_CSR_mcycle
       ./words/csr.s:15     .text:0000000000004100 XT_CSR_mcycle
       ./words/csr.s:15     .text:0000000000004104 PFA_CSR_mcycle
       ./words/csr.s:16     .text:0000000000004114 VE_CSR_mcycleh
       ./words/csr.s:16     .text:0000000000004124 XT_CSR_mcycleh
       ./words/csr.s:16     .text:0000000000004128 PFA_CSR_mcycleh
       ./words/csr.s:18     .text:0000000000004138 VE_FETCH_CYCLE
       ./words/csr.s:18     .text:0000000000004148 XT_FETCH_CYCLE
       ./words/csr.s:18     .text:000000000000414c PFA_FETCH_CYCLE
../../shared/words/env-forthname.s:2      .text:0000000000004158 VE_ENV_FORTHNAME
../../shared/words/env-forthname.s:2      .text:000000000000416c PFA_ENV_FORTHNAME
../../shared/words/env-forthversion.s:2      .text:000000000000417c VE_ENV_FORTHVERSION
../../shared/words/env-forthversion.s:2      .text:0000000000004190 PFA_ENV_FORTHVERSION
   ./words/env-cpu.s:2      .text:000000000000419c VE_ENV_CPU
   ./words/env-cpu.s:2      .text:00000000000041ac PFA_ENV_CPU
../../shared/words/env-usersize.s:2      .text:00000000000041bc VE_ENV_SLASH_USER
../../shared/words/env-usersize.s:2      .text:00000000000041cc XT_ENV_SLASH_USER
../../shared/words/env-usersize.s:2      .text:00000000000041d0 PFA_ENV_SLASH_USER
../../risc-v/amforth.s:18     .text:00000000000041dc VE_RISCV_WORDLIST
../../risc-v/amforth.s:18     .text:00000000000041f4 XT_RISCV_WORDLIST
../../risc-v/amforth.s:18     .text:00000000000041f8 PFA_RISCV_WORDLIST
../../risc-v/amforth.s:18     *ABS*:0000000080000274 RAM_RISCV_WORDLIST
../../risc-v/amforth.s:18     .text:0000000000004208 VE_ENVIRONMENT
../../risc-v/amforth.s:18     .text:0000000000004220 PFA_ENVIRONMENT
../../risc-v/amforth.s:18     *ABS*:0000000080000278 RAM_ENVIRONMENT
../../risc-v/amforth.s:18     .text:0000000000004230 VE_FORTH_WORDLIST
../../risc-v/amforth.s:18     .text:000000000000424c PFA_FORTH_WORDLIST
../../risc-v/amforth.s:18     *ABS*:000000008000027c RAM_FORTH_WORDLIST
../../risc-v/amforth.s:18     .text:0000000000004234 DPSTART
../../risc-v/amforth.s:18     .text:0000000000004234 .L99311
../../risc-v/amforth.s:12     .text:0000000000000008 .L991
../../risc-v/words/exit.s:2      .text:0000000000000015 .L81
../../risc-v/words/exit.s:2      .text:0000000000000011 .L71
../../risc-v/words/exit.s:2      .text:000000000000000c .L992
../../risc-v/words/drop.s:2      .text:0000000000000035 .L82
../../risc-v/words/drop.s:2      .text:0000000000000031 .L72
../../risc-v/words/drop.s:2      .text:000000000000002c .L993
../../risc-v/words/swap.s:1      .text:0000000000000055 .L83
../../risc-v/words/swap.s:1      .text:0000000000000051 .L73
GAS LISTING hifive1.s 			page 171


../../risc-v/words/swap.s:1      .text:000000000000004c .L994
../../risc-v/words/dup.s:2      .text:0000000000000078 .L84
../../risc-v/words/dup.s:2      .text:0000000000000075 .L74
../../risc-v/words/dup.s:2      .text:0000000000000070 .L995
../../risc-v/words/nip.s:1      .text:0000000000000094 .L85
../../risc-v/words/nip.s:1      .text:0000000000000091 .L75
../../risc-v/words/nip.s:1      .text:000000000000008c .L996
../../risc-v/words/over.s:1      .text:00000000000000ad .L86
../../risc-v/words/over.s:1      .text:00000000000000a9 .L76
../../risc-v/words/over.s:1      .text:00000000000000a4 .L997
../../risc-v/words/rot.s:2      .text:00000000000000d0 .L87
../../risc-v/words/rot.s:2      .text:00000000000000cd .L77
../../risc-v/words/rot.s:2      .text:00000000000000c8 .L998
../../risc-v/words/q-dup.s:2      .text:00000000000000f9 .L88
../../risc-v/words/q-dup.s:2      .text:00000000000000f5 .L78
../../risc-v/words/q-dup.s:2      .text:00000000000000f0 .L999
../../risc-v/words/tuck.s:2      .text:000000000000011d .L89
../../risc-v/words/tuck.s:2      .text:0000000000000119 .L79
../../risc-v/words/tuck.s:2      .text:0000000000000114 .L9910
../../risc-v/words/m-rot.s:2      .text:0000000000000145 .L810
../../risc-v/words/m-rot.s:2      .text:0000000000000141 .L710
../../risc-v/words/m-rot.s:2      .text:000000000000013c .L9911
../../risc-v/words/pick.s:2      .text:0000000000000171 .L811
../../risc-v/words/pick.s:2      .text:000000000000016d .L711
../../risc-v/words/pick.s:2      .text:0000000000000168 .L9912
../../risc-v/words/to-r.s:1      .text:0000000000000193 .L812
../../risc-v/words/to-r.s:1      .text:0000000000000191 .L712
../../risc-v/words/to-r.s:1      .text:000000000000018c .L9913
../../risc-v/words/r-from.s:1      .text:00000000000001af .L813
../../risc-v/words/r-from.s:1      .text:00000000000001ad .L713
../../risc-v/words/r-from.s:1      .text:00000000000001a8 .L9914
../../risc-v/words/r-fetch.s:2      .text:00000000000001d3 .L814
../../risc-v/words/r-fetch.s:2      .text:00000000000001d1 .L714
../../risc-v/words/r-fetch.s:2      .text:00000000000001cc .L9915
../../risc-v/words/rp.s:2      .text:00000000000001f4 .L815
../../risc-v/words/rp.s:2      .text:00000000000001f1 .L715
../../risc-v/words/rp.s:2      .text:00000000000001ec .L9916
../../risc-v/words/rp.s:8      .text:0000000000000214 .L816
../../risc-v/words/rp.s:8      .text:0000000000000211 .L716
../../risc-v/words/rp.s:8      .text:000000000000020c .L9917
../../risc-v/words/rp.s:14     .text:0000000000000233 .L817
../../risc-v/words/rp.s:14     .text:0000000000000231 .L717
../../risc-v/words/rp.s:14     .text:000000000000022c .L9918
../../risc-v/words/sp.s:2      .text:0000000000000248 .L818
../../risc-v/words/sp.s:2      .text:0000000000000245 .L718
../../risc-v/words/sp.s:2      .text:0000000000000240 .L9919
../../risc-v/words/sp.s:8      .text:0000000000000268 .L819
../../risc-v/words/sp.s:8      .text:0000000000000265 .L719
../../risc-v/words/sp.s:8      .text:0000000000000260 .L9920
../../risc-v/words/sp.s:15     .text:0000000000000287 .L820
../../risc-v/words/sp.s:15     .text:0000000000000285 .L720
../../risc-v/words/sp.s:15     .text:0000000000000280 .L9921
../../risc-v/words/sp.s:16     .text:000000000000029c .L821
../../risc-v/words/sp.s:16     .text:0000000000000299 .L721
../../risc-v/words/sp.s:16     .text:0000000000000294 .L9922
../../risc-v/words/fetch.s:2      .text:00000000000002ae .L822
../../risc-v/words/fetch.s:2      .text:00000000000002ad .L722
GAS LISTING hifive1.s 			page 172


../../risc-v/words/fetch.s:2      .text:00000000000002a8 .L9923
../../risc-v/words/store.s:1      .text:00000000000002c6 .L823
../../risc-v/words/store.s:1      .text:00000000000002c5 .L723
../../risc-v/words/store.s:1      .text:00000000000002c0 .L9924
../../risc-v/words/negate.s:2      .text:00000000000002ef .L824
../../risc-v/words/negate.s:2      .text:00000000000002e9 .L724
../../risc-v/words/negate.s:2      .text:00000000000002e4 .L9925
../../risc-v/words/abs.s:2      .text:000000000000030c .L825
../../risc-v/words/abs.s:2      .text:0000000000000309 .L725
../../risc-v/words/abs.s:2      .text:0000000000000304 .L9926
../../risc-v/words/multiplydivide.s:7      .text:000000000000032a .L826
../../risc-v/words/multiplydivide.s:7      .text:0000000000000329 .L726
../../risc-v/words/multiplydivide.s:7      .text:0000000000000324 .L9927
../../risc-v/words/multiplydivide.s:15     .text:000000000000034c .L827
../../risc-v/words/multiplydivide.s:15     .text:0000000000000349 .L727
../../risc-v/words/multiplydivide.s:15     .text:0000000000000344 .L9928
../../risc-v/words/multiplydivide.s:24     .text:000000000000036f .L828
../../risc-v/words/multiplydivide.s:24     .text:000000000000036d .L728
../../risc-v/words/multiplydivide.s:24     .text:0000000000000368 .L9929
../../risc-v/words/multiplydivide.s:33     .text:0000000000000392 .L829
../../risc-v/words/multiplydivide.s:33     .text:0000000000000391 .L729
../../risc-v/words/multiplydivide.s:33     .text:000000000000038c .L9930
../../risc-v/words/multiplydivide.s:41     .text:00000000000003b4 .L830
../../risc-v/words/multiplydivide.s:41     .text:00000000000003b1 .L730
../../risc-v/words/multiplydivide.s:41     .text:00000000000003ac .L9931
../../risc-v/words/multiplydivide.s:49     .text:00000000000003d6 .L831
../../risc-v/words/multiplydivide.s:49     .text:00000000000003d1 .L731
../../risc-v/words/multiplydivide.s:49     .text:00000000000003cc .L9932
../../risc-v/words/multiplydivide.s:58     .text:00000000000003fd .L832
../../risc-v/words/multiplydivide.s:58     .text:00000000000003f9 .L732
../../risc-v/words/multiplydivide.s:58     .text:00000000000003f4 .L9933
../../risc-v/words/stack.s:4      .text:0000000000000426 .L833
../../risc-v/words/stack.s:4      .text:0000000000000421 .L733
../../risc-v/words/stack.s:4      .text:000000000000041c .L9934
../../risc-v/words/stack.s:15     .text:0000000000000457 .L834
../../risc-v/words/stack.s:15     .text:0000000000000451 .L734
../../risc-v/words/stack.s:15     .text:000000000000044c .L9935
../../risc-v/words/stack.s:26     .text:0000000000000486 .L835
../../risc-v/words/stack.s:26     .text:0000000000000481 .L735
../../risc-v/words/stack.s:26     .text:000000000000047c .L9936
../../risc-v/words/logic.s:4      .text:00000000000004a0 .L836
../../risc-v/words/logic.s:4      .text:000000000000049d .L736
../../risc-v/words/logic.s:4      .text:0000000000000498 .L9937
../../risc-v/words/logic.s:13     .text:00000000000004bf .L837
../../risc-v/words/logic.s:13     .text:00000000000004bd .L737
../../risc-v/words/logic.s:13     .text:00000000000004b8 .L9938
../../risc-v/words/logic.s:22     .text:00000000000004e0 .L838
../../risc-v/words/logic.s:22     .text:00000000000004dd .L738
../../risc-v/words/logic.s:22     .text:00000000000004d8 .L9939
../../risc-v/words/logic.s:31     .text:0000000000000500 .L839
../../risc-v/words/logic.s:31     .text:00000000000004fd .L739
../../risc-v/words/logic.s:31     .text:00000000000004f8 .L9940
../../risc-v/words/logic.s:37     .text:000000000000051b .L840
../../risc-v/words/logic.s:37     .text:0000000000000515 .L740
../../risc-v/words/logic.s:37     .text:0000000000000510 .L9941
../../risc-v/words/logic.s:43     .text:0000000000000537 .L841
../../risc-v/words/logic.s:43     .text:0000000000000531 .L741
GAS LISTING hifive1.s 			page 173


../../risc-v/words/logic.s:43     .text:000000000000052c .L9942
../../risc-v/words/logic.s:50     .text:000000000000055b .L842
../../risc-v/words/logic.s:50     .text:0000000000000555 .L742
../../risc-v/words/logic.s:50     .text:0000000000000550 .L9943
../../risc-v/words/memory.s:4      .text:000000000000057d .L843
../../risc-v/words/memory.s:4      .text:0000000000000579 .L743
../../risc-v/words/memory.s:4      .text:0000000000000574 .L9944
../../risc-v/words/memory.s:56     .text:0000000000000615 .L844
../../risc-v/words/memory.s:56     .text:0000000000000611 .L744
../../risc-v/words/memory.s:56     .text:000000000000060c .L9945
../../risc-v/words/memory.s:89     .text:000000000000066f .L845
../../risc-v/words/memory.s:89     .text:000000000000066d .L745
../../risc-v/words/memory.s:89     .text:0000000000000668 .L9946
../../risc-v/words/memory.s:101    .text:000000000000069b .L846
../../risc-v/words/memory.s:101    .text:0000000000000699 .L746
../../risc-v/words/memory.s:101    .text:0000000000000694 .L9947
../../risc-v/words/memory.s:108    .text:00000000000006b3 .L847
../../risc-v/words/memory.s:108    .text:00000000000006b1 .L747
../../risc-v/words/memory.s:108    .text:00000000000006ac .L9948
../../risc-v/words/comparisions.s:4      .text:00000000000006f7 .L848
../../risc-v/words/comparisions.s:4      .text:00000000000006f5 .L748
../../risc-v/words/comparisions.s:4      .text:00000000000006f0 .L9949
../../risc-v/words/comparisions.s:13     .text:0000000000000718 .L849
../../risc-v/words/comparisions.s:13     .text:0000000000000715 .L749
../../risc-v/words/comparisions.s:13     .text:0000000000000710 .L9950
../../risc-v/words/comparisions.s:20     .text:0000000000000733 .L850
../../risc-v/words/comparisions.s:20     .text:0000000000000731 .L750
../../risc-v/words/comparisions.s:20     .text:000000000000072c .L9951
../../risc-v/words/comparisions.s:26     .text:000000000000074b .L851
../../risc-v/words/comparisions.s:26     .text:0000000000000749 .L751
../../risc-v/words/comparisions.s:26     .text:0000000000000744 .L9952
../../risc-v/words/comparisions.s:35     .text:000000000000076f .L852
../../risc-v/words/comparisions.s:35     .text:000000000000076d .L752
../../risc-v/words/comparisions.s:35     .text:0000000000000768 .L9953
../../risc-v/words/comparisions.s:44     .text:0000000000000792 .L853
../../risc-v/words/comparisions.s:44     .text:0000000000000791 .L753
../../risc-v/words/comparisions.s:44     .text:000000000000078c .L9954
../../risc-v/words/comparisions.s:55     .text:00000000000007ba .L854
../../risc-v/words/comparisions.s:55     .text:00000000000007b9 .L754
../../risc-v/words/comparisions.s:55     .text:00000000000007b4 .L9955
../../risc-v/words/comparisions.s:66     .text:00000000000007e4 .L855
../../risc-v/words/comparisions.s:66     .text:00000000000007e1 .L755
../../risc-v/words/comparisions.s:66     .text:00000000000007dc .L9956
../../risc-v/words/comparisions.s:75     .text:0000000000000808 .L856
../../risc-v/words/comparisions.s:75     .text:0000000000000805 .L756
../../risc-v/words/comparisions.s:75     .text:0000000000000800 .L9957
../../risc-v/words/comparisions.s:84     .text:000000000000082b .L857
../../risc-v/words/comparisions.s:84     .text:0000000000000829 .L757
../../risc-v/words/comparisions.s:84     .text:0000000000000824 .L9958
../../risc-v/words/comparisions.s:94     .text:0000000000000853 .L858
../../risc-v/words/comparisions.s:94     .text:0000000000000851 .L758
../../risc-v/words/comparisions.s:94     .text:000000000000084c .L9959
../../risc-v/words/comparisions.s:104    .text:000000000000087b .L859
../../risc-v/words/comparisions.s:104    .text:0000000000000879 .L759
../../risc-v/words/comparisions.s:104    .text:0000000000000874 .L9960
../../risc-v/words/comparisions.s:116    .text:00000000000008a2 .L860
../../risc-v/words/comparisions.s:116    .text:00000000000008a1 .L760
GAS LISTING hifive1.s 			page 174


../../risc-v/words/comparisions.s:116    .text:000000000000089c .L9961
../../risc-v/words/comparisions.s:129    .text:00000000000008d0 .L861
../../risc-v/words/comparisions.s:129    .text:00000000000008cd .L761
../../risc-v/words/comparisions.s:129    .text:00000000000008c8 .L9962
../../risc-v/words/comparisions.s:139    .text:00000000000008f4 .L862
../../risc-v/words/comparisions.s:139    .text:00000000000008f1 .L762
../../risc-v/words/comparisions.s:139    .text:00000000000008ec .L9963
../../risc-v/words/comparisions.s:149    .text:0000000000000919 .L863
../../risc-v/words/comparisions.s:149    .text:0000000000000915 .L763
../../risc-v/words/comparisions.s:149    .text:0000000000000910 .L9964
../../risc-v/words/comparisions.s:158    .text:0000000000000941 .L864
../../risc-v/words/comparisions.s:158    .text:000000000000093d .L764
../../risc-v/words/comparisions.s:158    .text:0000000000000938 .L9965
../../risc-v/words/2swap.s:2      .text:000000000000096a .L865
../../risc-v/words/2swap.s:2      .text:0000000000000965 .L765
../../risc-v/words/2swap.s:2      .text:0000000000000960 .L9966
../../risc-v/words/2nip.s:2      .text:000000000000099d .L866
../../risc-v/words/2nip.s:2      .text:0000000000000999 .L766
../../risc-v/words/2nip.s:2      .text:0000000000000994 .L9967
../../risc-v/words/2drop.s:1      .text:00000000000009c2 .L867
../../risc-v/words/2drop.s:1      .text:00000000000009bd .L767
../../risc-v/words/2drop.s:1      .text:00000000000009b8 .L9968
../../risc-v/words/2over.s:2      .text:00000000000009e2 .L868
../../risc-v/words/2over.s:2      .text:00000000000009dd .L768
../../risc-v/words/2over.s:2      .text:00000000000009d8 .L9969
../../risc-v/words/2r-fetch.s:1      .text:0000000000000a10 .L869
../../risc-v/words/2r-fetch.s:1      .text:0000000000000a0d .L769
../../risc-v/words/2r-fetch.s:1      .text:0000000000000a08 .L9970
../../risc-v/words/2to-r.s:2      .text:0000000000000a3c .L870
../../risc-v/words/2to-r.s:2      .text:0000000000000a39 .L770
../../risc-v/words/2to-r.s:2      .text:0000000000000a34 .L9971
../../risc-v/words/2r-from.s:2      .text:0000000000000a74 .L871
../../risc-v/words/2r-from.s:2      .text:0000000000000a71 .L771
../../risc-v/words/2r-from.s:2      .text:0000000000000a6c .L9972
../../risc-v/words/d-2star.s:2      .text:0000000000000aac .L872
../../risc-v/words/d-2star.s:2      .text:0000000000000aa9 .L772
../../risc-v/words/d-2star.s:2      .text:0000000000000aa4 .L9973
../../risc-v/words/d-2slash.s:2      .text:0000000000000ad8 .L873
../../risc-v/words/d-2slash.s:2      .text:0000000000000ad5 .L773
../../risc-v/words/d-2slash.s:2      .text:0000000000000ad0 .L9974
../../shared/words/dabs.s:1      .text:0000000000000b05 .L874
../../shared/words/dabs.s:1      .text:0000000000000b01 .L774
../../shared/words/dabs.s:1      .text:0000000000000afc .L9975
../../risc-v/words/dnegate.s:2      .text:0000000000000b34 .L875
../../risc-v/words/dnegate.s:2      .text:0000000000000b2d .L775
../../risc-v/words/dnegate.s:2      .text:0000000000000b28 .L9976
../../risc-v/words/d-plus.s:2      .text:0000000000000b6f .L876
../../risc-v/words/d-plus.s:2      .text:0000000000000b6d .L776
../../risc-v/words/d-plus.s:2      .text:0000000000000b68 .L9977
../../risc-v/words/d-minus.s:10     .text:0000000000000bb7 .L877
../../risc-v/words/d-minus.s:10     .text:0000000000000bb5 .L777
../../risc-v/words/d-minus.s:10     .text:0000000000000bb0 .L9978
../../risc-v/words/2dup.s:1      .text:0000000000000c01 .L878
../../risc-v/words/2dup.s:1      .text:0000000000000bfd .L778
../../risc-v/words/2dup.s:1      .text:0000000000000bf8 .L9979
../../risc-v/words/double.s:3      .text:0000000000000c28 .L879
../../risc-v/words/double.s:3      .text:0000000000000c25 .L779
GAS LISTING hifive1.s 			page 175


../../risc-v/words/double.s:3      .text:0000000000000c20 .L9980
../../risc-v/words/double.s:10     .text:0000000000000c4b .L880
../../risc-v/words/double.s:10     .text:0000000000000c45 .L780
../../risc-v/words/double.s:10     .text:0000000000000c40 .L9981
../../risc-v/words/double.s:17     .text:0000000000000c73 .L881
../../risc-v/words/double.s:17     .text:0000000000000c6d .L781
../../risc-v/words/double.s:17     .text:0000000000000c68 .L9982
../../risc-v/words/double.s:129    .text:0000000000000dbc .L882
../../risc-v/words/double.s:129    .text:0000000000000db9 .L782
../../risc-v/words/double.s:129    .text:0000000000000db4 .L9983
../../risc-v/words/double.s:136    .text:0000000000000dd8 .L883
../../risc-v/words/double.s:136    .text:0000000000000dd5 .L783
../../risc-v/words/double.s:136    .text:0000000000000dd0 .L9984
../../shared/words/base.s:1      .text:0000000000000e05 .L884
../../shared/words/base.s:1      .text:0000000000000e01 .L784
../../shared/words/base.s:1      .text:0000000000000dfc .L9985
../../risc-v/words/plus.s:2      .text:0000000000000e1a .L885
../../risc-v/words/plus.s:2      .text:0000000000000e19 .L785
../../risc-v/words/plus.s:2      .text:0000000000000e14 .L9986
../../risc-v/words/minus.s:2      .text:0000000000000e3a .L886
../../risc-v/words/minus.s:2      .text:0000000000000e39 .L786
../../risc-v/words/minus.s:2      .text:0000000000000e34 .L9987
../../risc-v/words/1-plus.s:2      .text:0000000000000e5b .L887
../../risc-v/words/1-plus.s:2      .text:0000000000000e59 .L787
../../risc-v/words/1-plus.s:2      .text:0000000000000e54 .L9988
../../risc-v/words/1-minus.s:2      .text:0000000000000e73 .L888
../../risc-v/words/1-minus.s:2      .text:0000000000000e71 .L788
../../risc-v/words/1-minus.s:2      .text:0000000000000e6c .L9989
../../risc-v/words/2-plus.s:2      .text:0000000000000e8b .L889
../../risc-v/words/2-plus.s:2      .text:0000000000000e89 .L789
../../risc-v/words/2-plus.s:2      .text:0000000000000e84 .L9990
../../risc-v/words/2-minus.s:2      .text:0000000000000ea3 .L890
../../risc-v/words/2-minus.s:2      .text:0000000000000ea1 .L790
../../risc-v/words/2-minus.s:2      .text:0000000000000e9c .L9991
../../risc-v/words/2-star.s:2      .text:0000000000000ebb .L891
../../risc-v/words/2-star.s:2      .text:0000000000000eb9 .L791
../../risc-v/words/2-star.s:2      .text:0000000000000eb4 .L9992
../../risc-v/words/2-slash.s:2      .text:0000000000000ed3 .L892
../../risc-v/words/2-slash.s:2      .text:0000000000000ed1 .L792
../../risc-v/words/2-slash.s:2      .text:0000000000000ecc .L9993
../../risc-v/words/cell-plus.s:2      .text:0000000000000eee .L893
../../risc-v/words/cell-plus.s:2      .text:0000000000000ee9 .L793
../../risc-v/words/cell-plus.s:2      .text:0000000000000ee4 .L9994
../../risc-v/words/cells.s:2      .text:0000000000000f0a .L894
../../risc-v/words/cells.s:2      .text:0000000000000f05 .L794
../../risc-v/words/cells.s:2      .text:0000000000000f00 .L9995
../../shared/words/state.s:2      .text:0000000000000f26 .L895
../../shared/words/state.s:2      .text:0000000000000f21 .L795
../../shared/words/state.s:2      .text:0000000000000f1c .L9996
../../risc-v/words/tib.s:2      .text:0000000000000f3c .L896
../../risc-v/words/tib.s:2      .text:0000000000000f39 .L796
../../risc-v/words/tib.s:2      .text:0000000000000f34 .L9997
../../risc-v/words/tib.s:8      .text:0000000000000f61 .L897
../../risc-v/words/tib.s:8      .text:0000000000000f5d .L797
../../risc-v/words/tib.s:8      .text:0000000000000f58 .L9998
../../risc-v/words/cold.s:11     .text:0000000000000f79 .L898
../../risc-v/words/cold.s:11     .text:0000000000000f75 .L798
GAS LISTING hifive1.s 			page 176


../../risc-v/words/cold.s:36     .text:0000000000000fb8 .L0 
../../risc-v/words/cold.s:11     .text:0000000000000f70 .L9999
../../shared/words/quit.s:1      .text:0000000000000fd1 .L899
../../shared/words/quit.s:1      .text:0000000000000fcd .L799
../../shared/words/quit.s:1      .text:0000000000000fc8 .L99100
../../risc-v/words/execute.s:2      .text:0000000000001068 .L8100
../../risc-v/words/execute.s:2      .text:0000000000001061 .L7100
../../risc-v/words/execute.s:2      .text:000000000000105c .L99101
../../shared/words/key.s:1      .text:0000000000001088 .L8101
../../shared/words/key.s:1      .text:0000000000001085 .L7101
../../shared/words/key.s:1      .text:0000000000001080 .L99102
../../shared/words/keyq.s:1      .text:00000000000010c5 .L8102
../../shared/words/keyq.s:1      .text:00000000000010c1 .L7102
../../shared/words/keyq.s:1      .text:00000000000010bc .L99103
../../shared/words/emit.s:1      .text:00000000000010e9 .L8103
../../shared/words/emit.s:1      .text:00000000000010e5 .L7103
../../shared/words/emit.s:1      .text:00000000000010e0 .L99104
../../shared/words/emitq.s:1      .text:000000000000112a .L8104
../../shared/words/emitq.s:1      .text:0000000000001125 .L7104
../../shared/words/emitq.s:1      .text:0000000000001120 .L99105
../../shared/words/pause.s:1      .text:000000000000114e .L8105
../../shared/words/pause.s:1      .text:0000000000001149 .L7105
../../shared/words/pause.s:1      .text:0000000000001144 .L99106
../../risc-v/words/nop.s:2      .text:0000000000001170 .L8106
../../risc-v/words/nop.s:2      .text:000000000000116d .L7106
../../risc-v/words/nop.s:2      .text:0000000000001168 .L99107
../../shared/words/bounds.s:1      .text:0000000000001187 .L8107
../../shared/words/bounds.s:1      .text:0000000000001181 .L7107
../../shared/words/bounds.s:1      .text:000000000000117c .L99108
../../risc-v/words/unloop.s:2      .text:000000000000122f .L8108
../../risc-v/words/unloop.s:2      .text:0000000000001229 .L7108
../../risc-v/words/unloop.s:2      .text:0000000000001224 .L99109
../../risc-v/words/i.s:2      .text:000000000000124e .L8109
../../risc-v/words/i.s:2      .text:000000000000124d .L7109
../../risc-v/words/i.s:2      .text:0000000000001248 .L99110
../../risc-v/words/j.s:1      .text:000000000000126e .L8110
../../risc-v/words/j.s:1      .text:000000000000126d .L7110
../../risc-v/words/j.s:1      .text:0000000000001268 .L99111
../../risc-v/words/aligned.s:1      .text:000000000000129c .L8111
../../risc-v/words/aligned.s:1      .text:0000000000001295 .L7111
../../risc-v/words/aligned.s:1      .text:0000000000001290 .L99112
../../risc-v/words/up.s:2      .text:000000000000136c .L8112
../../risc-v/words/up.s:2      .text:0000000000001369 .L7112
../../risc-v/words/up.s:2      .text:0000000000001364 .L99113
../../risc-v/words/up.s:7      .text:000000000000138c .L8113
../../risc-v/words/up.s:7      .text:0000000000001389 .L7113
../../risc-v/words/up.s:7      .text:0000000000001384 .L99114
../../risc-v/words/1ms.s:2      .text:00000000000013ac .L8114
../../risc-v/words/1ms.s:2      .text:00000000000013a9 .L7114
../../risc-v/words/1ms.s:2      .text:00000000000013a4 .L99115
../../risc-v/words/compare.s:2      .text:000000000000141c .L8115
../../risc-v/words/compare.s:2      .text:0000000000001415 .L7115
../../risc-v/words/compare.s:2      .text:0000000000001410 .L99116
../../risc-v/words/n_to_r.s:1      .text:000000000000149c .L8116
../../risc-v/words/n_to_r.s:1      .text:0000000000001499 .L7116
../../risc-v/words/n_to_r.s:1      .text:0000000000001494 .L99117
../../risc-v/words/n_r_from.s:1      .text:00000000000014e0 .L8117
GAS LISTING hifive1.s 			page 177


../../risc-v/words/n_r_from.s:1      .text:00000000000014dd .L7117
../../risc-v/words/n_r_from.s:1      .text:00000000000014d8 .L99118
../../shared/words/num-constants.s:2      .text:0000000000001522 .L8118
../../shared/words/num-constants.s:2      .text:0000000000001521 .L7118
../../shared/words/num-constants.s:2      .text:000000000000151c .L99119
../../shared/words/num-constants.s:3      .text:0000000000001536 .L8119
../../shared/words/num-constants.s:3      .text:0000000000001535 .L7119
../../shared/words/num-constants.s:3      .text:0000000000001530 .L99120
../../shared/words/num-constants.s:4      .text:000000000000154a .L8120
../../shared/words/num-constants.s:4      .text:0000000000001549 .L7120
../../shared/words/num-constants.s:4      .text:0000000000001544 .L99121
../../shared/words/num-constants.s:5      .text:000000000000155e .L8121
../../shared/words/num-constants.s:5      .text:000000000000155d .L7121
../../shared/words/num-constants.s:5      .text:0000000000001558 .L99122
../../shared/words/num-constants.s:6      .text:0000000000001573 .L8122
../../shared/words/num-constants.s:6      .text:0000000000001571 .L7122
../../shared/words/num-constants.s:6      .text:000000000000156c .L99123
../../shared/words/num-constants.s:7      .text:0000000000001589 .L8123
../../shared/words/num-constants.s:7      .text:0000000000001585 .L7123
../../shared/words/num-constants.s:7      .text:0000000000001580 .L99124
../../shared/words/num-constants.s:8      .text:00000000000015a2 .L8124
../../shared/words/num-constants.s:8      .text:000000000000159d .L7124
../../shared/words/num-constants.s:8      .text:0000000000001598 .L99125
../../shared/words/warm.s:2      .text:00000000000015b9 .L8125
../../shared/words/warm.s:2      .text:00000000000015b5 .L7125
../../shared/words/warm.s:2      .text:00000000000015b0 .L99126
../../shared/words/ms.s:2      .text:00000000000015df .L8126
../../shared/words/ms.s:2      .text:00000000000015dd .L7126
../../shared/words/ms.s:2      .text:00000000000015d8 .L99127
../../shared/words/cr.s:1      .text:000000000000160f .L8127
../../shared/words/cr.s:1      .text:000000000000160d .L7127
../../shared/words/cr.s:1      .text:0000000000001608 .L99128
../../shared/words/bl.s:2      .text:000000000000163b .L8128
../../shared/words/bl.s:2      .text:0000000000001639 .L7128
../../shared/words/bl.s:2      .text:0000000000001634 .L99129
../../shared/words/space.s:2      .text:0000000000001652 .L8129
../../shared/words/space.s:2      .text:000000000000164d .L7129
../../shared/words/space.s:2      .text:0000000000001648 .L99130
../../shared/words/spaces.s:2      .text:0000000000001673 .L8130
../../shared/words/spaces.s:2      .text:000000000000166d .L7130
../../shared/words/spaces.s:2      .text:0000000000001668 .L99131
../../shared/words/left-bracket.s:2      .text:00000000000016ae .L8131
../../shared/words/left-bracket.s:2      .text:00000000000016ad .L7131
../../shared/words/left-bracket.s:2      .text:00000000000016a8 .L99132
../../shared/words/l-paren.s:2      .text:00000000000016ce .L8132
../../shared/words/l-paren.s:2      .text:00000000000016cd .L7132
../../shared/words/l-paren.s:2      .text:00000000000016c8 .L99133
../../shared/words/decimal.s:2      .text:00000000000016f8 .L8133
../../shared/words/decimal.s:2      .text:00000000000016f1 .L7133
../../shared/words/decimal.s:2      .text:00000000000016ec .L99134
../../shared/words/hex.s:2      .text:000000000000171c .L8134
../../shared/words/hex.s:2      .text:0000000000001719 .L7134
../../shared/words/hex.s:2      .text:0000000000001714 .L99135
../../shared/words/pad.s:1      .text:0000000000001740 .L8135
../../shared/words/pad.s:1      .text:000000000000173d .L7135
../../shared/words/pad.s:1      .text:0000000000001738 .L99136
../../shared/words/here.s:2      .text:0000000000001765 .L8136
GAS LISTING hifive1.s 			page 178


../../shared/words/here.s:2      .text:0000000000001761 .L7136
../../shared/words/here.s:2      .text:000000000000175c .L99137
../../shared/words/allot.s:2      .text:0000000000001782 .L8137
../../shared/words/allot.s:2      .text:000000000000177d .L7137
../../shared/words/allot.s:2      .text:0000000000001778 .L99138
../../shared/words/hold.s:2      .text:00000000000017a8 .L8138
../../shared/words/hold.s:2      .text:00000000000017a5 .L7138
../../shared/words/hold.s:2      .text:00000000000017a0 .L99139
../../shared/words/hold.s:4      .text:00000000000017bd .L8139
../../shared/words/hold.s:4      .text:00000000000017b9 .L7139
../../shared/words/hold.s:4      .text:00000000000017b4 .L99140
../../shared/words/sharp.s:2      .text:00000000000017fb .L8140
../../shared/words/sharp.s:2      .text:00000000000017f9 .L7140
../../shared/words/sharp.s:2      .text:00000000000017f4 .L99141
../../shared/words/sharp.s:7      .text:000000000000181a .L8141
../../shared/words/sharp.s:7      .text:0000000000001819 .L7141
../../shared/words/sharp.s:7      .text:0000000000001814 .L99142
../../shared/words/sharp.s:19     .text:0000000000001873 .L8142
../../shared/words/sharp.s:19     .text:0000000000001871 .L7142
../../shared/words/sharp.s:19     .text:000000000000186c .L99143
../../shared/words/sharp.s:24     .text:000000000000189f .L8143
../../shared/words/sharp.s:24     .text:000000000000189d .L7143
../../shared/words/sharp.s:24     .text:0000000000001898 .L99144
../../shared/words/sign.s:2      .text:00000000000018cd .L8144
../../shared/words/sign.s:2      .text:00000000000018c9 .L7144
../../shared/words/sign.s:2      .text:00000000000018c4 .L99145
../../shared/words/dot.s:2      .text:00000000000018fa .L8145
../../shared/words/dot.s:2      .text:00000000000018f9 .L7145
../../shared/words/dot.s:2      .text:00000000000018f4 .L99146
../../shared/words/d-dot-r.s:2      .text:0000000000001918 .L8146
../../shared/words/d-dot-r.s:2      .text:0000000000001915 .L7146
../../shared/words/d-dot-r.s:2      .text:0000000000001910 .L99147
../../shared/words/d-dot.s:2      .text:000000000000195f .L8147
../../shared/words/d-dot.s:2      .text:000000000000195d .L7147
../../shared/words/d-dot.s:2      .text:0000000000001958 .L99148
../../shared/words/u-dot.s:1      .text:000000000000197f .L8148
../../shared/words/u-dot.s:1      .text:000000000000197d .L7148
../../shared/words/u-dot.s:1      .text:0000000000001978 .L99149
../../shared/words/ud-dot.s:2      .text:000000000000199c .L8149
../../shared/words/ud-dot.s:2      .text:0000000000001999 .L7149
../../shared/words/ud-dot.s:2      .text:0000000000001994 .L99150
../../shared/words/ud-dot-r.s:2      .text:00000000000019bd .L8150
../../shared/words/ud-dot-r.s:2      .text:00000000000019b9 .L7150
../../shared/words/ud-dot-r.s:2      .text:00000000000019b4 .L99151
../../shared/words/dot-s.s:2      .text:00000000000019f7 .L8151
../../shared/words/dot-s.s:2      .text:00000000000019f5 .L7151
../../shared/words/dot-s.s:2      .text:00000000000019f0 .L99152
../../shared/words/refill.s:2      .text:0000000000001a47 .L8152
../../shared/words/refill.s:2      .text:0000000000001a41 .L7152
../../shared/words/refill.s:2      .text:0000000000001a3c .L99153
../../shared/words/refill.s:4      .text:0000000000001a6f .L8153
../../shared/words/refill.s:4      .text:0000000000001a65 .L7153
../../shared/words/refill.s:4      .text:0000000000001a60 .L99154
../../shared/words/accept.s:2      .text:0000000000001aaf .L8154
../../shared/words/accept.s:2      .text:0000000000001aa9 .L7154
../../shared/words/accept.s:2      .text:0000000000001aa4 .L99155
../../shared/words/accept.s:31     .text:0000000000001bbf .L8155
GAS LISTING hifive1.s 			page 179


../../shared/words/accept.s:31     .text:0000000000001bbd .L7155
../../shared/words/accept.s:31     .text:0000000000001bb8 .L99156
../../shared/words/accept.s:40     .text:0000000000001bee .L8156
../../shared/words/accept.s:40     .text:0000000000001be9 .L7156
../../shared/words/accept.s:40     .text:0000000000001be4 .L99157
../../shared/words/prompt-error.s:2      .text:0000000000001c2b .L8157
../../shared/words/prompt-error.s:2      .text:0000000000001c25 .L7157
../../shared/words/prompt-error.s:5      .text:0000000000001c4d .L8158
../../shared/words/prompt-error.s:5      .text:0000000000001c49 .L7158
../../shared/words/prompt-error.s:2      .text:0000000000001c20 .L99158
../../shared/words/prompt-input.s:2      .text:0000000000001c93 .L8159
../../shared/words/prompt-input.s:2      .text:0000000000001c8d .L7159
../../shared/words/prompt-input.s:2      .text:0000000000001c88 .L99159
../../shared/words/prompt-ok.s:2      .text:0000000000001cc0 .L8160
../../shared/words/prompt-ok.s:2      .text:0000000000001cbd .L7160
../../shared/words/prompt-ok.s:6      .text:0000000000001cec .L8161
../../shared/words/prompt-ok.s:6      .text:0000000000001ce9 .L7161
../../shared/words/prompt-ok.s:2      .text:0000000000001cb8 .L99160
../../shared/words/prompt-ready.s:2      .text:0000000000001d03 .L8162
../../shared/words/prompt-ready.s:2      .text:0000000000001cfd .L7162
../../shared/words/prompt-ready.s:7      .text:0000000000001d27 .L8163
../../shared/words/prompt-ready.s:7      .text:0000000000001d25 .L7163
../../shared/words/prompt-ready.s:2      .text:0000000000001cf8 .L99161
../../shared/words/catch.s:2      .text:0000000000001d40 .L8164
../../shared/words/catch.s:2      .text:0000000000001d39 .L7164
../../shared/words/catch.s:2      .text:0000000000001d34 .L99162
../../shared/words/catch.s:4      .text:0000000000001d56 .L8165
../../shared/words/catch.s:4      .text:0000000000001d51 .L7165
../../shared/words/catch.s:4      .text:0000000000001d4c .L99163
../../shared/words/throw.s:1      .text:0000000000001daa .L8166
../../shared/words/throw.s:1      .text:0000000000001da5 .L7166
../../shared/words/throw.s:1      .text:0000000000001da0 .L99164
../../shared/words/source.s:2      .text:0000000000001dff .L8167
../../shared/words/source.s:2      .text:0000000000001df9 .L7167
../../shared/words/source.s:2      .text:0000000000001df4 .L99165
../../shared/words/source.s:4      .text:0000000000001e27 .L8168
../../shared/words/source.s:4      .text:0000000000001e1d .L7168
../../shared/words/source.s:4      .text:0000000000001e18 .L99166
../../shared/words/q-stack.s:1      .text:0000000000001e4b .L8169
../../shared/words/q-stack.s:1      .text:0000000000001e45 .L7169
../../shared/words/q-stack.s:1      .text:0000000000001e40 .L99167
../../shared/words/cscan.s:2      .text:0000000000001e7e .L8170
../../shared/words/cscan.s:2      .text:0000000000001e79 .L7170
../../shared/words/cscan.s:2      .text:0000000000001e74 .L99168
../../shared/words/cskip.s:2      .text:0000000000001efa .L8171
../../shared/words/cskip.s:2      .text:0000000000001ef5 .L7171
../../shared/words/cskip.s:2      .text:0000000000001ef0 .L99169
../../shared/words/parse-name.s:2      .text:0000000000001f5b .L8172
../../shared/words/parse-name.s:2      .text:0000000000001f51 .L7172
../../shared/words/parse-name.s:2      .text:0000000000001f4c .L99170
../../shared/words/parse.s:2      .text:0000000000001fc2 .L8173
../../shared/words/parse.s:2      .text:0000000000001fbd .L7173
../../shared/words/parse.s:2      .text:0000000000001fb8 .L99171
../../shared/words/slash-string.s:2      .text:0000000000002014 .L8174
../../shared/words/slash-string.s:2      .text:000000000000200d .L7174
../../shared/words/slash-string.s:2      .text:0000000000002008 .L99172
../../shared/words/2literal.s:2      .text:0000000000002045 .L8175
GAS LISTING hifive1.s 			page 180


../../shared/words/2literal.s:2      .text:000000000000203d .L7175
../../shared/words/2literal.s:2      .text:0000000000002038 .L99173
../../shared/words/literal.s:2      .text:000000000000206c .L8176
../../shared/words/literal.s:2      .text:0000000000002065 .L7176
../../shared/words/literal.s:2      .text:0000000000002060 .L99174
../../shared/words/compile.s:2      .text:0000000000002090 .L8177
../../shared/words/compile.s:2      .text:0000000000002089 .L7177
../../shared/words/compile.s:2      .text:0000000000002084 .L99175
../../shared/words/comma.s:2      .text:00000000000020ba .L8178
../../shared/words/comma.s:2      .text:00000000000020b9 .L7178
../../shared/words/comma.s:2      .text:00000000000020b4 .L99176
../../shared/words/comma.s:10     .text:00000000000020e3 .L8179
../../shared/words/comma.s:10     .text:00000000000020e1 .L7179
../../shared/words/comma.s:10     .text:00000000000020dc .L99177
../../shared/words/order.s:2      .text:0000000000002142 .L8180
../../shared/words/order.s:2      .text:0000000000002139 .L7180
../../shared/words/order.s:2      .text:0000000000002134 .L99178
../../shared/words/find-xt.s:2      .text:0000000000002168 .L8181
../../shared/words/find-xt.s:2      .text:0000000000002161 .L7181
../../shared/words/find-xt.s:2      .text:000000000000215c .L99179
../../shared/words/nfa2lfa.s:2      .text:00000000000021e0 .L8182
../../shared/words/nfa2lfa.s:2      .text:00000000000021d9 .L7182
../../shared/words/nfa2lfa.s:2      .text:00000000000021d4 .L99180
../../shared/words/nfa2cfa.s:2      .text:0000000000002204 .L8183
../../shared/words/nfa2cfa.s:2      .text:00000000000021fd .L7183
../../shared/words/nfa2cfa.s:2      .text:00000000000021f8 .L99181
../../shared/words/traverse-wordlist.s:2      .text:0000000000002236 .L8184
../../shared/words/traverse-wordlist.s:2      .text:0000000000002225 .L7184
../../shared/words/traverse-wordlist.s:2      .text:0000000000002220 .L99182
../../shared/words/show-wordlist.s:2      .text:0000000000002296 .L8185
../../shared/words/show-wordlist.s:2      .text:0000000000002289 .L7185
../../shared/words/show-wordlist.s:2      .text:0000000000002284 .L99183
../../shared/words/current.s:2      .text:00000000000022d8 .L8186
../../shared/words/current.s:2      .text:00000000000022d1 .L7186
../../shared/words/current.s:2      .text:00000000000022cc .L99184
../../shared/words/search-wordlist.s:2      .text:0000000000002304 .L8187
../../shared/words/search-wordlist.s:2      .text:00000000000022f5 .L7187
../../shared/words/search-wordlist.s:2      .text:00000000000022f0 .L99185
../../shared/words/name2string.s:2      .text:00000000000023b4 .L8188
../../shared/words/name2string.s:2      .text:00000000000023a9 .L7188
../../shared/words/name2string.s:2      .text:00000000000023a4 .L99186
../../shared/words/name2flags.s:1      .text:00000000000023e3 .L8189
../../shared/words/name2flags.s:1      .text:00000000000023d9 .L7189
../../shared/words/name2flags.s:1      .text:00000000000023d4 .L99187
../../shared/words/mplus.s:2      .text:00000000000023f7 .L8190
../../shared/words/mplus.s:2      .text:00000000000023f5 .L7190
../../shared/words/mplus.s:2      .text:00000000000023f0 .L99188
../../shared/words/ud-star.s:2      .text:0000000000002414 .L8191
../../shared/words/ud-star.s:2      .text:0000000000002411 .L7191
../../shared/words/ud-star.s:2      .text:000000000000240c .L99189
../../shared/words/within.s:2      .text:000000000000244f .L8192
../../shared/words/within.s:2      .text:0000000000002449 .L7192
../../shared/words/within.s:2      .text:0000000000002444 .L99190
../../shared/words/to-upper.s:2      .text:0000000000002480 .L8193
../../shared/words/to-upper.s:2      .text:0000000000002479 .L7193
../../shared/words/to-upper.s:2      .text:0000000000002474 .L99191
../../shared/words/digit-q.s:2      .text:00000000000024c3 .L8194
GAS LISTING hifive1.s 			page 181


../../shared/words/digit-q.s:2      .text:00000000000024bd .L7194
../../shared/words/digit-q.s:2      .text:00000000000024b8 .L99192
../../shared/words/to-number.s:2      .text:000000000000253c .L8195
../../shared/words/to-number.s:2      .text:0000000000002535 .L7195
../../shared/words/to-number.s:2      .text:0000000000002530 .L99193
../../shared/words/number.s:1      .text:00000000000025b3 .L8196
../../shared/words/number.s:1      .text:00000000000025ad .L7196
../../shared/words/number.s:1      .text:00000000000025a8 .L99194
../../shared/words/set-base.s:2      .text:000000000000271a .L8197
../../shared/words/set-base.s:2      .text:0000000000002715 .L7197
../../shared/words/set-base.s:2      .text:0000000000002710 .L99195
../../shared/words/set-base.s:5      .text:0000000000002741 .L8198
../../shared/words/set-base.s:5      .text:0000000000002739 .L7198
../../shared/words/set-base.s:5      .text:0000000000002734 .L99196
../../shared/words/rec-null.s:2      .text:00000000000027c1 .L8199
../../shared/words/rec-null.s:2      .text:00000000000027b5 .L7199
../../shared/words/rec-null.s:2      .text:00000000000027b0 .L99197
../../shared/words/rec-find.s:2      .text:00000000000027f5 .L8200
../../shared/words/rec-find.s:2      .text:00000000000027ed .L7200
../../shared/words/rec-find.s:2      .text:00000000000027e8 .L99198
../../shared/words/rec-find.s:14     .text:0000000000002837 .L8201
../../shared/words/rec-find.s:14     .text:000000000000282d .L7201
../../shared/words/rec-find.s:14     .text:0000000000002828 .L99199
../../shared/words/rec-intnum.s:2      .text:000000000000288c .L8202
../../shared/words/rec-intnum.s:2      .text:0000000000002881 .L7202
../../shared/words/rec-intnum.s:2      .text:000000000000287c .L99200
../../shared/words/rec-intnum.s:7      .text:00000000000028b1 .L8203
../../shared/words/rec-intnum.s:7      .text:00000000000028a5 .L7203
../../shared/words/rec-intnum.s:7      .text:00000000000028a0 .L99201
../../shared/words/rec-intnum.s:12     .text:00000000000028d4 .L8204
../../shared/words/rec-intnum.s:12     .text:00000000000028cd .L7204
../../shared/words/rec-intnum.s:12     .text:00000000000028c8 .L99202
../../shared/words/rec-split.s:1      .text:0000000000002922 .L8205
../../shared/words/rec-split.s:1      .text:0000000000002919 .L7205
../../shared/words/rec-split.s:1      .text:0000000000002914 .L99203
../../shared/words/rec-split.s:5      .text:0000000000002946 .L8206
../../shared/words/rec-split.s:5      .text:0000000000002939 .L7206
../../shared/words/rec-split.s:5      .text:0000000000002934 .L99204
../../shared/words/rec-split.s:10     .text:0000000000002966 .L8207
../../shared/words/rec-split.s:10     .text:0000000000002961 .L7207
../../shared/words/rec-split.s:10     .text:000000000000295c .L99205
../../shared/words/forth-recognizer.s:2      .text:0000000000002999 .L8208
../../shared/words/forth-recognizer.s:2      .text:0000000000002989 .L7208
../../shared/words/forth-recognizer.s:2      .text:0000000000002984 .L99206
../../shared/words/forth-recognizer.s:4      .text:00000000000029c7 .L8209
../../shared/words/forth-recognizer.s:4      .text:00000000000029b9 .L7209
../../shared/words/forth-recognizer.s:4      .text:00000000000029b4 .L99207
../../shared/words/recognize.s:2      .text:00000000000029ea .L8210
../../shared/words/recognize.s:2      .text:00000000000029e1 .L7210
../../shared/words/recognize.s:2      .text:00000000000029dc .L99208
../../shared/words/interpret.s:2      .text:0000000000002a7e .L8211
../../shared/words/interpret.s:2      .text:0000000000002a75 .L7211
../../shared/words/interpret.s:2      .text:0000000000002a70 .L99209
../../shared/words/map-stack.s:2      .text:0000000000002ade .L8212
../../shared/words/map-stack.s:2      .text:0000000000002ad5 .L7212
../../shared/words/map-stack.s:2      .text:0000000000002ad0 .L99210
../../shared/words/qdo.s:2      .text:0000000000002b6c .L8213
GAS LISTING hifive1.s 			page 182


../../shared/words/qdo.s:2      .text:0000000000002b69 .L7213
../../shared/words/qdo.s:2      .text:0000000000002b64 .L99211
../../shared/words/init-ram.s:2      .text:0000000000002bc9 .L8214
../../shared/words/init-ram.s:2      .text:0000000000002bc1 .L7214
../../shared/words/init-ram.s:2      .text:0000000000002bbc .L99212
../../shared/words/ver.s:2      .text:0000000000002c84 .L8215
../../shared/words/ver.s:2      .text:0000000000002c81 .L7215
../../shared/words/ver.s:2      .text:0000000000002c7c .L99213
../../shared/words/count.s:2      .text:0000000000002cee .L8216
../../shared/words/count.s:2      .text:0000000000002ce9 .L7216
../../shared/words/count.s:2      .text:0000000000002ce4 .L99214
../../shared/words/type.s:2      .text:0000000000002d15 .L8217
../../shared/words/type.s:2      .text:0000000000002d11 .L7217
../../shared/words/type.s:2      .text:0000000000002d0c .L99215
../../shared/words/type.s:13     .text:0000000000002d56 .L8218
../../shared/words/type.s:13     .text:0000000000002d51 .L7218
../../shared/words/type.s:13     .text:0000000000002d4c .L99216
../../shared/words/squote.s:2      .text:0000000000002d6f .L8219
../../shared/words/squote.s:2      .text:0000000000002d6d .L7219
../../shared/words/squote.s:2      .text:0000000000002d68 .L99217
../../shared/words/dot-quote.s:2      .text:0000000000002da3 .L8220
../../shared/words/dot-quote.s:2      .text:0000000000002da1 .L7220
../../shared/words/dot-quote.s:2      .text:0000000000002d9c .L99218
../../shared/words/scomma.s:2      .text:0000000000002dc3 .L8221
../../shared/words/scomma.s:2      .text:0000000000002dc1 .L7221
../../shared/words/scomma.s:2      .text:0000000000002dbc .L99219
../../shared/words/sliteral.s:2      .text:0000000000002e25 .L8222
../../shared/words/sliteral.s:2      .text:0000000000002e1d .L7222
../../shared/words/sliteral.s:2      .text:0000000000002e18 .L99220
../../shared/words/words.s:2      .text:0000000000002e4a .L8223
../../shared/words/words.s:2      .text:0000000000002e45 .L7223
../../shared/words/words.s:2      .text:0000000000002e40 .L99221
../../shared/words/ahead.s:2      .text:0000000000002eb2 .L8224
../../shared/words/ahead.s:2      .text:0000000000002ead .L7224
../../shared/words/ahead.s:2      .text:0000000000002ea8 .L99222
../../shared/words/begin.s:2      .text:0000000000002ed6 .L8225
../../shared/words/begin.s:2      .text:0000000000002ed1 .L7225
../../shared/words/begin.s:2      .text:0000000000002ecc .L99223
../../shared/words/then.s:2      .text:0000000000002ef1 .L8226
../../shared/words/then.s:2      .text:0000000000002eed .L7226
../../shared/words/then.s:2      .text:0000000000002ee8 .L99224
../../shared/words/until.s:2      .text:0000000000002f0e .L8227
../../shared/words/until.s:2      .text:0000000000002f09 .L7227
../../shared/words/until.s:2      .text:0000000000002f04 .L99225
../../shared/words/while.s:2      .text:0000000000002f36 .L8228
../../shared/words/while.s:2      .text:0000000000002f31 .L7228
../../shared/words/while.s:2      .text:0000000000002f2c .L99226
../../shared/words/if.s:2      .text:0000000000002f53 .L8229
../../shared/words/if.s:2      .text:0000000000002f51 .L7229
../../shared/words/if.s:2      .text:0000000000002f4c .L99227
../../shared/words/else.s:2      .text:0000000000002f75 .L8230
../../shared/words/else.s:2      .text:0000000000002f71 .L7230
../../shared/words/else.s:2      .text:0000000000002f6c .L99228
../../shared/words/again.s:2      .text:0000000000002fa2 .L8231
../../shared/words/again.s:2      .text:0000000000002f9d .L7231
../../shared/words/again.s:2      .text:0000000000002f98 .L99229
../../shared/words/repeat.s:2      .text:0000000000002fc7 .L8232
GAS LISTING hifive1.s 			page 183


../../shared/words/repeat.s:2      .text:0000000000002fc1 .L7232
../../shared/words/repeat.s:2      .text:0000000000002fbc .L99230
../../shared/words/leave.s:2      .text:0000000000002fe4 .L8233
../../shared/words/leave.s:2      .text:0000000000002fe1 .L7233
../../shared/words/leave.s:2      .text:0000000000002fdc .L99231
../../shared/words/leave.s:3      .text:0000000000003003 .L8234
../../shared/words/leave.s:3      .text:0000000000003001 .L7234
../../shared/words/leave.s:3      .text:0000000000002ffc .L99232
../../shared/words/leave.s:5      .text:0000000000003017 .L8235
../../shared/words/leave.s:5      .text:0000000000003015 .L7235
../../shared/words/leave.s:5      .text:0000000000003010 .L99233
../../shared/words/leave.s:15     .text:0000000000003047 .L8236
../../shared/words/leave.s:15     .text:0000000000003045 .L7236
../../shared/words/leave.s:15     .text:0000000000003040 .L99234
../../shared/words/leave.s:25     .text:000000000000307a .L8237
../../shared/words/leave.s:25     .text:0000000000003075 .L7237
../../shared/words/leave.s:25     .text:0000000000003070 .L99235
../../shared/words/immediate.s:2      .text:00000000000030a6 .L8238
../../shared/words/immediate.s:2      .text:000000000000309d .L7238
../../shared/words/immediate.s:2      .text:0000000000003098 .L99236
../../shared/words/turnkey.s:2      .text:00000000000030e8 .L8239
../../shared/words/turnkey.s:2      .text:00000000000030e1 .L7239
../../shared/words/turnkey.s:2      .text:00000000000030dc .L99237
../../shared/words/tick.s:2      .text:0000000000003106 .L8240
../../shared/words/tick.s:2      .text:0000000000003105 .L7240
../../shared/words/tick.s:2      .text:0000000000003100 .L99238
../../shared/words/abort.s:2      .text:0000000000003166 .L8241
../../shared/words/abort.s:2      .text:0000000000003161 .L7241
../../shared/words/abort.s:2      .text:000000000000315c .L99239
../../shared/words/abort-string.s:2      .text:0000000000003183 .L8242
../../shared/words/abort-string.s:2      .text:000000000000317d .L7242
../../shared/words/abort-string.s:2      .text:0000000000003178 .L99240
../../shared/words/backslash.s:2      .text:00000000000031a2 .L8243
../../shared/words/backslash.s:2      .text:00000000000031a1 .L7243
../../shared/words/backslash.s:2      .text:000000000000319c .L99241
../../shared/words/bracketchar.s:2      .text:00000000000031cb .L8244
../../shared/words/bracketchar.s:2      .text:00000000000031c5 .L7244
../../shared/words/bracketchar.s:2      .text:00000000000031c0 .L99242
../../shared/words/bracketcompile.s:2      .text:00000000000031f6 .L8245
../../shared/words/bracketcompile.s:2      .text:00000000000031ed .L7245
../../shared/words/bracketcompile.s:2      .text:00000000000031e8 .L99243
../../shared/words/brackettick.s:2      .text:000000000000321c .L8246
../../shared/words/brackettick.s:2      .text:0000000000003219 .L7246
../../shared/words/brackettick.s:2      .text:0000000000003214 .L99244
../../shared/words/char.s:2      .text:0000000000003239 .L8247
../../shared/words/char.s:2      .text:0000000000003235 .L7247
../../shared/words/char.s:2      .text:0000000000003230 .L99245
../../shared/words/colon-noname.s:2      .text:0000000000003274 .L8248
../../shared/words/colon-noname.s:2      .text:000000000000326d .L7248
../../shared/words/colon-noname.s:2      .text:0000000000003268 .L99246
../../shared/words/constant.s:2      .text:00000000000032a9 .L8249
../../shared/words/constant.s:2      .text:00000000000032a1 .L7249
../../shared/words/constant.s:2      .text:000000000000329c .L99247
../../shared/words/create.s:2      .text:00000000000032d7 .L8250
../../shared/words/create.s:2      .text:00000000000032d1 .L7250
../../shared/words/create.s:2      .text:00000000000032cc .L99248
../../shared/words/defer-fetch.s:2      .text:00000000000032ff .L8251
GAS LISTING hifive1.s 			page 184


../../shared/words/defer-fetch.s:2      .text:00000000000032f9 .L7251
../../shared/words/defer-fetch.s:2      .text:00000000000032f4 .L99249
../../shared/words/defer-store.s:2      .text:0000000000003337 .L8252
../../shared/words/defer-store.s:2      .text:0000000000003331 .L7252
../../shared/words/defer-store.s:2      .text:000000000000332c .L99250
../../shared/words/do-create.s:2      .text:0000000000003375 .L8253
../../shared/words/do-create.s:2      .text:000000000000336d .L7253
../../shared/words/do-create.s:2      .text:0000000000003368 .L99251
../../shared/words/do.s:2      .text:00000000000033bb .L8254
../../shared/words/do.s:2      .text:00000000000033b9 .L7254
../../shared/words/do.s:2      .text:00000000000033b4 .L99252
../../shared/words/endloop.s:2      .text:00000000000033e8 .L8255
../../shared/words/endloop.s:2      .text:00000000000033e1 .L7255
../../shared/words/endloop.s:2      .text:00000000000033dc .L99253
../../shared/words/header.s:2      .text:000000000000341f .L8256
../../shared/words/header.s:2      .text:0000000000003419 .L7256
../../shared/words/header.s:2      .text:0000000000003414 .L99254
../../shared/words/latest.s:2      .text:0000000000003477 .L8257
../../shared/words/latest.s:2      .text:0000000000003471 .L7257
../../shared/words/latest.s:2      .text:000000000000346c .L99255
../../shared/words/loop.s:2      .text:000000000000348d .L8258
../../shared/words/loop.s:2      .text:0000000000003489 .L7258
../../shared/words/loop.s:2      .text:0000000000003484 .L99256
../../shared/words/newest.s:2      .text:00000000000034b3 .L8259
../../shared/words/newest.s:2      .text:00000000000034ad .L7259
../../shared/words/newest.s:2      .text:00000000000034a8 .L99257
../../shared/words/plusloop.s:2      .text:00000000000034ca .L8260
../../shared/words/plusloop.s:2      .text:00000000000034c5 .L7260
../../shared/words/plusloop.s:2      .text:00000000000034c0 .L99258
../../shared/words/postpone.s:2      .text:00000000000034f1 .L8261
../../shared/words/postpone.s:2      .text:00000000000034e9 .L7261
../../shared/words/postpone.s:2      .text:00000000000034e4 .L99259
../../shared/words/q-abort.s:2      .text:000000000000353f .L8262
../../shared/words/q-abort.s:2      .text:0000000000003539 .L7262
../../shared/words/q-abort.s:2      .text:0000000000003534 .L99260
../../shared/words/recurse.s:2      .text:0000000000003570 .L8263
../../shared/words/recurse.s:2      .text:0000000000003569 .L7263
../../shared/words/recurse.s:2      .text:0000000000003564 .L99261
../../shared/words/reveal.s:2      .text:0000000000003593 .L8264
../../shared/words/reveal.s:2      .text:000000000000358d .L7264
../../shared/words/reveal.s:2      .text:0000000000003588 .L99262
../../shared/words/right-bracket.s:2      .text:00000000000035ce .L8265
../../shared/words/right-bracket.s:2      .text:00000000000035cd .L7265
../../shared/words/right-bracket.s:2      .text:00000000000035c8 .L99263
../../shared/words/colon.s:2      .text:00000000000035ee .L8266
../../shared/words/colon.s:2      .text:00000000000035ed .L7266
../../shared/words/colon.s:2      .text:00000000000035e8 .L99264
../../shared/words/semicolon.s:2      .text:000000000000360e .L8267
../../shared/words/semicolon.s:2      .text:000000000000360d .L7267
../../shared/words/semicolon.s:2      .text:0000000000003608 .L99265
../../shared/words/to.s:2      .text:0000000000003633 .L8268
../../shared/words/to.s:2      .text:0000000000003631 .L7268
../../shared/words/to.s:2      .text:000000000000362c .L99266
../../shared/words/variable.s:2      .text:00000000000036bd .L8269
../../shared/words/variable.s:2      .text:00000000000036b5 .L7269
../../shared/words/variable.s:2      .text:00000000000036b0 .L99267
../../shared/words/wlscope.s:2      .text:00000000000036ec .L8270
GAS LISTING hifive1.s 			page 185


../../shared/words/wlscope.s:2      .text:00000000000036e5 .L7270
../../shared/words/wlscope.s:2      .text:00000000000036e0 .L99268
../../shared/words/to-body.s:2      .text:000000000000370e .L8271
../../shared/words/to-body.s:2      .text:0000000000003709 .L7271
../../shared/words/to-body.s:2      .text:0000000000003704 .L99269
../../shared/words/get-current.s:2      .text:0000000000003730 .L8272
../../shared/words/get-current.s:2      .text:0000000000003725 .L7272
../../shared/words/get-current.s:2      .text:0000000000003720 .L99270
../../shared/words/greater-zero.s:2      .text:0000000000003747 .L8273
../../shared/words/greater-zero.s:2      .text:0000000000003745 .L7273
../../shared/words/greater-zero.s:2      .text:0000000000003740 .L99271
../../shared/words/to-in.s:1      .text:0000000000003764 .L8274
../../shared/words/to-in.s:1      .text:0000000000003761 .L7274
../../shared/words/to-in.s:1      .text:000000000000375c .L99272
../../shared/words/dp.s:2      .text:0000000000003777 .L8275
../../shared/words/dp.s:2      .text:0000000000003775 .L7275
../../shared/words/dp.s:2      .text:0000000000003770 .L99273
../../shared/words/udefer.s:2      .text:000000000000379c .L8276
../../shared/words/udefer.s:2      .text:0000000000003795 .L7276
../../shared/words/udefer.s:2      .text:0000000000003790 .L99274
../../shared/words/udefer.s:6      .text:00000000000037c0 .L8277
../../shared/words/udefer.s:6      .text:00000000000037b9 .L7277
../../shared/words/udefer.s:6      .text:00000000000037b4 .L99275
../../shared/words/wordlist.s:2      .text:00000000000037e5 .L8278
../../shared/words/wordlist.s:2      .text:00000000000037dd .L7278
../../shared/words/wordlist.s:2      .text:00000000000037d8 .L99276
../../shared/words/ramwordlist.s:2      .text:0000000000003825 .L8279
../../shared/words/ramwordlist.s:2      .text:0000000000003819 .L7279
../../shared/words/ramwordlist.s:2      .text:0000000000003814 .L99277
     ./words/usart.s:11     .text:000000000000384b .L8280
     ./words/usart.s:11     .text:0000000000003845 .L7280
     ./words/usart.s:11     .text:0000000000003840 .L99278
     ./words/usart.s:40     .text:00000000000038ac .L8281
     ./words/usart.s:40     .text:000000000000389d .L7281
     ./words/usart.s:40     .text:0000000000003898 .L99279
     ./words/usart.s:43     .text:00000000000038c7 .L8282
     ./words/usart.s:43     .text:00000000000038bd .L7282
     ./words/usart.s:46     .text:00000000000038d4 .L0 
     ./words/usart.s:43     .text:00000000000038b8 .L99280
     ./words/usart.s:56     .text:0000000000003904 .L8283
     ./words/usart.s:56     .text:00000000000038f9 .L7283
     ./words/usart.s:63     .text:0000000000003910 .L0 
     ./words/usart.s:72     .text:0000000000003930 .L0 
     ./words/usart.s:56     .text:00000000000038f4 .L99281
     ./words/usart.s:83     .text:0000000000003960 .L8284
     ./words/usart.s:83     .text:0000000000003955 .L7284
     ./words/usart.s:83     .text:0000000000003950 .L99282
     ./words/usart.s:98     .text:0000000000003999 .L8285
     ./words/usart.s:98     .text:000000000000398d .L7285
     ./words/usart.s:98     .text:0000000000003988 .L99283
           ./flash.s:2      .text:00000000000039c7 .L8286
           ./flash.s:2      .text:00000000000039c5 .L7286
           ./flash.s:2      .text:00000000000039c0 .L99284
           ./flash.s:5      .text:00000000000039e8 .L8287
           ./flash.s:5      .text:00000000000039e5 .L7287
           ./flash.s:5      .text:00000000000039e0 .L99285
           ./flash.s:8      .text:0000000000003a0d .L8288
GAS LISTING hifive1.s 			page 186


           ./flash.s:8      .text:0000000000003a05 .L7288
           ./flash.s:8      .text:0000000000003a00 .L99286
           ./flash.s:11     .text:0000000000003a2f .L8289
           ./flash.s:11     .text:0000000000003a25 .L7289
           ./flash.s:11     .text:0000000000003a20 .L99287
      ./words/leds.s:8      .text:0000000000003a49 .L8290
      ./words/leds.s:8      .text:0000000000003a41 .L7290
      ./words/leds.s:8      .text:0000000000003a3c .L99288
      ./words/leds.s:17     .text:0000000000003a80 .L8291
      ./words/leds.s:17     .text:0000000000003a7d .L7291
      ./words/leds.s:17     .text:0000000000003a78 .L99289
      ./words/leds.s:24     .text:0000000000003aa6 .L8292
      ./words/leds.s:24     .text:0000000000003aa1 .L7292
      ./words/leds.s:24     .text:0000000000003a9c .L99290
      ./words/leds.s:30     .text:0000000000003acd .L8293
      ./words/leds.s:30     .text:0000000000003ac9 .L7293
      ./words/leds.s:30     .text:0000000000003ac4 .L99291
      ./words/leds.s:36     .text:0000000000003af6 .L8294
      ./words/leds.s:36     .text:0000000000003af1 .L7294
      ./words/leds.s:36     .text:0000000000003aec .L99292
      ./words/leds.s:42     .text:0000000000003b1f .L8295
      ./words/leds.s:42     .text:0000000000003b19 .L7295
      ./words/leds.s:42     .text:0000000000003b14 .L99293
      ./words/leds.s:48     .text:0000000000003b45 .L8296
      ./words/leds.s:48     .text:0000000000003b41 .L7296
      ./words/leds.s:48     .text:0000000000003b3c .L99294
      ./words/leds.s:54     .text:0000000000003b70 .L8297
      ./words/leds.s:54     .text:0000000000003b69 .L7297
      ./words/leds.s:54     .text:0000000000003b64 .L99295
      ./words/leds.s:60     .text:0000000000003b96 .L8298
      ./words/leds.s:60     .text:0000000000003b91 .L7298
      ./words/leds.s:60     .text:0000000000003b8c .L99296
     ./words/mtime.s:6      .text:0000000000003bbe .L8299
     ./words/mtime.s:6      .text:0000000000003bb9 .L7299
     ./words/mtime.s:6      .text:0000000000003bb4 .L99297
     ./words/mtime.s:11     .text:0000000000003be5 .L8300
     ./words/mtime.s:11     .text:0000000000003bdd .L7300
../../risc-v/amforth.s:12     .text:0000000000000008 .L981
 ./words/env-board.s:2      .text:0000000000003c06 .L8301
 ./words/env-board.s:2      .text:0000000000003c01 .L7301
 ./words/env-board.s:3      .text:0000000000003c1f .L8302
 ./words/env-board.s:3      .text:0000000000003c11 .L7302
     ./words/mtime.s:11     .text:0000000000003bd8 .L99298
./words/build-info.s:2      .text:0000000000003c37 .L8303
./words/build-info.s:2      .text:0000000000003c2d .L7303
./words/build-info.s:3      .text:0000000000003c5f .L8304
./words/build-info.s:3      .text:0000000000003c41 .L7304
./words/build-info.s:2      .text:0000000000003c28 .L99299
./words/build-info.s:6      .text:0000000000003c75 .L8305
./words/build-info.s:6      .text:0000000000003c6d .L7305
./words/build-info.s:7      .text:0000000000003c85 .L8306
./words/build-info.s:7      .text:0000000000003c81 .L7306
./words/build-info.s:6      .text:0000000000003c68 .L99300
./words/applturnkey.s:2      .text:0000000000003ca3 .L8307
./words/applturnkey.s:2      .text:0000000000003c95 .L7307
./words/applturnkey.s:2      .text:0000000000003c90 .L99301
     ./words/type0.s:2      .text:0000000000003cee .L8308
GAS LISTING hifive1.s 			page 187


     ./words/type0.s:2      .text:0000000000003ce9 .L7308
     ./words/type0.s:2      .text:0000000000003ce4 .L99302
../../shared/words/dump.s:12     .text:0000000000003d57 .L8309
../../shared/words/dump.s:12     .text:0000000000003d51 .L7309
../../shared/words/dump.s:12     .text:0000000000003d4c .L99303
../../shared/words/dump.s:25     .text:0000000000003dbe .L8310
../../shared/words/dump.s:25     .text:0000000000003db9 .L7310
../../shared/words/dump.s:25     .text:0000000000003db4 .L99304
../../shared/words/dump.s:34     .text:0000000000003e0a .L8311
../../shared/words/dump.s:34     .text:0000000000003e05 .L7311
../../shared/words/dump.s:34     .text:0000000000003e00 .L99305
../../shared/words/dump.s:41     .text:0000000000003e5e .L8312
../../shared/words/dump.s:41     .text:0000000000003e59 .L7312
../../shared/words/dump.s:41     .text:0000000000003e54 .L99306
../../shared/words/dump.s:59     .text:0000000000003ec1 .L8313
../../shared/words/dump.s:59     .text:0000000000003ebd .L7313
../../risc-v/amforth.s:12     .text:0000000000000008 .L971
       ./words/csr.s:3      .text:0000000000003f94 .L8314
       ./words/csr.s:3      .text:0000000000003f8d .L7314
       ./words/csr.s:3      .text:0000000000003f88 .L972
       ./words/csr.s:4      .text:0000000000003fb4 .L8315
       ./words/csr.s:4      .text:0000000000003fb1 .L7315
       ./words/csr.s:4      .text:0000000000003fac .L973
       ./words/csr.s:5      .text:0000000000003fd6 .L8316
       ./words/csr.s:5      .text:0000000000003fd1 .L7316
       ./words/csr.s:5      .text:0000000000003fcc .L974
       ./words/csr.s:6      .text:0000000000003ffd .L8317
       ./words/csr.s:6      .text:0000000000003ff5 .L7317
       ./words/csr.s:6      .text:0000000000003ff0 .L975
       ./words/csr.s:7      .text:0000000000004021 .L8318
       ./words/csr.s:7      .text:000000000000401d .L7318
       ./words/csr.s:7      .text:0000000000004018 .L976
       ./words/csr.s:8      .text:0000000000004047 .L8319
       ./words/csr.s:8      .text:0000000000004041 .L7319
       ./words/csr.s:8      .text:000000000000403c .L977
       ./words/csr.s:9      .text:0000000000004070 .L8320
       ./words/csr.s:9      .text:0000000000004065 .L7320
       ./words/csr.s:9      .text:0000000000004060 .L978
       ./words/csr.s:11     .text:0000000000004094 .L8321
       ./words/csr.s:11     .text:000000000000408d .L7321
       ./words/csr.s:11     .text:0000000000004088 .L979
       ./words/csr.s:12     .text:00000000000040b5 .L8322
       ./words/csr.s:12     .text:00000000000040b1 .L7322
       ./words/csr.s:12     .text:00000000000040ac .L9710
       ./words/csr.s:13     .text:00000000000040db .L8323
       ./words/csr.s:13     .text:00000000000040d5 .L7323
       ./words/csr.s:13     .text:00000000000040d0 .L9711
       ./words/csr.s:15     .text:00000000000040ff .L8324
       ./words/csr.s:15     .text:00000000000040f9 .L7324
       ./words/csr.s:15     .text:00000000000040f4 .L9712
       ./words/csr.s:16     .text:0000000000004124 .L8325
       ./words/csr.s:16     .text:000000000000411d .L7325
../../shared/words/dump.s:59     .text:0000000000003eb8 .L99307
       ./words/csr.s:18     .text:0000000000004147 .L8326
       ./words/csr.s:18     .text:0000000000004141 .L7326
 ./words/env-board.s:2      .text:0000000000003bfc .L982
../../shared/words/env-forthname.s:2      .text:0000000000004165 .L8327
GAS LISTING hifive1.s 			page 188


../../shared/words/env-forthname.s:2      .text:0000000000004161 .L7327
../../shared/words/env-forthname.s:3      .text:0000000000004178 .L8328
../../shared/words/env-forthname.s:3      .text:0000000000004171 .L7328
../../shared/words/env-forthname.s:2      .text:000000000000415c .L983
../../shared/words/env-forthversion.s:2      .text:000000000000418c .L8329
../../shared/words/env-forthversion.s:2      .text:0000000000004185 .L7329
../../shared/words/env-forthversion.s:2      .text:0000000000004180 .L984
   ./words/env-cpu.s:2      .text:00000000000041a8 .L8330
   ./words/env-cpu.s:2      .text:00000000000041a5 .L7330
   ./words/env-cpu.s:3      .text:00000000000041b7 .L8331
   ./words/env-cpu.s:3      .text:00000000000041b1 .L7331
   ./words/env-cpu.s:2      .text:00000000000041a0 .L985
../../shared/words/env-usersize.s:2      .text:00000000000041ca .L8332
../../shared/words/env-usersize.s:2      .text:00000000000041c5 .L7332
       ./words/csr.s:18     .text:000000000000413c .L99308
../../risc-v/amforth.s:18     .text:00000000000041f3 .L8333
../../risc-v/amforth.s:18     .text:00000000000041e5 .L7333
       ./words/csr.s:16     .text:0000000000004118 .L9713
../../risc-v/amforth.s:18     .text:00000000000041e0 .L99309
../../risc-v/amforth.s:18     .text:000000000000421c .L8334
../../risc-v/amforth.s:18     .text:0000000000004211 .L7334
../../shared/words/env-usersize.s:2      .text:00000000000041c0 .L986
../../risc-v/amforth.s:18     .text:000000000000420c .L99310
../../risc-v/amforth.s:18     .text:0000000000004247 .L8335
../../risc-v/amforth.s:18     .text:0000000000004239 .L7335
../../risc-v/words/q-dup.s:6      .text:000000000000010c .L11
../../risc-v/words/memory.s:43     .text:00000000000005ec .L31
../../risc-v/words/memory.s:34     .text:00000000000005d4 .L21
../../risc-v/words/memory.s:23     .text:00000000000005b8 .L12
../../risc-v/words/memory.s:77     .text:000000000000064c .L22
../../risc-v/words/memory.s:72     .text:000000000000063c .L13
../../risc-v/words/comparisions.s:136    .text:00000000000008e4 .L14
../../risc-v/words/comparisions.s:146    .text:0000000000000908 .L15
../../risc-v/words/comparisions.s:155    .text:0000000000000930 .L16
../../risc-v/words/comparisions.s:164    .text:0000000000000958 .L17
../../risc-v/words/double.s:93     .text:0000000000000d30 .L18
../../risc-v/words/double.s:102    .text:0000000000000d60 .L23
../../risc-v/words/double.s:70     .text:0000000000000cd0 .L32
../../risc-v/words/cold.s:15     .text:0000000000000f80 .L19
../../risc-v/words/1ms.s:6      .text:00000000000013c0 .L110
../../risc-v/words/compare.s:33     .text:0000000000001440 .L24
../../risc-v/words/compare.s:52     .text:000000000000148c .L41
../../risc-v/words/compare.s:50     .text:0000000000001488 .L33
../../risc-v/words/compare.s:37     .text:000000000000145c .L51
../../risc-v/words/compare.s:41     .text:0000000000001474 .L52
../../risc-v/words/compare.s:28     .text:0000000000001438 .L111
     ./words/usart.s:78     .text:0000000000003944 .L112

NO UNDEFINED SYMBOLS
