
hifive1.elf:     file format elf32-littleriscv


Disassembly of section .text:

20400000 <VE_EXIT-0x8>:
20400000:	7810006f          	j	20400f80 <PFA_COLD>
20400004:	0000                	unimp
	...

20400008 <VE_EXIT>:
20400008:	0008                	0x8
2040000a:	2040                	fld	fs0,128(s0)
2040000c:	0000                	unimp
2040000e:	0000                	unimp
20400010:	6504                	flw	fs1,8(a0)
20400012:	6978                	flw	fa4,84(a0)
20400014:	aa74                	fsd	fa3,208(a2)
20400016:	aaaa                	fsd	fa0,336(sp)

20400018 <XT_EXIT>:
20400018:	001c                	0x1c
2040001a:	2040                	fld	fs0,128(s0)

2040001c <PFA_EXIT>:
2040001c:	00012803          	lw	a6,0(sp)
20400020:	00410113          	addi	sp,sp,4
20400024:	6b40006f          	j	204006d8 <DO_NEXT>

20400028 <VE_DROP>:
20400028:	000c                	0xc
2040002a:	2040                	fld	fs0,128(s0)
2040002c:	0000                	unimp
2040002e:	0000                	unimp
20400030:	6404                	flw	fs1,8(s0)
20400032:	6f72                	flw	ft10,28(sp)
20400034:	aa70                	fsd	fa2,208(a2)
20400036:	aaaa                	fsd	fa0,336(sp)

20400038 <XT_DROP>:
20400038:	003c                	addi	a5,sp,8
2040003a:	2040                	fld	fs0,128(s0)

2040003c <PFA_DROP>:
2040003c:	00022183          	lw	gp,0(tp) # 0 <Flag_visible>
20400040:	00420213          	addi	tp,tp,4 # 4 <USER_FOLLOWER>
20400044:	6940006f          	j	204006d8 <DO_NEXT>

20400048 <VE_SWAP>:
20400048:	002c                	addi	a1,sp,8
2040004a:	2040                	fld	fs0,128(s0)
2040004c:	0000                	unimp
2040004e:	0000                	unimp
20400050:	7304                	flw	fs1,32(a4)
20400052:	aa706177          	0xaa706177
20400056:	aaaa                	fsd	fa0,336(sp)

20400058 <XT_SWAP>:
20400058:	005c                	addi	a5,sp,4
2040005a:	2040                	fld	fs0,128(s0)

2040005c <PFA_SWAP>:
2040005c:	00018293          	mv	t0,gp
20400060:	00022183          	lw	gp,0(tp) # 0 <Flag_visible>
20400064:	00522023          	sw	t0,0(tp) # 0 <Flag_visible>
20400068:	6700006f          	j	204006d8 <DO_NEXT>

2040006c <VE_DUP>:
2040006c:	004c                	addi	a1,sp,4
2040006e:	2040                	fld	fs0,128(s0)
20400070:	0000                	unimp
20400072:	0000                	unimp
20400074:	70756403          	0x70756403

20400078 <XT_DUP>:
20400078:	007c                	addi	a5,sp,12
2040007a:	2040                	fld	fs0,128(s0)

2040007c <PFA_DUP>:
2040007c:	ffc20213          	addi	tp,tp,-4 # fffffffc <Flag_invisible+0xfffffffd>
20400080:	00322023          	sw	gp,0(tp) # 0 <Flag_visible>
20400084:	6540006f          	j	204006d8 <DO_NEXT>

20400088 <VE_NIP>:
20400088:	0070                	addi	a2,sp,12
2040008a:	2040                	fld	fs0,128(s0)
2040008c:	0000                	unimp
2040008e:	0000                	unimp
20400090:	70696e03          	0x70696e03

20400094 <XT_NIP>:
20400094:	0098                	addi	a4,sp,64
20400096:	2040                	fld	fs0,128(s0)

20400098 <PFA_NIP>:
20400098:	00420213          	addi	tp,tp,4 # 4 <USER_FOLLOWER>
2040009c:	63c0006f          	j	204006d8 <DO_NEXT>

204000a0 <VE_OVER>:
204000a0:	008c                	addi	a1,sp,64
204000a2:	2040                	fld	fs0,128(s0)
204000a4:	0000                	unimp
204000a6:	0000                	unimp
204000a8:	6f04                	flw	fs1,24(a4)
204000aa:	6576                	flw	fa0,92(sp)
204000ac:	aa72                	fsd	ft8,272(sp)
204000ae:	aaaa                	fsd	fa0,336(sp)

204000b0 <XT_OVER>:
204000b0:	00b4                	addi	a3,sp,72
204000b2:	2040                	fld	fs0,128(s0)

204000b4 <PFA_OVER>:
204000b4:	ffc20213          	addi	tp,tp,-4 # fffffffc <Flag_invisible+0xfffffffd>
204000b8:	00322023          	sw	gp,0(tp) # 0 <Flag_visible>
204000bc:	00422183          	lw	gp,4(tp) # 4 <USER_FOLLOWER>
204000c0:	6180006f          	j	204006d8 <DO_NEXT>

204000c4 <VE_ROT>:
204000c4:	00a4                	addi	s1,sp,72
204000c6:	2040                	fld	fs0,128(s0)
204000c8:	0000                	unimp
204000ca:	0000                	unimp
204000cc:	746f7203          	0x746f7203

204000d0 <XT_ROT>:
204000d0:	00d4                	addi	a3,sp,68
204000d2:	2040                	fld	fs0,128(s0)

204000d4 <PFA_ROT>:
204000d4:	00022283          	lw	t0,0(tp) # 0 <Flag_visible>
204000d8:	00422303          	lw	t1,4(tp) # 4 <USER_FOLLOWER>
204000dc:	00322023          	sw	gp,0(tp) # 0 <Flag_visible>
204000e0:	00522223          	sw	t0,4(tp) # 4 <USER_FOLLOWER>
204000e4:	00030193          	mv	gp,t1
204000e8:	5f00006f          	j	204006d8 <DO_NEXT>

204000ec <VE_QDUP>:
204000ec:	00c8                	addi	a0,sp,68
204000ee:	2040                	fld	fs0,128(s0)
204000f0:	0000                	unimp
204000f2:	0000                	unimp
204000f4:	3f04                	fld	fs1,56(a4)
204000f6:	7564                	flw	fs1,108(a0)
204000f8:	aa70                	fsd	fa2,208(a2)
204000fa:	aaaa                	fsd	fa0,336(sp)

204000fc <XT_QDUP>:
204000fc:	0100                	addi	s0,sp,128
204000fe:	2040                	fld	fs0,128(s0)

20400100 <PFA_QDUP>:
20400100:	00018663          	beqz	gp,2040010c <PFA_QDUP+0xc>
20400104:	ffc20213          	addi	tp,tp,-4 # fffffffc <Flag_invisible+0xfffffffd>
20400108:	00322023          	sw	gp,0(tp) # 0 <Flag_visible>
2040010c:	5cc0006f          	j	204006d8 <DO_NEXT>

20400110 <VE_TUCK>:
20400110:	00f0                	addi	a2,sp,76
20400112:	2040                	fld	fs0,128(s0)
20400114:	0000                	unimp
20400116:	0000                	unimp
20400118:	7404                	flw	fs1,40(s0)
2040011a:	6375                	lui	t1,0x1d
2040011c:	aaaaaa6b          	0xaaaaaa6b

20400120 <XT_TUCK>:
20400120:	0124                	addi	s1,sp,136
20400122:	2040                	fld	fs0,128(s0)

20400124 <PFA_TUCK>:
20400124:	00022283          	lw	t0,0(tp) # 0 <Flag_visible>
20400128:	ffc20213          	addi	tp,tp,-4 # fffffffc <Flag_invisible+0xfffffffd>
2040012c:	00322223          	sw	gp,4(tp) # 4 <USER_FOLLOWER>
20400130:	00522023          	sw	t0,0(tp) # 0 <Flag_visible>
20400134:	5a40006f          	j	204006d8 <DO_NEXT>

20400138 <VE_MROT>:
20400138:	0114                	addi	a3,sp,128
2040013a:	2040                	fld	fs0,128(s0)
2040013c:	0000                	unimp
2040013e:	0000                	unimp
20400140:	2d04                	fld	fs1,24(a0)
20400142:	6f72                	flw	ft10,28(sp)
20400144:	aa74                	fsd	fa3,208(a2)
20400146:	aaaa                	fsd	fa0,336(sp)

20400148 <XT_MROT>:
20400148:	014c                	addi	a1,sp,132
2040014a:	2040                	fld	fs0,128(s0)

2040014c <PFA_MROT>:
2040014c:	00022283          	lw	t0,0(tp) # 0 <Flag_visible>
20400150:	00422303          	lw	t1,4(tp) # 4 <USER_FOLLOWER>
20400154:	00622023          	sw	t1,0(tp) # 0 <Flag_visible>
20400158:	00322223          	sw	gp,4(tp) # 4 <USER_FOLLOWER>
2040015c:	00028193          	mv	gp,t0
20400160:	5780006f          	j	204006d8 <DO_NEXT>

20400164 <VE_PICK>:
20400164:	013c                	addi	a5,sp,136
20400166:	2040                	fld	fs0,128(s0)
20400168:	0000                	unimp
2040016a:	0000                	unimp
2040016c:	7004                	flw	fs1,32(s0)
2040016e:	6369                	lui	t1,0x1a
20400170:	aaaaaa6b          	0xaaaaaa6b

20400174 <XT_PICK>:
20400174:	0178                	addi	a4,sp,140
20400176:	2040                	fld	fs0,128(s0)

20400178 <PFA_PICK>:
20400178:	00219193          	slli	gp,gp,0x2
2040017c:	004181b3          	add	gp,gp,tp
20400180:	0001a183          	lw	gp,0(gp)
20400184:	5540006f          	j	204006d8 <DO_NEXT>

20400188 <VE_TO_R>:
20400188:	0168                	addi	a0,sp,140
2040018a:	2040                	fld	fs0,128(s0)
2040018c:	0000                	unimp
2040018e:	0000                	unimp
20400190:	3e02                	fld	ft8,32(sp)
20400192:	aa72                	fsd	ft8,272(sp)

20400194 <XT_TO_R>:
20400194:	0198                	addi	a4,sp,192
20400196:	2040                	fld	fs0,128(s0)

20400198 <PFA_TO_R>:
20400198:	ffc10113          	addi	sp,sp,-4
2040019c:	00312023          	sw	gp,0(sp)
204001a0:	e9dff06f          	j	2040003c <PFA_DROP>

204001a4 <VE_R_FROM>:
204001a4:	018c                	addi	a1,sp,192
204001a6:	2040                	fld	fs0,128(s0)
204001a8:	0000                	unimp
204001aa:	0000                	unimp
204001ac:	7202                	flw	ft4,32(sp)
204001ae:	aa3e                	fsd	fa5,272(sp)

204001b0 <XT_R_FROM>:
204001b0:	01b4                	addi	a3,sp,200
204001b2:	2040                	fld	fs0,128(s0)

204001b4 <PFA_R_FROM>:
204001b4:	ffc20213          	addi	tp,tp,-4 # fffffffc <Flag_invisible+0xfffffffd>
204001b8:	00322023          	sw	gp,0(tp) # 0 <Flag_visible>
204001bc:	00012183          	lw	gp,0(sp)
204001c0:	00410113          	addi	sp,sp,4
204001c4:	5140006f          	j	204006d8 <DO_NEXT>

204001c8 <VE_R_FETCH>:
204001c8:	01a8                	addi	a0,sp,200
204001ca:	2040                	fld	fs0,128(s0)
204001cc:	0000                	unimp
204001ce:	0000                	unimp
204001d0:	7202                	flw	ft4,32(sp)
204001d2:	aa40                	fsd	fs0,144(a2)

204001d4 <XT_R_FETCH>:
204001d4:	01d8                	addi	a4,sp,196
204001d6:	2040                	fld	fs0,128(s0)

204001d8 <PFA_R_FETCH>:
204001d8:	ffc20213          	addi	tp,tp,-4 # fffffffc <Flag_invisible+0xfffffffd>
204001dc:	00322023          	sw	gp,0(tp) # 0 <Flag_visible>
204001e0:	00012183          	lw	gp,0(sp)
204001e4:	4f40006f          	j	204006d8 <DO_NEXT>

204001e8 <VE_RP_FETCH>:
204001e8:	01cc                	addi	a1,sp,196
204001ea:	2040                	fld	fs0,128(s0)
204001ec:	0000                	unimp
204001ee:	0000                	unimp
204001f0:	40707203          	0x40707203

204001f4 <XT_RP_FETCH>:
204001f4:	01f8                	addi	a4,sp,204
204001f6:	2040                	fld	fs0,128(s0)

204001f8 <PFA_RP_FETCH>:
204001f8:	ffc20213          	addi	tp,tp,-4 # fffffffc <Flag_invisible+0xfffffffd>
204001fc:	00322023          	sw	gp,0(tp) # 0 <Flag_visible>
20400200:	00010193          	mv	gp,sp
20400204:	4d40006f          	j	204006d8 <DO_NEXT>

20400208 <VE_RP_STORE>:
20400208:	01ec                	addi	a1,sp,204
2040020a:	2040                	fld	fs0,128(s0)
2040020c:	0000                	unimp
2040020e:	0000                	unimp
20400210:	21707203          	0x21707203

20400214 <XT_RP_STORE>:
20400214:	0218                	addi	a4,sp,256
20400216:	2040                	fld	fs0,128(s0)

20400218 <PFA_RP_STORE>:
20400218:	00018113          	mv	sp,gp
2040021c:	00022183          	lw	gp,0(tp) # 0 <Flag_visible>
20400220:	00420213          	addi	tp,tp,4 # 4 <USER_FOLLOWER>
20400224:	4b40006f          	j	204006d8 <DO_NEXT>

20400228 <VE_RP>:
20400228:	020c                	addi	a1,sp,256
2040022a:	2040                	fld	fs0,128(s0)
2040022c:	0101                	addi	sp,sp,0
2040022e:	0000                	unimp
20400230:	7202                	flw	ft4,32(sp)
20400232:	aa70                	fsd	fa2,208(a2)

20400234 <XT_RP>:
20400234:	1328                	addi	a0,sp,424
20400236:	2040                	fld	fs0,128(s0)

20400238 <PFA_RP>:
20400238:	0008                	0x8
	...

2040023c <VE_SP_FETCH>:
2040023c:	022c                	addi	a1,sp,264
2040023e:	2040                	fld	fs0,128(s0)
20400240:	0000                	unimp
20400242:	0000                	unimp
20400244:	40707303          	0x40707303

20400248 <XT_SP_FETCH>:
20400248:	024c                	addi	a1,sp,260
2040024a:	2040                	fld	fs0,128(s0)

2040024c <PFA_SP_FETCH>:
2040024c:	ffc20213          	addi	tp,tp,-4 # fffffffc <Flag_invisible+0xfffffffd>
20400250:	00322023          	sw	gp,0(tp) # 0 <Flag_visible>
20400254:	00020193          	mv	gp,tp
20400258:	4800006f          	j	204006d8 <DO_NEXT>

2040025c <VE_SP_STORE>:
2040025c:	0240                	addi	s0,sp,260
2040025e:	2040                	fld	fs0,128(s0)
20400260:	0000                	unimp
20400262:	0000                	unimp
20400264:	21707303          	0x21707303

20400268 <XT_SP_STORE>:
20400268:	026c                	addi	a1,sp,268
2040026a:	2040                	fld	fs0,128(s0)

2040026c <PFA_SP_STORE>:
2040026c:	00018213          	mv	tp,gp
20400270:	00022183          	lw	gp,0(tp) # 0 <Flag_visible>
20400274:	00420213          	addi	tp,tp,4 # 4 <USER_FOLLOWER>
20400278:	4600006f          	j	204006d8 <DO_NEXT>

2040027c <VE_SP>:
2040027c:	0260                	addi	s0,sp,268
2040027e:	2040                	fld	fs0,128(s0)
20400280:	0101                	addi	sp,sp,0
20400282:	0000                	unimp
20400284:	7302                	flw	ft6,32(sp)
20400286:	aa70                	fsd	fa2,208(a2)

20400288 <XT_SP>:
20400288:	1328                	addi	a0,sp,424
2040028a:	2040                	fld	fs0,128(s0)

2040028c <PFA_SP>:
2040028c:	0010                	0x10
	...

20400290 <VE_SP0>:
20400290:	0280                	addi	s0,sp,320
20400292:	2040                	fld	fs0,128(s0)
20400294:	0101                	addi	sp,sp,0
20400296:	0000                	unimp
20400298:	30707303          	0x30707303

2040029c <XT_SP0>:
2040029c:	1328                	addi	a0,sp,424
2040029e:	2040                	fld	fs0,128(s0)

204002a0 <PFA_SP0>:
204002a0:	000c                	0xc
	...

204002a4 <VE_FETCH>:
204002a4:	0294                	addi	a3,sp,320
204002a6:	2040                	fld	fs0,128(s0)
204002a8:	0000                	unimp
204002aa:	0000                	unimp
204002ac:	4001                	c.li	zero,0
204002ae:	aaaa                	fsd	fa0,336(sp)

204002b0 <XT_FETCH>:
204002b0:	02b4                	addi	a3,sp,328
204002b2:	2040                	fld	fs0,128(s0)

204002b4 <PFA_FETCH>:
204002b4:	0001a183          	lw	gp,0(gp)
204002b8:	4200006f          	j	204006d8 <DO_NEXT>

204002bc <VE_STORE>:
204002bc:	02a8                	addi	a0,sp,328
204002be:	2040                	fld	fs0,128(s0)
204002c0:	0000                	unimp
204002c2:	0000                	unimp
204002c4:	2101                	jal	204006c4 <PFA_CSTORE+0xc>
204002c6:	aaaa                	fsd	fa0,336(sp)

204002c8 <XT_STORE>:
204002c8:	02cc                	addi	a1,sp,324
204002ca:	2040                	fld	fs0,128(s0)

204002cc <PFA_STORE>:
204002cc:	00022283          	lw	t0,0(tp) # 0 <Flag_visible>
204002d0:	0051a023          	sw	t0,0(gp)
204002d4:	00422183          	lw	gp,4(tp) # 4 <USER_FOLLOWER>
204002d8:	00820213          	addi	tp,tp,8 # 8 <USER_RP>
204002dc:	3fc0006f          	j	204006d8 <DO_NEXT>

204002e0 <VE_NEGATE>:
204002e0:	02c0                	addi	s0,sp,324
204002e2:	2040                	fld	fs0,128(s0)
204002e4:	0000                	unimp
204002e6:	0000                	unimp
204002e8:	6e06                	flw	ft8,64(sp)
204002ea:	6765                	lui	a4,0x19
204002ec:	7461                	lui	s0,0xffff8
204002ee:	aa65                	j	204004a6 <PFA_AND+0x2>

204002f0 <XT_NEGATE>:
204002f0:	02f4                	addi	a3,sp,332
204002f2:	2040                	fld	fs0,128(s0)

204002f4 <PFA_NEGATE>:
204002f4:	fff1c193          	not	gp,gp
204002f8:	00118193          	addi	gp,gp,1
204002fc:	3dc0006f          	j	204006d8 <DO_NEXT>

20400300 <VE_ABS>:
20400300:	02e4                	addi	s1,sp,332
20400302:	2040                	fld	fs0,128(s0)
20400304:	0000                	unimp
20400306:	0000                	unimp
20400308:	73626103          	0x73626103

2040030c <XT_ABS>:
2040030c:	0310                	addi	a2,sp,384
2040030e:	2040                	fld	fs0,128(s0)

20400310 <PFA_ABS>:
20400310:	41f1d293          	srai	t0,gp,0x1f
20400314:	005181b3          	add	gp,gp,t0
20400318:	0051c1b3          	xor	gp,gp,t0
2040031c:	3bc0006f          	j	204006d8 <DO_NEXT>

20400320 <VE_STAR>:
20400320:	0304                	addi	s1,sp,384
20400322:	2040                	fld	fs0,128(s0)
20400324:	0000                	unimp
20400326:	0000                	unimp
20400328:	2a01                	jal	20400438 <PFA_DEPTH+0xc>
2040032a:	aaaa                	fsd	fa0,336(sp)

2040032c <XT_STAR>:
2040032c:	0330                	addi	a2,sp,392
2040032e:	2040                	fld	fs0,128(s0)

20400330 <PFA_STAR>:
20400330:	00022283          	lw	t0,0(tp) # 0 <Flag_visible>
20400334:	00420213          	addi	tp,tp,4 # 4 <USER_FOLLOWER>
20400338:	023281b3          	mul	gp,t0,gp
2040033c:	39c0006f          	j	204006d8 <DO_NEXT>

20400340 <VE_UMSTAR>:
20400340:	0324                	addi	s1,sp,392
20400342:	2040                	fld	fs0,128(s0)
20400344:	0000                	unimp
20400346:	0000                	unimp
20400348:	2a6d7503          	0x2a6d7503

2040034c <XT_UMSTAR>:
2040034c:	0350                	addi	a2,sp,388
2040034e:	2040                	fld	fs0,128(s0)

20400350 <PFA_UMSTAR>:
20400350:	00022283          	lw	t0,0(tp) # 0 <Flag_visible>
20400354:	02328333          	mul	t1,t0,gp
20400358:	00622023          	sw	t1,0(tp) # 0 <Flag_visible>
2040035c:	0232b1b3          	mulhu	gp,t0,gp
20400360:	3780006f          	j	204006d8 <DO_NEXT>

20400364 <VE_MSTAR>:
20400364:	0344                	addi	s1,sp,388
20400366:	2040                	fld	fs0,128(s0)
20400368:	0000                	unimp
2040036a:	0000                	unimp
2040036c:	6d02                	flw	fs10,0(sp)
2040036e:	aa2a                	fsd	fa0,272(sp)

20400370 <XT_MSTAR>:
20400370:	0374                	addi	a3,sp,396
20400372:	2040                	fld	fs0,128(s0)

20400374 <PFA_MSTAR>:
20400374:	00022283          	lw	t0,0(tp) # 0 <Flag_visible>
20400378:	02328333          	mul	t1,t0,gp
2040037c:	00622023          	sw	t1,0(tp) # 0 <Flag_visible>
20400380:	023291b3          	mulh	gp,t0,gp
20400384:	3540006f          	j	204006d8 <DO_NEXT>

20400388 <VE_SLASH>:
20400388:	0368                	addi	a0,sp,396
2040038a:	2040                	fld	fs0,128(s0)
2040038c:	0000                	unimp
2040038e:	0000                	unimp
20400390:	2f01                	jal	20400aa0 <VE_D2STAR>
20400392:	aaaa                	fsd	fa0,336(sp)

20400394 <XT_SLASH>:
20400394:	0398                	addi	a4,sp,448
20400396:	2040                	fld	fs0,128(s0)

20400398 <PFA_SLASH>:
20400398:	00022283          	lw	t0,0(tp) # 0 <Flag_visible>
2040039c:	00420213          	addi	tp,tp,4 # 4 <USER_FOLLOWER>
204003a0:	0232c1b3          	div	gp,t0,gp
204003a4:	3340006f          	j	204006d8 <DO_NEXT>

204003a8 <VE_MOD>:
204003a8:	038c                	addi	a1,sp,448
204003aa:	2040                	fld	fs0,128(s0)
204003ac:	0000                	unimp
204003ae:	0000                	unimp
204003b0:	646f6d03          	0x646f6d03

204003b4 <XT_MOD>:
204003b4:	03b8                	addi	a4,sp,456
204003b6:	2040                	fld	fs0,128(s0)

204003b8 <PFA_MOD>:
204003b8:	00022283          	lw	t0,0(tp) # 0 <Flag_visible>
204003bc:	00420213          	addi	tp,tp,4 # 4 <USER_FOLLOWER>
204003c0:	0232e1b3          	rem	gp,t0,gp
204003c4:	3140006f          	j	204006d8 <DO_NEXT>

204003c8 <VE_U_SLASH_MOD>:
204003c8:	03ac                	addi	a1,sp,456
204003ca:	2040                	fld	fs0,128(s0)
204003cc:	0000                	unimp
204003ce:	0000                	unimp
204003d0:	7505                	lui	a0,0xfffe1
204003d2:	646f6d2f          	0x646f6d2f
204003d6:	aaaa                	fsd	fa0,336(sp)

204003d8 <XT_U_SLASH_MOD>:
204003d8:	03dc                	addi	a5,sp,452
204003da:	2040                	fld	fs0,128(s0)

204003dc <PFA_U_SLASH_MOD>:
204003dc:	00022283          	lw	t0,0(tp) # 0 <Flag_visible>
204003e0:	0232f333          	remu	t1,t0,gp
204003e4:	00622023          	sw	t1,0(tp) # 0 <Flag_visible>
204003e8:	0232d1b3          	divu	gp,t0,gp
204003ec:	2ec0006f          	j	204006d8 <DO_NEXT>

204003f0 <VE_SLASHMOD>:
204003f0:	03cc                	addi	a1,sp,452
204003f2:	2040                	fld	fs0,128(s0)
204003f4:	0000                	unimp
204003f6:	0000                	unimp
204003f8:	2f04                	fld	fs1,24(a4)
204003fa:	6f6d                	lui	t5,0x1b
204003fc:	aa64                	fsd	fs1,208(a2)
204003fe:	aaaa                	fsd	fa0,336(sp)

20400400 <XT_SLASHMOD>:
20400400:	0404                	addi	s1,sp,512
20400402:	2040                	fld	fs0,128(s0)

20400404 <PFA_SLASHMOD>:
20400404:	00022283          	lw	t0,0(tp) # 0 <Flag_visible>
20400408:	0232e333          	rem	t1,t0,gp
2040040c:	00622023          	sw	t1,0(tp) # 0 <Flag_visible>
20400410:	0232c1b3          	div	gp,t0,gp
20400414:	2c40006f          	j	204006d8 <DO_NEXT>

20400418 <VE_DEPTH>:
20400418:	03f4                	addi	a3,sp,460
2040041a:	2040                	fld	fs0,128(s0)
2040041c:	0000                	unimp
2040041e:	0000                	unimp
20400420:	6405                	lui	s0,0x1
20400422:	7065                	c.lui	zero,0xffff9
20400424:	6874                	flw	fa3,84(s0)
20400426:	aaaa                	fsd	fa0,336(sp)

20400428 <XT_DEPTH>:
20400428:	042c                	addi	a1,sp,520
2040042a:	2040                	fld	fs0,128(s0)

2040042c <PFA_DEPTH>:
2040042c:	800002b7          	lui	t0,0x80000
20400430:	08028293          	addi	t0,t0,128 # 80000080 <Flag_invisible+0x80000081>
20400434:	404282b3          	sub	t0,t0,tp
20400438:	ffc20213          	addi	tp,tp,-4 # fffffffc <Flag_invisible+0xfffffffd>
2040043c:	00322023          	sw	gp,0(tp) # 0 <Flag_visible>
20400440:	4022d193          	srai	gp,t0,0x2
20400444:	2940006f          	j	204006d8 <DO_NEXT>

20400448 <VE_RDEPTH>:
20400448:	041c                	addi	a5,sp,512
2040044a:	2040                	fld	fs0,128(s0)
2040044c:	0000                	unimp
2040044e:	0000                	unimp
20400450:	7206                	flw	ft4,96(sp)
20400452:	6564                	flw	fs1,76(a0)
20400454:	7470                	flw	fa2,108(s0)
20400456:	aa68                	fsd	fa0,208(a2)

20400458 <XT_RDEPTH>:
20400458:	045c                	addi	a5,sp,516
2040045a:	2040                	fld	fs0,128(s0)

2040045c <PFA_RDEPTH>:
2040045c:	800002b7          	lui	t0,0x80000
20400460:	10028293          	addi	t0,t0,256 # 80000100 <Flag_invisible+0x80000101>
20400464:	402282b3          	sub	t0,t0,sp
20400468:	ffc20213          	addi	tp,tp,-4 # fffffffc <Flag_invisible+0xfffffffd>
2040046c:	00322023          	sw	gp,0(tp) # 0 <Flag_visible>
20400470:	4022d193          	srai	gp,t0,0x2
20400474:	2640006f          	j	204006d8 <DO_NEXT>

20400478 <VE_RDROP>:
20400478:	044c                	addi	a1,sp,516
2040047a:	2040                	fld	fs0,128(s0)
2040047c:	0000                	unimp
2040047e:	0000                	unimp
20400480:	7205                	lui	tp,0xfffe1
20400482:	7264                	flw	fs1,100(a2)
20400484:	aaaa706f          	j	203a772e <UART0_DIV+0x10394716>

20400488 <XT_RDROP>:
20400488:	048c                	addi	a1,sp,576
2040048a:	2040                	fld	fs0,128(s0)

2040048c <PFA_RDROP>:
2040048c:	00410113          	addi	sp,sp,4
20400490:	2480006f          	j	204006d8 <DO_NEXT>

20400494 <VE_AND>:
20400494:	047c                	addi	a5,sp,524
20400496:	2040                	fld	fs0,128(s0)
20400498:	0000                	unimp
2040049a:	0000                	unimp
2040049c:	646e6103          	0x646e6103

204004a0 <XT_AND>:
204004a0:	04a4                	addi	s1,sp,584
204004a2:	2040                	fld	fs0,128(s0)

204004a4 <PFA_AND>:
204004a4:	00022283          	lw	t0,0(tp) # fffe1000 <Flag_invisible+0xfffe1001>
204004a8:	00420213          	addi	tp,tp,4 # 4 <USER_FOLLOWER>
204004ac:	0032f1b3          	and	gp,t0,gp
204004b0:	2280006f          	j	204006d8 <DO_NEXT>

204004b4 <VE_OR>:
204004b4:	0498                	addi	a4,sp,576
204004b6:	2040                	fld	fs0,128(s0)
204004b8:	0000                	unimp
204004ba:	0000                	unimp
204004bc:	6f02                	flw	ft10,0(sp)
204004be:	aa72                	fsd	ft8,272(sp)

204004c0 <XT_OR>:
204004c0:	04c4                	addi	s1,sp,580
204004c2:	2040                	fld	fs0,128(s0)

204004c4 <PFA_OR>:
204004c4:	00022283          	lw	t0,0(tp) # 0 <Flag_visible>
204004c8:	00420213          	addi	tp,tp,4 # 4 <USER_FOLLOWER>
204004cc:	0032e1b3          	or	gp,t0,gp
204004d0:	2080006f          	j	204006d8 <DO_NEXT>

204004d4 <VE_XOR>:
204004d4:	04b8                	addi	a4,sp,584
204004d6:	2040                	fld	fs0,128(s0)
204004d8:	0000                	unimp
204004da:	0000                	unimp
204004dc:	726f7803          	0x726f7803

204004e0 <XT_XOR>:
204004e0:	04e4                	addi	s1,sp,588
204004e2:	2040                	fld	fs0,128(s0)

204004e4 <PFA_XOR>:
204004e4:	00022283          	lw	t0,0(tp) # 0 <Flag_visible>
204004e8:	00420213          	addi	tp,tp,4 # 4 <USER_FOLLOWER>
204004ec:	0032c1b3          	xor	gp,t0,gp
204004f0:	1e80006f          	j	204006d8 <DO_NEXT>

204004f4 <VE_NOT>:
204004f4:	04d8                	addi	a4,sp,580
204004f6:	2040                	fld	fs0,128(s0)
204004f8:	0000                	unimp
204004fa:	0000                	unimp
204004fc:	746f6e03          	0x746f6e03

20400500 <XT_NOT>:
20400500:	0504                	addi	s1,sp,640
20400502:	2040                	fld	fs0,128(s0)

20400504 <PFA_NOT>:
20400504:	fff1c193          	not	gp,gp
20400508:	1d00006f          	j	204006d8 <DO_NEXT>

2040050c <VE_INVERT>:
2040050c:	04f8                	addi	a4,sp,588
2040050e:	2040                	fld	fs0,128(s0)
20400510:	0000                	unimp
20400512:	0000                	unimp
20400514:	6906                	flw	fs2,64(sp)
20400516:	766e                	flw	fa2,248(sp)
20400518:	7265                	lui	tp,0xffff9
2040051a:	aa74                	fsd	fa3,208(a2)

2040051c <XT_INVERT>:
2040051c:	0520                	addi	s0,sp,648
2040051e:	2040                	fld	fs0,128(s0)

20400520 <PFA_INVERT>:
20400520:	fff1c193          	not	gp,gp
20400524:	1b40006f          	j	204006d8 <DO_NEXT>

20400528 <VE_RSHIFT>:
20400528:	0510                	addi	a2,sp,640
2040052a:	2040                	fld	fs0,128(s0)
2040052c:	0000                	unimp
2040052e:	0000                	unimp
20400530:	7206                	flw	ft4,96(sp)
20400532:	66696873          	csrrsi	a6,0x666,18
20400536:	aa74                	fsd	fa3,208(a2)

20400538 <XT_RSHIFT>:
20400538:	053c                	addi	a5,sp,648
2040053a:	2040                	fld	fs0,128(s0)

2040053c <PFA_RSHIFT>:
2040053c:	00022283          	lw	t0,0(tp) # ffff9000 <Flag_invisible+0xffff9001>
20400540:	00420213          	addi	tp,tp,4 # 4 <USER_FOLLOWER>
20400544:	0032d1b3          	srl	gp,t0,gp
20400548:	1900006f          	j	204006d8 <DO_NEXT>

2040054c <VE_LSHIFT>:
2040054c:	052c                	addi	a1,sp,648
2040054e:	2040                	fld	fs0,128(s0)
20400550:	0000                	unimp
20400552:	0000                	unimp
20400554:	6c06                	flw	fs8,64(sp)
20400556:	66696873          	csrrsi	a6,0x666,18
2040055a:	aa74                	fsd	fa3,208(a2)

2040055c <XT_LSHIFT>:
2040055c:	0560                	addi	s0,sp,652
2040055e:	2040                	fld	fs0,128(s0)

20400560 <PFA_LSHIFT>:
20400560:	00022283          	lw	t0,0(tp) # 0 <Flag_visible>
20400564:	00420213          	addi	tp,tp,4 # 4 <USER_FOLLOWER>
20400568:	003291b3          	sll	gp,t0,gp
2040056c:	16c0006f          	j	204006d8 <DO_NEXT>

20400570 <VE_MOVE>:
20400570:	0550                	addi	a2,sp,644
20400572:	2040                	fld	fs0,128(s0)
20400574:	0000                	unimp
20400576:	0000                	unimp
20400578:	6d04                	flw	fs1,24(a0)
2040057a:	aa65766f          	jal	a2,20357820 <UART0_DIV+0x10344808>
2040057e:	aaaa                	fsd	fa0,336(sp)

20400580 <XT_MOVE>:
20400580:	0584                	addi	s1,sp,704
20400582:	2040                	fld	fs0,128(s0)

20400584 <PFA_MOVE>:
20400584:	ff410113          	addi	sp,sp,-12
20400588:	00112423          	sw	ra,8(sp)
2040058c:	00a12223          	sw	a0,4(sp)
20400590:	00b12023          	sw	a1,0(sp)
20400594:	00018513          	mv	a0,gp
20400598:	00022583          	lw	a1,0(tp) # 0 <Flag_visible>
2040059c:	00422183          	lw	gp,4(tp) # 4 <USER_FOLLOWER>
204005a0:	00820213          	addi	tp,tp,8 # 8 <USER_RP>
204005a4:	04050463          	beqz	a0,204005ec <PFA_MOVE+0x68>
204005a8:	04358263          	beq	a1,gp,204005ec <PFA_MOVE+0x68>
204005ac:	0236e463          	bltu	a3,gp,204005d4 <PFA_MOVE+0x50>
204005b0:	fff18193          	addi	gp,gp,-1
204005b4:	fff58113          	addi	sp,a1,-1
204005b8:	00a182b3          	add	t0,gp,a0
204005bc:	0002c283          	lbu	t0,0(t0)
204005c0:	00a58333          	add	t1,a1,a0
204005c4:	00530023          	sb	t0,0(t1) # 1a000 <CLINT_MTIME+0xe008>
204005c8:	fff50513          	addi	a0,a0,-1 # fffe0fff <Flag_invisible+0xfffe1000>
204005cc:	fe0516e3          	bnez	a0,204005b8 <PFA_MOVE+0x34>
204005d0:	01c0006f          	j	204005ec <PFA_MOVE+0x68>
204005d4:	0001c283          	lbu	t0,0(gp)
204005d8:	00558023          	sb	t0,0(a1)
204005dc:	00118193          	addi	gp,gp,1
204005e0:	00158593          	addi	a1,a1,1
204005e4:	fff50513          	addi	a0,a0,-1
204005e8:	fe0516e3          	bnez	a0,204005d4 <PFA_MOVE+0x50>
204005ec:	00022183          	lw	gp,0(tp) # 0 <Flag_visible>
204005f0:	00420213          	addi	tp,tp,4 # 4 <USER_FOLLOWER>
204005f4:	00812083          	lw	ra,8(sp)
204005f8:	00412503          	lw	a0,4(sp)
204005fc:	00012583          	lw	a1,0(sp)
20400600:	00c10113          	addi	sp,sp,12
20400604:	0d40006f          	j	204006d8 <DO_NEXT>

20400608 <VE_FILL>:
20400608:	0574                	addi	a3,sp,652
2040060a:	2040                	fld	fs0,128(s0)
2040060c:	0000                	unimp
2040060e:	0000                	unimp
20400610:	6604                	flw	fs1,8(a2)
20400612:	6c69                	lui	s8,0x1a
20400614:	aa6c                	fsd	fa1,208(a2)
20400616:	aaaa                	fsd	fa0,336(sp)

20400618 <XT_FILL>:
20400618:	061c                	addi	a5,sp,768
2040061a:	2040                	fld	fs0,128(s0)

2040061c <PFA_FILL>:
2040061c:	ff810113          	addi	sp,sp,-8
20400620:	00a12223          	sw	a0,4(sp)
20400624:	00b12023          	sw	a1,0(sp)
20400628:	00018513          	mv	a0,gp
2040062c:	00022583          	lw	a1,0(tp) # 0 <Flag_visible>
20400630:	00422183          	lw	gp,4(tp) # 4 <USER_FOLLOWER>
20400634:	00820213          	addi	tp,tp,8 # 8 <USER_RP>
20400638:	00058a63          	beqz	a1,2040064c <PFA_FILL+0x30>
2040063c:	fff58593          	addi	a1,a1,-1
20400640:	00b182b3          	add	t0,gp,a1
20400644:	00a28023          	sb	a0,0(t0)
20400648:	fe059ae3          	bnez	a1,2040063c <PFA_FILL+0x20>
2040064c:	00022183          	lw	gp,0(tp) # 0 <Flag_visible>
20400650:	00420213          	addi	tp,tp,4 # 4 <USER_FOLLOWER>
20400654:	00412503          	lw	a0,4(sp)
20400658:	00012583          	lw	a1,0(sp)
2040065c:	00810113          	addi	sp,sp,8
20400660:	0780006f          	j	204006d8 <DO_NEXT>

20400664 <VE_PLUSSTORE>:
20400664:	060c                	addi	a1,sp,768
20400666:	2040                	fld	fs0,128(s0)
20400668:	0000                	unimp
2040066a:	0000                	unimp
2040066c:	2b02                	fld	fs6,0(sp)
2040066e:	aa21                	j	20400786 <PFA_LESSEQUAL+0x12>

20400670 <XT_PLUSSTORE>:
20400670:	0674                	addi	a3,sp,780
20400672:	2040                	fld	fs0,128(s0)

20400674 <PFA_PLUSSTORE>:
20400674:	00022283          	lw	t0,0(tp) # 0 <Flag_visible>
20400678:	0001a303          	lw	t1,0(gp)
2040067c:	006282b3          	add	t0,t0,t1
20400680:	0051a023          	sw	t0,0(gp)
20400684:	00422183          	lw	gp,4(tp) # 4 <USER_FOLLOWER>
20400688:	00820213          	addi	tp,tp,8 # 8 <USER_RP>
2040068c:	04c0006f          	j	204006d8 <DO_NEXT>

20400690 <VE_CFETCH>:
20400690:	0668                	addi	a0,sp,780
20400692:	2040                	fld	fs0,128(s0)
20400694:	0000                	unimp
20400696:	0000                	unimp
20400698:	6302                	flw	ft6,0(sp)
2040069a:	aa40                	fsd	fs0,144(a2)

2040069c <XT_CFETCH>:
2040069c:	06a0                	addi	s0,sp,840
2040069e:	2040                	fld	fs0,128(s0)

204006a0 <PFA_CFETCH>:
204006a0:	0001c183          	lbu	gp,0(gp)
204006a4:	0340006f          	j	204006d8 <DO_NEXT>

204006a8 <VE_CSTORE>:
204006a8:	0694                	addi	a3,sp,832
204006aa:	2040                	fld	fs0,128(s0)
204006ac:	0000                	unimp
204006ae:	0000                	unimp
204006b0:	6302                	flw	ft6,0(sp)
204006b2:	aa21                	j	204007ca <PFA_GREATER+0xa>

204006b4 <XT_CSTORE>:
204006b4:	06b8                	addi	a4,sp,840
204006b6:	2040                	fld	fs0,128(s0)

204006b8 <PFA_CSTORE>:
204006b8:	00022283          	lw	t0,0(tp) # 0 <Flag_visible>
204006bc:	00518023          	sb	t0,0(gp)
204006c0:	00422183          	lw	gp,4(tp) # 4 <USER_FOLLOWER>
204006c4:	00820213          	addi	tp,tp,8 # 8 <USER_RP>
204006c8:	0100006f          	j	204006d8 <DO_NEXT>

204006cc <DOCOLON>:
204006cc:	ffc10113          	addi	sp,sp,-4
204006d0:	01012023          	sw	a6,0(sp)
204006d4:	00088813          	mv	a6,a7

204006d8 <DO_NEXT>:
204006d8:	00082883          	lw	a7,0(a6)
204006dc:	00480813          	addi	a6,a6,4

204006e0 <DO_EXECUTE>:
204006e0:	0008a503          	lw	a0,0(a7)
204006e4:	00488893          	addi	a7,a7,4
204006e8:	00050067          	jr	a0

204006ec <VE_ZEROEQUAL>:
204006ec:	06ac                	addi	a1,sp,840
204006ee:	2040                	fld	fs0,128(s0)
204006f0:	0000                	unimp
204006f2:	0000                	unimp
204006f4:	3002                	fld	ft0,32(sp)
204006f6:	aa3d                	j	20400834 <PFA_ULESS+0x4>

204006f8 <XT_ZEROEQUAL>:
204006f8:	06fc                	addi	a5,sp,844
204006fa:	2040                	fld	fs0,128(s0)

204006fc <PFA_ZEROEQUAL>:
204006fc:	0011b193          	seqz	gp,gp
20400700:	fff18193          	addi	gp,gp,-1
20400704:	fff1c193          	not	gp,gp
20400708:	fd1ff06f          	j	204006d8 <DO_NEXT>

2040070c <VE_NOTZEROEQUAL>:
2040070c:	06f0                	addi	a2,sp,844
2040070e:	2040                	fld	fs0,128(s0)
20400710:	0000                	unimp
20400712:	0000                	unimp
20400714:	3e3c3003          	0x3e3c3003

20400718 <XT_NOTZEROEQUAL>:
20400718:	071c                	addi	a5,sp,896
2040071a:	2040                	fld	fs0,128(s0)

2040071c <PFA_NOTZEROEQUAL>:
2040071c:	0011b193          	seqz	gp,gp
20400720:	fff18193          	addi	gp,gp,-1
20400724:	fb5ff06f          	j	204006d8 <DO_NEXT>

20400728 <VE_ZEROLESS>:
20400728:	0710                	addi	a2,sp,896
2040072a:	2040                	fld	fs0,128(s0)
2040072c:	0000                	unimp
2040072e:	0000                	unimp
20400730:	3002                	fld	ft0,32(sp)
20400732:	aa3c                	fsd	fa5,80(a2)

20400734 <XT_ZEROLESS>:
20400734:	0738                	addi	a4,sp,904
20400736:	2040                	fld	fs0,128(s0)

20400738 <PFA_ZEROLESS>:
20400738:	41f1d193          	srai	gp,gp,0x1f
2040073c:	f9dff06f          	j	204006d8 <DO_NEXT>

20400740 <VE_GREATEREQUAL>:
20400740:	072c                	addi	a1,sp,904
20400742:	2040                	fld	fs0,128(s0)
20400744:	0000                	unimp
20400746:	0000                	unimp
20400748:	3e02                	fld	ft8,32(sp)
2040074a:	aa3d                	j	20400888 <PFA_NOTEQUAL+0x8>

2040074c <XT_GREATEREQUAL>:
2040074c:	0750                	addi	a2,sp,900
2040074e:	2040                	fld	fs0,128(s0)

20400750 <PFA_GREATEREQUAL>:
20400750:	00022283          	lw	t0,0(tp) # 0 <Flag_visible>
20400754:	00420213          	addi	tp,tp,4 # 4 <USER_FOLLOWER>
20400758:	0032a1b3          	slt	gp,t0,gp
2040075c:	fff18193          	addi	gp,gp,-1
20400760:	f79ff06f          	j	204006d8 <DO_NEXT>

20400764 <VE_LESSEQUAL>:
20400764:	0744                	addi	s1,sp,900
20400766:	2040                	fld	fs0,128(s0)
20400768:	0000                	unimp
2040076a:	0000                	unimp
2040076c:	3c02                	fld	fs8,32(sp)
2040076e:	aa3d                	j	204008ac <PFA_EQUAL+0x4>

20400770 <XT_LESSEQUAL>:
20400770:	0774                	addi	a3,sp,908
20400772:	2040                	fld	fs0,128(s0)

20400774 <PFA_LESSEQUAL>:
20400774:	00022283          	lw	t0,0(tp) # 0 <Flag_visible>
20400778:	00420213          	addi	tp,tp,4 # 4 <USER_FOLLOWER>
2040077c:	0051a1b3          	slt	gp,gp,t0
20400780:	fff18193          	addi	gp,gp,-1
20400784:	f55ff06f          	j	204006d8 <DO_NEXT>

20400788 <VE_LESS>:
20400788:	0768                	addi	a0,sp,908
2040078a:	2040                	fld	fs0,128(s0)
2040078c:	0000                	unimp
2040078e:	0000                	unimp
20400790:	3c01                	jal	204001a0 <PFA_TO_R+0x8>
20400792:	aaaa                	fsd	fa0,336(sp)

20400794 <XT_LESS>:
20400794:	0798                	addi	a4,sp,960
20400796:	2040                	fld	fs0,128(s0)

20400798 <PFA_LESS>:
20400798:	00022283          	lw	t0,0(tp) # 0 <Flag_visible>
2040079c:	00420213          	addi	tp,tp,4 # 4 <USER_FOLLOWER>
204007a0:	0032a1b3          	slt	gp,t0,gp
204007a4:	fff18193          	addi	gp,gp,-1
204007a8:	fff1c193          	not	gp,gp
204007ac:	f2dff06f          	j	204006d8 <DO_NEXT>

204007b0 <VE_GREATER>:
204007b0:	078c                	addi	a1,sp,960
204007b2:	2040                	fld	fs0,128(s0)
204007b4:	0000                	unimp
204007b6:	0000                	unimp
204007b8:	3e01                	jal	204002c8 <XT_STORE>
204007ba:	aaaa                	fsd	fa0,336(sp)

204007bc <XT_GREATER>:
204007bc:	07c0                	addi	s0,sp,964
204007be:	2040                	fld	fs0,128(s0)

204007c0 <PFA_GREATER>:
204007c0:	00022283          	lw	t0,0(tp) # 0 <Flag_visible>
204007c4:	00420213          	addi	tp,tp,4 # 4 <USER_FOLLOWER>
204007c8:	0051a1b3          	slt	gp,gp,t0
204007cc:	fff18193          	addi	gp,gp,-1
204007d0:	fff1c193          	not	gp,gp
204007d4:	f05ff06f          	j	204006d8 <DO_NEXT>

204007d8 <VE_UGREATEREQUAL>:
204007d8:	07b4                	addi	a3,sp,968
204007da:	2040                	fld	fs0,128(s0)
204007dc:	0000                	unimp
204007de:	0000                	unimp
204007e0:	3d3e7503          	0x3d3e7503

204007e4 <XT_UGREATEREQUAL>:
204007e4:	07e8                	addi	a0,sp,972
204007e6:	2040                	fld	fs0,128(s0)

204007e8 <PFA_UGREATEREQUAL>:
204007e8:	00022283          	lw	t0,0(tp) # 0 <Flag_visible>
204007ec:	00420213          	addi	tp,tp,4 # 4 <USER_FOLLOWER>
204007f0:	0032b1b3          	sltu	gp,t0,gp
204007f4:	fff18193          	addi	gp,gp,-1
204007f8:	ee1ff06f          	j	204006d8 <DO_NEXT>

204007fc <VE_ULESSEQUAL>:
204007fc:	07dc                	addi	a5,sp,964
204007fe:	2040                	fld	fs0,128(s0)
20400800:	0000                	unimp
20400802:	0000                	unimp
20400804:	3d3c7503          	0x3d3c7503

20400808 <XT_ULESSEQUAL>:
20400808:	080c                	addi	a1,sp,16
2040080a:	2040                	fld	fs0,128(s0)

2040080c <PFA_ULESSEQUAL>:
2040080c:	00022283          	lw	t0,0(tp) # 0 <Flag_visible>
20400810:	00420213          	addi	tp,tp,4 # 4 <USER_FOLLOWER>
20400814:	0051b1b3          	sltu	gp,gp,t0
20400818:	fff18193          	addi	gp,gp,-1
2040081c:	ebdff06f          	j	204006d8 <DO_NEXT>

20400820 <VE_ULESS>:
20400820:	0800                	addi	s0,sp,16
20400822:	2040                	fld	fs0,128(s0)
20400824:	0000                	unimp
20400826:	0000                	unimp
20400828:	7502                	flw	fa0,32(sp)
2040082a:	aa3c                	fsd	fa5,80(a2)

2040082c <XT_ULESS>:
2040082c:	0830                	addi	a2,sp,24
2040082e:	2040                	fld	fs0,128(s0)

20400830 <PFA_ULESS>:
20400830:	00022283          	lw	t0,0(tp) # 0 <Flag_visible>
20400834:	00420213          	addi	tp,tp,4 # 4 <USER_FOLLOWER>
20400838:	0032b1b3          	sltu	gp,t0,gp
2040083c:	fff18193          	addi	gp,gp,-1
20400840:	fff1c193          	not	gp,gp
20400844:	e95ff06f          	j	204006d8 <DO_NEXT>

20400848 <VE_UGREATER>:
20400848:	0824                	addi	s1,sp,24
2040084a:	2040                	fld	fs0,128(s0)
2040084c:	0000                	unimp
2040084e:	0000                	unimp
20400850:	7502                	flw	fa0,32(sp)
20400852:	aa3e                	fsd	fa5,272(sp)

20400854 <XT_UGREATER>:
20400854:	0858                	addi	a4,sp,20
20400856:	2040                	fld	fs0,128(s0)

20400858 <PFA_UGREATER>:
20400858:	00022283          	lw	t0,0(tp) # 0 <Flag_visible>
2040085c:	00420213          	addi	tp,tp,4 # 4 <USER_FOLLOWER>
20400860:	0051b1b3          	sltu	gp,gp,t0
20400864:	fff18193          	addi	gp,gp,-1
20400868:	fff1c193          	not	gp,gp
2040086c:	e6dff06f          	j	204006d8 <DO_NEXT>

20400870 <VE_NOTEQUAL>:
20400870:	084c                	addi	a1,sp,20
20400872:	2040                	fld	fs0,128(s0)
20400874:	0000                	unimp
20400876:	0000                	unimp
20400878:	3c02                	fld	fs8,32(sp)
2040087a:	aa3e                	fsd	fa5,272(sp)

2040087c <XT_NOTEQUAL>:
2040087c:	0880                	addi	s0,sp,80
2040087e:	2040                	fld	fs0,128(s0)

20400880 <PFA_NOTEQUAL>:
20400880:	00022283          	lw	t0,0(tp) # 0 <Flag_visible>
20400884:	00420213          	addi	tp,tp,4 # 4 <USER_FOLLOWER>
20400888:	0051c1b3          	xor	gp,gp,t0
2040088c:	0011b193          	seqz	gp,gp
20400890:	fff18193          	addi	gp,gp,-1
20400894:	e45ff06f          	j	204006d8 <DO_NEXT>

20400898 <VE_EQUAL>:
20400898:	0874                	addi	a3,sp,28
2040089a:	2040                	fld	fs0,128(s0)
2040089c:	0000                	unimp
2040089e:	0000                	unimp
204008a0:	3d01                	jal	204006b0 <VE_CSTORE+0x8>
204008a2:	aaaa                	fsd	fa0,336(sp)

204008a4 <XT_EQUAL>:
204008a4:	08a8                	addi	a0,sp,88
204008a6:	2040                	fld	fs0,128(s0)

204008a8 <PFA_EQUAL>:
204008a8:	00022283          	lw	t0,0(tp) # 0 <Flag_visible>
204008ac:	00420213          	addi	tp,tp,4 # 4 <USER_FOLLOWER>
204008b0:	0051c1b3          	xor	gp,gp,t0
204008b4:	0011b193          	seqz	gp,gp
204008b8:	fff18193          	addi	gp,gp,-1
204008bc:	fff1c193          	not	gp,gp
204008c0:	e19ff06f          	j	204006d8 <DO_NEXT>

204008c4 <VE_MIN>:
204008c4:	089c                	addi	a5,sp,80
204008c6:	2040                	fld	fs0,128(s0)
204008c8:	0000                	unimp
204008ca:	0000                	unimp
204008cc:	6e696d03          	0x6e696d03

204008d0 <XT_MIN>:
204008d0:	08d4                	addi	a3,sp,84
204008d2:	2040                	fld	fs0,128(s0)

204008d4 <PFA_MIN>:
204008d4:	00022283          	lw	t0,0(tp) # 0 <Flag_visible>
204008d8:	00420213          	addi	tp,tp,4 # 4 <USER_FOLLOWER>
204008dc:	0051c463          	blt	gp,t0,204008e4 <PFA_MIN+0x10>
204008e0:	00028193          	mv	gp,t0
204008e4:	df5ff06f          	j	204006d8 <DO_NEXT>

204008e8 <VE_MAX>:
204008e8:	08c8                	addi	a0,sp,84
204008ea:	2040                	fld	fs0,128(s0)
204008ec:	0000                	unimp
204008ee:	0000                	unimp
204008f0:	78616d03          	0x78616d03

204008f4 <XT_MAX>:
204008f4:	08f8                	addi	a4,sp,92
204008f6:	2040                	fld	fs0,128(s0)

204008f8 <PFA_MAX>:
204008f8:	00022283          	lw	t0,0(tp) # 0 <Flag_visible>
204008fc:	00420213          	addi	tp,tp,4 # 4 <USER_FOLLOWER>
20400900:	0032c463          	blt	t0,gp,20400908 <PFA_MAX+0x10>
20400904:	00028193          	mv	gp,t0
20400908:	dd1ff06f          	j	204006d8 <DO_NEXT>

2040090c <VE_UMIN>:
2040090c:	08ec                	addi	a1,sp,92
2040090e:	2040                	fld	fs0,128(s0)
20400910:	0000                	unimp
20400912:	0000                	unimp
20400914:	7504                	flw	fs1,40(a0)
20400916:	696d                	lui	s2,0x1b
20400918:	aa6e                	fsd	fs11,272(sp)
2040091a:	aaaa                	fsd	fa0,336(sp)

2040091c <XT_UMIN>:
2040091c:	0920                	addi	s0,sp,152
2040091e:	2040                	fld	fs0,128(s0)

20400920 <PFA_UMIN>:
20400920:	00022283          	lw	t0,0(tp) # 0 <Flag_visible>
20400924:	00420213          	addi	tp,tp,4 # 4 <USER_FOLLOWER>
20400928:	0051e463          	bltu	gp,t0,20400930 <PFA_UMIN+0x10>
2040092c:	00028193          	mv	gp,t0
20400930:	da9ff06f          	j	204006d8 <DO_NEXT>

20400934 <VE_UMAX>:
20400934:	0910                	addi	a2,sp,144
20400936:	2040                	fld	fs0,128(s0)
20400938:	0000                	unimp
2040093a:	0000                	unimp
2040093c:	7504                	flw	fs1,40(a0)
2040093e:	616d                	addi	sp,sp,240
20400940:	aa78                	fsd	fa4,208(a2)
20400942:	aaaa                	fsd	fa0,336(sp)

20400944 <XT_UMAX>:
20400944:	0948                	addi	a0,sp,148
20400946:	2040                	fld	fs0,128(s0)

20400948 <PFA_UMAX>:
20400948:	00022283          	lw	t0,0(tp) # 0 <Flag_visible>
2040094c:	00420213          	addi	tp,tp,4 # 4 <USER_FOLLOWER>
20400950:	0032e463          	bltu	t0,gp,20400958 <PFA_UMAX+0x10>
20400954:	00028193          	mv	gp,t0
20400958:	d81ff06f          	j	204006d8 <DO_NEXT>

2040095c <VE_2SWAP>:
2040095c:	0938                	addi	a4,sp,152
2040095e:	2040                	fld	fs0,128(s0)
20400960:	0000                	unimp
20400962:	0000                	unimp
20400964:	3205                	jal	20400284 <VE_SP+0x8>
20400966:	70617773          	csrrci	a4,0x706,2
2040096a:	aaaa                	fsd	fa0,336(sp)

2040096c <XT_2SWAP>:
2040096c:	0970                	addi	a2,sp,156
2040096e:	2040                	fld	fs0,128(s0)

20400970 <PFA_2SWAP>:
20400970:	00018293          	mv	t0,gp
20400974:	00422183          	lw	gp,4(tp) # 4 <USER_FOLLOWER>
20400978:	00522223          	sw	t0,4(tp) # 4 <USER_FOLLOWER>
2040097c:	00022283          	lw	t0,0(tp) # 0 <Flag_visible>
20400980:	00822303          	lw	t1,8(tp) # 8 <USER_RP>
20400984:	00522423          	sw	t0,8(tp) # 8 <USER_RP>
20400988:	00622023          	sw	t1,0(tp) # 0 <Flag_visible>
2040098c:	d4dff06f          	j	204006d8 <DO_NEXT>

20400990 <VE_2NIP>:
20400990:	0960                	addi	s0,sp,156
20400992:	2040                	fld	fs0,128(s0)
20400994:	0000                	unimp
20400996:	0000                	unimp
20400998:	3204                	fld	fs1,32(a2)
2040099a:	696e                	flw	fs2,216(sp)
2040099c:	aa70                	fsd	fa2,208(a2)
2040099e:	aaaa                	fsd	fa0,336(sp)

204009a0 <XT_2NIP>:
204009a0:	09a4                	addi	s1,sp,216
204009a2:	2040                	fld	fs0,128(s0)

204009a4 <PFA_2NIP>:
204009a4:	00022283          	lw	t0,0(tp) # 0 <Flag_visible>
204009a8:	00820213          	addi	tp,tp,8 # 8 <USER_RP>
204009ac:	00522023          	sw	t0,0(tp) # 0 <Flag_visible>
204009b0:	d29ff06f          	j	204006d8 <DO_NEXT>

204009b4 <VE_2DROP>:
204009b4:	0994                	addi	a3,sp,208
204009b6:	2040                	fld	fs0,128(s0)
204009b8:	0000                	unimp
204009ba:	0000                	unimp
204009bc:	3205                	jal	204002dc <PFA_STORE+0x10>
204009be:	7264                	flw	fs1,100(a2)
204009c0:	aaaa706f          	j	203a7c6a <UART0_DIV+0x10394c52>

204009c4 <XT_2DROP>:
204009c4:	09c8                	addi	a0,sp,212
204009c6:	2040                	fld	fs0,128(s0)

204009c8 <PFA_2DROP>:
204009c8:	00422183          	lw	gp,4(tp) # 4 <USER_FOLLOWER>
204009cc:	00820213          	addi	tp,tp,8 # 8 <USER_RP>
204009d0:	d09ff06f          	j	204006d8 <DO_NEXT>

204009d4 <VE_2OVER>:
204009d4:	09b8                	addi	a4,sp,216
204009d6:	2040                	fld	fs0,128(s0)
204009d8:	0000                	unimp
204009da:	0000                	unimp
204009dc:	3205                	jal	204002fc <PFA_NEGATE+0x8>
204009de:	7265766f          	jal	a2,20458104 <FlashEnd+0x48104>
204009e2:	aaaa                	fsd	fa0,336(sp)

204009e4 <XT_2OVER>:
204009e4:	09e8                	addi	a0,sp,220
204009e6:	2040                	fld	fs0,128(s0)

204009e8 <PFA_2OVER>:
204009e8:	ffc20213          	addi	tp,tp,-4 # fffffffc <Flag_invisible+0xfffffffd>
204009ec:	00322023          	sw	gp,0(tp) # 0 <Flag_visible>
204009f0:	00c22183          	lw	gp,12(tp) # c <USER_SP0>
204009f4:	ffc20213          	addi	tp,tp,-4 # fffffffc <Flag_invisible+0xfffffffd>
204009f8:	00322023          	sw	gp,0(tp) # 0 <Flag_visible>
204009fc:	00c22183          	lw	gp,12(tp) # c <USER_SP0>
20400a00:	cd9ff06f          	j	204006d8 <DO_NEXT>

20400a04 <VE_2RFETCH>:
20400a04:	09d8                	addi	a4,sp,212
20400a06:	2040                	fld	fs0,128(s0)
20400a08:	0000                	unimp
20400a0a:	0000                	unimp
20400a0c:	40723203          	0x40723203

20400a10 <XT_2RFETCH>:
20400a10:	0a14                	addi	a3,sp,272
20400a12:	2040                	fld	fs0,128(s0)

20400a14 <PFA_2RFETCH>:
20400a14:	ffc20213          	addi	tp,tp,-4 # fffffffc <Flag_invisible+0xfffffffd>
20400a18:	00322023          	sw	gp,0(tp) # 0 <Flag_visible>
20400a1c:	00412183          	lw	gp,4(sp)
20400a20:	ffc20213          	addi	tp,tp,-4 # fffffffc <Flag_invisible+0xfffffffd>
20400a24:	00322023          	sw	gp,0(tp) # 0 <Flag_visible>
20400a28:	00012183          	lw	gp,0(sp)
20400a2c:	cadff06f          	j	204006d8 <DO_NEXT>

20400a30 <VE_2TO_R>:
20400a30:	0a08                	addi	a0,sp,272
20400a32:	2040                	fld	fs0,128(s0)
20400a34:	0000                	unimp
20400a36:	0000                	unimp
20400a38:	723e3203          	0x723e3203

20400a3c <XT_2TO_R>:
20400a3c:	0a40                	addi	s0,sp,276
20400a3e:	2040                	fld	fs0,128(s0)

20400a40 <PFA_2TO_R>:
20400a40:	00018293          	mv	t0,gp
20400a44:	00022183          	lw	gp,0(tp) # 0 <Flag_visible>
20400a48:	00420213          	addi	tp,tp,4 # 4 <USER_FOLLOWER>
20400a4c:	ffc10113          	addi	sp,sp,-4
20400a50:	00312023          	sw	gp,0(sp)
20400a54:	00022183          	lw	gp,0(tp) # 0 <Flag_visible>
20400a58:	00420213          	addi	tp,tp,4 # 4 <USER_FOLLOWER>
20400a5c:	ffc10113          	addi	sp,sp,-4
20400a60:	00512023          	sw	t0,0(sp)
20400a64:	c75ff06f          	j	204006d8 <DO_NEXT>

20400a68 <VE_2R_FROM>:
20400a68:	0a34                	addi	a3,sp,280
20400a6a:	2040                	fld	fs0,128(s0)
20400a6c:	0000                	unimp
20400a6e:	0000                	unimp
20400a70:	3e723203          	0x3e723203

20400a74 <XT_2R_FROM>:
20400a74:	0a78                	addi	a4,sp,284
20400a76:	2040                	fld	fs0,128(s0)

20400a78 <PFA_2R_FROM>:
20400a78:	ffc20213          	addi	tp,tp,-4 # fffffffc <Flag_invisible+0xfffffffd>
20400a7c:	00322023          	sw	gp,0(tp) # 0 <Flag_visible>
20400a80:	00012283          	lw	t0,0(sp)
20400a84:	00410113          	addi	sp,sp,4
20400a88:	00012183          	lw	gp,0(sp)
20400a8c:	00410113          	addi	sp,sp,4
20400a90:	ffc20213          	addi	tp,tp,-4 # fffffffc <Flag_invisible+0xfffffffd>
20400a94:	00322023          	sw	gp,0(tp) # 0 <Flag_visible>
20400a98:	00028193          	mv	gp,t0
20400a9c:	c3dff06f          	j	204006d8 <DO_NEXT>

20400aa0 <VE_D2STAR>:
20400aa0:	0a6c                	addi	a1,sp,284
20400aa2:	2040                	fld	fs0,128(s0)
20400aa4:	0000                	unimp
20400aa6:	0000                	unimp
20400aa8:	2a326403          	0x2a326403

20400aac <XT_D2STAR>:
20400aac:	0ab0                	addi	a2,sp,344
20400aae:	2040                	fld	fs0,128(s0)

20400ab0 <PFA_D2STAR>:
20400ab0:	00022283          	lw	t0,0(tp) # 0 <Flag_visible>
20400ab4:	01f2d313          	srli	t1,t0,0x1f
20400ab8:	005282b3          	add	t0,t0,t0
20400abc:	003181b3          	add	gp,gp,gp
20400ac0:	0061e1b3          	or	gp,gp,t1
20400ac4:	00522023          	sw	t0,0(tp) # 0 <Flag_visible>
20400ac8:	c11ff06f          	j	204006d8 <DO_NEXT>

20400acc <VE_D2SLASH>:
20400acc:	0aa4                	addi	s1,sp,344
20400ace:	2040                	fld	fs0,128(s0)
20400ad0:	0000                	unimp
20400ad2:	0000                	unimp
20400ad4:	2f326403          	0x2f326403

20400ad8 <XT_D2SLASH>:
20400ad8:	0adc                	addi	a5,sp,340
20400ada:	2040                	fld	fs0,128(s0)

20400adc <PFA_D2SLASH>:
20400adc:	00022283          	lw	t0,0(tp) # 0 <Flag_visible>
20400ae0:	01f19313          	slli	t1,gp,0x1f
20400ae4:	4011d193          	srai	gp,gp,0x1
20400ae8:	0012d293          	srli	t0,t0,0x1
20400aec:	0062e2b3          	or	t0,t0,t1
20400af0:	00522023          	sw	t0,0(tp) # 0 <Flag_visible>
20400af4:	be5ff06f          	j	204006d8 <DO_NEXT>

20400af8 <VE_DABS>:
20400af8:	0ad0                	addi	a2,sp,340
20400afa:	2040                	fld	fs0,128(s0)
20400afc:	0000                	unimp
20400afe:	0000                	unimp
20400b00:	6404                	flw	fs1,8(s0)
20400b02:	6261                	lui	tp,0x18
20400b04:	aaaaaa73          	csrrs	s4,0xaaa,s5

20400b08 <XT_DABS>:
20400b08:	06cc                	addi	a1,sp,836
20400b0a:	2040                	fld	fs0,128(s0)

20400b0c <PFA_DABS>:
20400b0c:	0078                	addi	a4,sp,12
20400b0e:	2040                	fld	fs0,128(s0)
20400b10:	0734                	addi	a3,sp,904
20400b12:	2040                	fld	fs0,128(s0)
20400b14:	13d8                	addi	a4,sp,484
20400b16:	2040                	fld	fs0,128(s0)
20400b18:	0b20                	addi	s0,sp,408
20400b1a:	2040                	fld	fs0,128(s0)
20400b1c:	0b34                	addi	a3,sp,408
20400b1e:	2040                	fld	fs0,128(s0)

20400b20 <DABS_LEAVE>:
20400b20:	0018                	0x18
20400b22:	2040                	fld	fs0,128(s0)

20400b24 <VE_DNEGATE>:
20400b24:	0afc                	addi	a5,sp,348
20400b26:	2040                	fld	fs0,128(s0)
20400b28:	0000                	unimp
20400b2a:	0000                	unimp
20400b2c:	656e6407          	0x656e6407
20400b30:	65746167          	0x65746167

20400b34 <XT_DNEGATE>:
20400b34:	0b38                	addi	a4,sp,408
20400b36:	2040                	fld	fs0,128(s0)

20400b38 <PFA_DNEGATE>:
20400b38:	00022283          	lw	t0,0(tp) # 18000 <CLINT_MTIME+0xc008>
20400b3c:	fff2c293          	not	t0,t0
20400b40:	fff1c193          	not	gp,gp
20400b44:	00522023          	sw	t0,0(tp) # 0 <Flag_visible>
20400b48:	ffc20213          	addi	tp,tp,-4 # fffffffc <Flag_invisible+0xfffffffd>
20400b4c:	00322023          	sw	gp,0(tp) # 0 <Flag_visible>
20400b50:	00100193          	li	gp,1
20400b54:	ffc20213          	addi	tp,tp,-4 # fffffffc <Flag_invisible+0xfffffffd>
20400b58:	00322023          	sw	gp,0(tp) # 0 <Flag_visible>
20400b5c:	00000193          	li	gp,0
20400b60:	0140006f          	j	20400b74 <PFA_DPLUS>

20400b64 <VE_DPLUS>:
20400b64:	0b28                	addi	a0,sp,408
20400b66:	2040                	fld	fs0,128(s0)
20400b68:	0000                	unimp
20400b6a:	0000                	unimp
20400b6c:	6402                	flw	fs0,0(sp)
20400b6e:	          	0xb74aa2b

20400b70 <XT_DPLUS>:
20400b70:	0b74                	addi	a3,sp,412
20400b72:	2040                	fld	fs0,128(s0)

20400b74 <PFA_DPLUS>:
20400b74:	ffc10113          	addi	sp,sp,-4
20400b78:	00a12023          	sw	a0,0(sp)
20400b7c:	00822283          	lw	t0,8(tp) # 8 <USER_RP>
20400b80:	00022303          	lw	t1,0(tp) # 0 <Flag_visible>
20400b84:	00628533          	add	a0,t0,t1
20400b88:	00a22423          	sw	a0,8(tp) # 8 <USER_RP>
20400b8c:	00553533          	sltu	a0,a0,t0
20400b90:	00422283          	lw	t0,4(tp) # 4 <USER_FOLLOWER>
20400b94:	003281b3          	add	gp,t0,gp
20400b98:	00a181b3          	add	gp,gp,a0
20400b9c:	00820213          	addi	tp,tp,8 # 8 <USER_RP>
20400ba0:	00012503          	lw	a0,0(sp)
20400ba4:	00410113          	addi	sp,sp,4
20400ba8:	b31ff06f          	j	204006d8 <DO_NEXT>

20400bac <VE_DMINUS>:
20400bac:	0b68                	addi	a0,sp,412
20400bae:	2040                	fld	fs0,128(s0)
20400bb0:	0000                	unimp
20400bb2:	0000                	unimp
20400bb4:	6402                	flw	fs0,0(sp)
20400bb6:	aa2d                	j	20400cf0 <ud_slash_mod_internal+0x54>

20400bb8 <XT_DMINUS>:
20400bb8:	0bbc                	addi	a5,sp,472
20400bba:	2040                	fld	fs0,128(s0)

20400bbc <PFA_DMINUS>:
20400bbc:	ffc10113          	addi	sp,sp,-4
20400bc0:	00a12023          	sw	a0,0(sp)
20400bc4:	00822283          	lw	t0,8(tp) # 8 <USER_RP>
20400bc8:	00022303          	lw	t1,0(tp) # 0 <Flag_visible>
20400bcc:	40628533          	sub	a0,t0,t1
20400bd0:	00a22423          	sw	a0,8(tp) # 8 <USER_RP>
20400bd4:	0062b533          	sltu	a0,t0,t1
20400bd8:	00422283          	lw	t0,4(tp) # 4 <USER_FOLLOWER>
20400bdc:	403281b3          	sub	gp,t0,gp
20400be0:	40a181b3          	sub	gp,gp,a0
20400be4:	00820213          	addi	tp,tp,8 # 8 <USER_RP>
20400be8:	00012503          	lw	a0,0(sp)
20400bec:	00410113          	addi	sp,sp,4
20400bf0:	ae9ff06f          	j	204006d8 <DO_NEXT>

20400bf4 <VE_2DUP>:
20400bf4:	0bb0                	addi	a2,sp,472
20400bf6:	2040                	fld	fs0,128(s0)
20400bf8:	0000                	unimp
20400bfa:	0000                	unimp
20400bfc:	3204                	fld	fs1,32(a2)
20400bfe:	7564                	flw	fs1,108(a0)
20400c00:	aa70                	fsd	fa2,208(a2)
20400c02:	aaaa                	fsd	fa0,336(sp)

20400c04 <XT_2DUP>:
20400c04:	0c08                	addi	a0,sp,528
20400c06:	2040                	fld	fs0,128(s0)

20400c08 <PFA_2DUP>:
20400c08:	00022283          	lw	t0,0(tp) # 0 <Flag_visible>
20400c0c:	ff820213          	addi	tp,tp,-8 # fffffff8 <Flag_invisible+0xfffffff9>
20400c10:	00322223          	sw	gp,4(tp) # 4 <USER_FOLLOWER>
20400c14:	00522023          	sw	t0,0(tp) # 0 <Flag_visible>
20400c18:	ac1ff06f          	j	204006d8 <DO_NEXT>

20400c1c <VE_S2D>:
20400c1c:	0bf8                	addi	a4,sp,476
20400c1e:	2040                	fld	fs0,128(s0)
20400c20:	0000                	unimp
20400c22:	0000                	unimp
20400c24:	643e7303          	0x643e7303

20400c28 <XT_S2D>:
20400c28:	0c2c                	addi	a1,sp,536
20400c2a:	2040                	fld	fs0,128(s0)

20400c2c <PFA_S2D>:
20400c2c:	ffc20213          	addi	tp,tp,-4 # fffffffc <Flag_invisible+0xfffffffd>
20400c30:	00322023          	sw	gp,0(tp) # 0 <Flag_visible>
20400c34:	41f1d193          	srai	gp,gp,0x1f
20400c38:	aa1ff06f          	j	204006d8 <DO_NEXT>

20400c3c <VE_UMSLASHMOD>:
20400c3c:	0c20                	addi	s0,sp,536
20400c3e:	2040                	fld	fs0,128(s0)
20400c40:	0000                	unimp
20400c42:	0000                	unimp
20400c44:	7506                	flw	fa0,96(sp)
20400c46:	2f6d                	jal	20401400 <PFA_DOLITERAL+0x8>
20400c48:	6f6d                	lui	t5,0x1b
20400c4a:	aa64                	fsd	fs1,208(a2)

20400c4c <XT_UMSLASHMOD>:
20400c4c:	06cc                	addi	a1,sp,836
20400c4e:	2040                	fld	fs0,128(s0)

20400c50 <PFA_UMSLASHMOD>:
20400c50:	1524                	addi	s1,sp,680
20400c52:	2040                	fld	fs0,128(s0)
20400c54:	0c74                	addi	a3,sp,540
20400c56:	2040                	fld	fs0,128(s0)
20400c58:	0094                	addi	a3,sp,64
20400c5a:	2040                	fld	fs0,128(s0)
20400c5c:	0094                	addi	a3,sp,64
20400c5e:	2040                	fld	fs0,128(s0)
20400c60:	0018                	0x18
20400c62:	2040                	fld	fs0,128(s0)

20400c64 <VE_UDSLASHMOD>:
20400c64:	0c40                	addi	s0,sp,532
20400c66:	2040                	fld	fs0,128(s0)
20400c68:	0000                	unimp
20400c6a:	0000                	unimp
20400c6c:	7506                	flw	fa0,96(sp)
20400c6e:	2f64                	fld	fs1,216(a4)
20400c70:	6f6d                	lui	t5,0x1b
20400c72:	aa64                	fsd	fs1,208(a2)

20400c74 <XT_UDSLASHMOD>:
20400c74:	0c78                	addi	a4,sp,540
20400c76:	2040                	fld	fs0,128(s0)

20400c78 <PFA_UDSLASHMOD>:
20400c78:	ff010113          	addi	sp,sp,-16
20400c7c:	00a12623          	sw	a0,12(sp)
20400c80:	00b12423          	sw	a1,8(sp)
20400c84:	00c12223          	sw	a2,4(sp)
20400c88:	00d12023          	sw	a3,0(sp)
20400c8c:	00000693          	li	a3,0
20400c90:	00000613          	li	a2,0
20400c94:	00422583          	lw	a1,4(tp) # 4 <USER_FOLLOWER>
20400c98:	00822503          	lw	a0,8(tp) # 8 <USER_RP>

20400c9c <ud_slash_mod_internal>:
20400c9c:	ffc10113          	addi	sp,sp,-4
20400ca0:	00e12023          	sw	a4,0(sp)
20400ca4:	ffc10113          	addi	sp,sp,-4
20400ca8:	00f12023          	sw	a5,0(sp)
20400cac:	ffc10113          	addi	sp,sp,-4
20400cb0:	00712023          	sw	t2,0(sp)
20400cb4:	ffc10113          	addi	sp,sp,-4
20400cb8:	00812023          	sw	s0,0(sp)
20400cbc:	ffc10113          	addi	sp,sp,-4
20400cc0:	00912023          	sw	s1,0(sp)
20400cc4:	00018793          	mv	a5,gp
20400cc8:	00022703          	lw	a4,0(tp) # 0 <Flag_visible>
20400ccc:	04000193          	li	gp,64
20400cd0:	00000293          	li	t0,0
20400cd4:	00a503b3          	add	t2,a0,a0
20400cd8:	00a3b433          	sltu	s0,t2,a0
20400cdc:	00538533          	add	a0,t2,t0
20400ce0:	007534b3          	sltu	s1,a0,t2
20400ce4:	009462b3          	or	t0,s0,s1
20400ce8:	00b583b3          	add	t2,a1,a1
20400cec:	00b3b433          	sltu	s0,t2,a1
20400cf0:	005385b3          	add	a1,t2,t0
20400cf4:	0075b4b3          	sltu	s1,a1,t2
20400cf8:	009462b3          	or	t0,s0,s1
20400cfc:	00c603b3          	add	t2,a2,a2
20400d00:	00c3b433          	sltu	s0,t2,a2
20400d04:	00538633          	add	a2,t2,t0
20400d08:	007634b3          	sltu	s1,a2,t2
20400d0c:	009462b3          	or	t0,s0,s1
20400d10:	00d683b3          	add	t2,a3,a3
20400d14:	00d3b433          	sltu	s0,t2,a3
20400d18:	005386b3          	add	a3,t2,t0
20400d1c:	0076b4b3          	sltu	s1,a3,t2
20400d20:	009462b3          	or	t0,s0,s1
20400d24:	00d7e663          	bltu	a5,a3,20400d30 <ud_slash_mod_internal+0x94>
20400d28:	02f6ec63          	bltu	a3,a5,20400d60 <ud_slash_mod_internal+0xc4>
20400d2c:	02e66a63          	bltu	a2,a4,20400d60 <ud_slash_mod_internal+0xc4>
20400d30:	00000293          	li	t0,0
20400d34:	40e603b3          	sub	t2,a2,a4
20400d38:	00e63433          	sltu	s0,a2,a4
20400d3c:	40538633          	sub	a2,t2,t0
20400d40:	0053b4b3          	sltu	s1,t2,t0
20400d44:	009462b3          	or	t0,s0,s1
20400d48:	40f683b3          	sub	t2,a3,a5
20400d4c:	00f6b433          	sltu	s0,a3,a5
20400d50:	405386b3          	sub	a3,t2,t0
20400d54:	0053b4b3          	sltu	s1,t2,t0
20400d58:	009462b3          	or	t0,s0,s1
20400d5c:	00150513          	addi	a0,a0,1
20400d60:	fff18193          	addi	gp,gp,-1
20400d64:	f60196e3          	bnez	gp,20400cd0 <ud_slash_mod_internal+0x34>
20400d68:	00058193          	mv	gp,a1
20400d6c:	00a22023          	sw	a0,0(tp) # 0 <Flag_visible>
20400d70:	00d22223          	sw	a3,4(tp) # 4 <USER_FOLLOWER>
20400d74:	00c22423          	sw	a2,8(tp) # 8 <USER_RP>
20400d78:	00012483          	lw	s1,0(sp)
20400d7c:	00410113          	addi	sp,sp,4
20400d80:	00012403          	lw	s0,0(sp)
20400d84:	00410113          	addi	sp,sp,4
20400d88:	00012383          	lw	t2,0(sp)
20400d8c:	00410113          	addi	sp,sp,4
20400d90:	01412503          	lw	a0,20(sp)
20400d94:	01012583          	lw	a1,16(sp)
20400d98:	00c12603          	lw	a2,12(sp)
20400d9c:	00812683          	lw	a3,8(sp)
20400da0:	00412703          	lw	a4,4(sp)
20400da4:	00012783          	lw	a5,0(sp)
20400da8:	01810113          	addi	sp,sp,24
20400dac:	92dff06f          	j	204006d8 <DO_NEXT>

20400db0 <VE_DZEROLESS>:
20400db0:	0c68                	addi	a0,sp,540
20400db2:	2040                	fld	fs0,128(s0)
20400db4:	0000                	unimp
20400db6:	0000                	unimp
20400db8:	3c306403          	0x3c306403

20400dbc <XT_DZEROLESS>:
20400dbc:	0dc0                	addi	s0,sp,724
20400dbe:	2040                	fld	fs0,128(s0)

20400dc0 <PFA_DZEROLESS>:
20400dc0:	00420213          	addi	tp,tp,4 # 4 <USER_FOLLOWER>
20400dc4:	41f1d193          	srai	gp,gp,0x1f
20400dc8:	911ff06f          	j	204006d8 <DO_NEXT>

20400dcc <VE_DZEROEQUAL>:
20400dcc:	0db4                	addi	a3,sp,728
20400dce:	2040                	fld	fs0,128(s0)
20400dd0:	0000                	unimp
20400dd2:	0000                	unimp
20400dd4:	3d306403          	0x3d306403

20400dd8 <XT_DZEROEQUAL>:
20400dd8:	0ddc                	addi	a5,sp,724
20400dda:	2040                	fld	fs0,128(s0)

20400ddc <PFA_DZEROEQUAL>:
20400ddc:	00022283          	lw	t0,0(tp) # 0 <Flag_visible>
20400de0:	00420213          	addi	tp,tp,4 # 4 <USER_FOLLOWER>
20400de4:	0051e1b3          	or	gp,gp,t0
20400de8:	0011b193          	seqz	gp,gp
20400dec:	fff18193          	addi	gp,gp,-1
20400df0:	fff1c193          	not	gp,gp
20400df4:	8e5ff06f          	j	204006d8 <DO_NEXT>

20400df8 <VE_BASE>:
20400df8:	0dd0                	addi	a2,sp,724
20400dfa:	2040                	fld	fs0,128(s0)
20400dfc:	0101                	addi	sp,sp,0
20400dfe:	0000                	unimp
20400e00:	6204                	flw	fs1,0(a2)
20400e02:	7361                	lui	t1,0xffff8
20400e04:	aa65                	j	20400fbc <PFA_COLD+0x3c>
20400e06:	aaaa                	fsd	fa0,336(sp)

20400e08 <XT_BASE>:
20400e08:	1328                	addi	a0,sp,424
20400e0a:	2040                	fld	fs0,128(s0)

20400e0c <PFA_BASE>:
20400e0c:	0018                	0x18
	...

20400e10 <VE_PLUS>:
20400e10:	0dfc                	addi	a5,sp,732
20400e12:	2040                	fld	fs0,128(s0)
20400e14:	0000                	unimp
20400e16:	0000                	unimp
20400e18:	2b01                	jal	20401328 <PFA_DOUSER>
20400e1a:	aaaa                	fsd	fa0,336(sp)

20400e1c <XT_PLUS>:
20400e1c:	0e20                	addi	s0,sp,792
20400e1e:	2040                	fld	fs0,128(s0)

20400e20 <PFA_PLUS>:
20400e20:	00022283          	lw	t0,0(tp) # 0 <Flag_visible>
20400e24:	00420213          	addi	tp,tp,4 # 4 <USER_FOLLOWER>
20400e28:	003281b3          	add	gp,t0,gp
20400e2c:	8adff06f          	j	204006d8 <DO_NEXT>

20400e30 <VE_MINUS>:
20400e30:	0e14                	addi	a3,sp,784
20400e32:	2040                	fld	fs0,128(s0)
20400e34:	0000                	unimp
20400e36:	0000                	unimp
20400e38:	2d01                	jal	20401448 <PFA_COMPARE+0x28>
20400e3a:	aaaa                	fsd	fa0,336(sp)

20400e3c <XT_MINUS>:
20400e3c:	0e40                	addi	s0,sp,788
20400e3e:	2040                	fld	fs0,128(s0)

20400e40 <PFA_MINUS>:
20400e40:	00022283          	lw	t0,0(tp) # 0 <Flag_visible>
20400e44:	00420213          	addi	tp,tp,4 # 4 <USER_FOLLOWER>
20400e48:	403281b3          	sub	gp,t0,gp
20400e4c:	88dff06f          	j	204006d8 <DO_NEXT>

20400e50 <VE_1PLUS>:
20400e50:	0e34                	addi	a3,sp,792
20400e52:	2040                	fld	fs0,128(s0)
20400e54:	0000                	unimp
20400e56:	0000                	unimp
20400e58:	3102                	fld	ft2,32(sp)
20400e5a:	          	0xe60aa2b

20400e5c <XT_1PLUS>:
20400e5c:	0e60                	addi	s0,sp,796
20400e5e:	2040                	fld	fs0,128(s0)

20400e60 <PFA_1PLUS>:
20400e60:	00118193          	addi	gp,gp,1
20400e64:	875ff06f          	j	204006d8 <DO_NEXT>

20400e68 <VE_1MINUS>:
20400e68:	0e54                	addi	a3,sp,788
20400e6a:	2040                	fld	fs0,128(s0)
20400e6c:	0000                	unimp
20400e6e:	0000                	unimp
20400e70:	3102                	fld	ft2,32(sp)
20400e72:	aa2d                	j	20400fac <PFA_COLD+0x2c>

20400e74 <XT_1MINUS>:
20400e74:	0e78                	addi	a4,sp,796
20400e76:	2040                	fld	fs0,128(s0)

20400e78 <PFA_1MINUS>:
20400e78:	fff18193          	addi	gp,gp,-1
20400e7c:	85dff06f          	j	204006d8 <DO_NEXT>

20400e80 <VE_2PLUS>:
20400e80:	0e6c                	addi	a1,sp,796
20400e82:	2040                	fld	fs0,128(s0)
20400e84:	0000                	unimp
20400e86:	0000                	unimp
20400e88:	3202                	fld	ft4,32(sp)
20400e8a:	          	0xe90aa2b

20400e8c <XT_2PLUS>:
20400e8c:	0e90                	addi	a2,sp,848
20400e8e:	2040                	fld	fs0,128(s0)

20400e90 <PFA_2PLUS>:
20400e90:	00218193          	addi	gp,gp,2
20400e94:	845ff06f          	j	204006d8 <DO_NEXT>

20400e98 <VE_2MINUS>:
20400e98:	0e84                	addi	s1,sp,848
20400e9a:	2040                	fld	fs0,128(s0)
20400e9c:	0000                	unimp
20400e9e:	0000                	unimp
20400ea0:	3202                	fld	ft4,32(sp)
20400ea2:	aa2d                	j	20400fdc <PFA_QUIT+0x4>

20400ea4 <XT_2MINUS>:
20400ea4:	0ea8                	addi	a0,sp,856
20400ea6:	2040                	fld	fs0,128(s0)

20400ea8 <PFA_2MINUS>:
20400ea8:	ffe18193          	addi	gp,gp,-2
20400eac:	82dff06f          	j	204006d8 <DO_NEXT>

20400eb0 <VE_2STAR>:
20400eb0:	0e9c                	addi	a5,sp,848
20400eb2:	2040                	fld	fs0,128(s0)
20400eb4:	0000                	unimp
20400eb6:	0000                	unimp
20400eb8:	3202                	fld	ft4,32(sp)
20400eba:	aa2a                	fsd	fa0,272(sp)

20400ebc <XT_2STAR>:
20400ebc:	0ec0                	addi	s0,sp,852
20400ebe:	2040                	fld	fs0,128(s0)

20400ec0 <PFA_2STAR>:
20400ec0:	003181b3          	add	gp,gp,gp
20400ec4:	815ff06f          	j	204006d8 <DO_NEXT>

20400ec8 <VE_2SLASH>:
20400ec8:	0eb4                	addi	a3,sp,856
20400eca:	2040                	fld	fs0,128(s0)
20400ecc:	0000                	unimp
20400ece:	0000                	unimp
20400ed0:	3202                	fld	ft4,32(sp)
20400ed2:	          	amoswap.w.aqrl	s4,a3,(a7)

20400ed4 <XT_2SLASH>:
20400ed4:	0ed8                	addi	a4,sp,852
20400ed6:	2040                	fld	fs0,128(s0)

20400ed8 <PFA_2SLASH>:
20400ed8:	4011d193          	srai	gp,gp,0x1
20400edc:	ffcff06f          	j	204006d8 <DO_NEXT>

20400ee0 <VE_CELLPLUS>:
20400ee0:	0ecc                	addi	a1,sp,852
20400ee2:	2040                	fld	fs0,128(s0)
20400ee4:	0000                	unimp
20400ee6:	0000                	unimp
20400ee8:	6305                	lui	t1,0x1
20400eea:	6c65                	lui	s8,0x19
20400eec:	2b6c                	fld	fa1,208(a4)
20400eee:	aaaa                	fsd	fa0,336(sp)

20400ef0 <XT_CELLPLUS>:
20400ef0:	0ef4                	addi	a3,sp,860
20400ef2:	2040                	fld	fs0,128(s0)

20400ef4 <PFA_CELLPLUS>:
20400ef4:	00418193          	addi	gp,gp,4
20400ef8:	fe0ff06f          	j	204006d8 <DO_NEXT>

20400efc <VE_CELLS>:
20400efc:	0ee4                	addi	s1,sp,860
20400efe:	2040                	fld	fs0,128(s0)
20400f00:	0000                	unimp
20400f02:	0000                	unimp
20400f04:	6305                	lui	t1,0x1
20400f06:	6c65                	lui	s8,0x19
20400f08:	736c                	flw	fa1,100(a4)
20400f0a:	aaaa                	fsd	fa0,336(sp)

20400f0c <XT_CELLS>:
20400f0c:	0f10                	addi	a2,sp,912
20400f0e:	2040                	fld	fs0,128(s0)

20400f10 <PFA_CELLS>:
20400f10:	00219193          	slli	gp,gp,0x2
20400f14:	fc4ff06f          	j	204006d8 <DO_NEXT>

20400f18 <VE_STATE>:
20400f18:	0f00                	addi	s0,sp,912
20400f1a:	2040                	fld	fs0,128(s0)
20400f1c:	0101                	addi	sp,sp,0
20400f1e:	0000                	unimp
20400f20:	7305                	lui	t1,0xfffe1
20400f22:	6174                	flw	fa3,68(a0)
20400f24:	6574                	flw	fa3,76(a0)
20400f26:	aaaa                	fsd	fa0,336(sp)

20400f28 <XT_STATE>:
20400f28:	12d8                	addi	a4,sp,356
20400f2a:	2040                	fld	fs0,128(s0)

20400f2c <PFA_STATE>:
20400f2c:	0208                	addi	a0,sp,256
20400f2e:	8000                	0x8000

20400f30 <VE_TIB>:
20400f30:	0f1c                	addi	a5,sp,912
20400f32:	2040                	fld	fs0,128(s0)
20400f34:	0000                	unimp
20400f36:	0000                	unimp
20400f38:	62697403          	0x62697403

20400f3c <XT_TIB>:
20400f3c:	0f40                	addi	s0,sp,916
20400f3e:	2040                	fld	fs0,128(s0)

20400f40 <PFA_TIB>:
20400f40:	ffc20213          	addi	tp,tp,-4 # fffffffc <Flag_invisible+0xfffffffd>
20400f44:	00322023          	sw	gp,0(tp) # 0 <Flag_visible>
20400f48:	800001b7          	lui	gp,0x80000
20400f4c:	10018193          	addi	gp,gp,256 # 80000100 <Flag_invisible+0x80000101>
20400f50:	f88ff06f          	j	204006d8 <DO_NEXT>

20400f54 <VE_NUMBERTIB>:
20400f54:	0f34                	addi	a3,sp,920
20400f56:	2040                	fld	fs0,128(s0)
20400f58:	0101                	addi	sp,sp,0
20400f5a:	0000                	unimp
20400f5c:	2304                	fld	fs1,0(a4)
20400f5e:	6974                	flw	fa3,84(a0)
20400f60:	aa62                	fsd	fs8,272(sp)
20400f62:	aaaa                	fsd	fa0,336(sp)

20400f64 <XT_NUMBERTIB>:
20400f64:	12d8                	addi	a4,sp,356
20400f66:	2040                	fld	fs0,128(s0)

20400f68 <PFA_NUMBERTIB>:
20400f68:	020c                	addi	a1,sp,256
20400f6a:	8000                	0x8000

20400f6c <VE_COLD>:
20400f6c:	0f58                	addi	a4,sp,916
20400f6e:	2040                	fld	fs0,128(s0)
20400f70:	0000                	unimp
20400f72:	0000                	unimp
20400f74:	6304                	flw	fs1,0(a4)
20400f76:	aa646c6f          	jal	s8,2034721c <UART0_DIV+0x10334204>
20400f7a:	aaaa                	fsd	fa0,336(sp)

20400f7c <XT_COLD>:
20400f7c:	0f80                	addi	s0,sp,976
20400f7e:	2040                	fld	fs0,128(s0)

20400f80 <PFA_COLD>:
20400f80:	10008537          	lui	a0,0x10008
20400f84:	00450513          	addi	a0,a0,4 # 10008004 <PRCI_HFXOSCCFG>
20400f88:	00052583          	lw	a1,0(a0)
20400f8c:	c0000637          	lui	a2,0xc0000
20400f90:	fec598e3          	bne	a1,a2,20400f80 <PFA_COLD>
20400f94:	10008537          	lui	a0,0x10008
20400f98:	00850513          	addi	a0,a0,8 # 10008008 <PRCI_PLLCFG>
20400f9c:	000715b7          	lui	a1,0x71
20400fa0:	df158593          	addi	a1,a1,-527 # 70df1 <CLINT_MTIME+0x64df9>
20400fa4:	00b52023          	sw	a1,0(a0)
20400fa8:	80000137          	lui	sp,0x80000
20400fac:	10010113          	addi	sp,sp,256 # 80000100 <Flag_invisible+0x80000101>
20400fb0:	80000237          	lui	tp,0x80000
20400fb4:	08020213          	addi	tp,tp,128 # 80000080 <Flag_invisible+0x80000081>
20400fb8:	00000897          	auipc	a7,0x0
20400fbc:	60488893          	addi	a7,a7,1540 # 204015bc <XT_WARM>
20400fc0:	f20ff06f          	j	204006e0 <DO_EXECUTE>

20400fc4 <VE_QUIT>:
20400fc4:	0f70                	addi	a2,sp,924
20400fc6:	2040                	fld	fs0,128(s0)
20400fc8:	0000                	unimp
20400fca:	0000                	unimp
20400fcc:	7104                	flw	fs1,32(a0)
20400fce:	6975                	lui	s2,0x1d
20400fd0:	aa74                	fsd	fa3,208(a2)
20400fd2:	aaaa                	fsd	fa0,336(sp)

20400fd4 <XT_QUIT>:
20400fd4:	06cc                	addi	a1,sp,836
20400fd6:	2040                	fld	fs0,128(s0)

20400fd8 <PFA_QUIT>:
20400fd8:	2fe4                	fld	fs1,216(a5)
20400fda:	2040                	fld	fs0,128(s0)
20400fdc:	3004                	fld	fs1,32(s0)
20400fde:	2040                	fld	fs0,128(s0)
20400fe0:	02c8                	addi	a0,sp,324
20400fe2:	2040                	fld	fs0,128(s0)
20400fe4:	16b0                	addi	a2,sp,872
20400fe6:	2040                	fld	fs0,128(s0)

20400fe8 <PFA_QUIT2>:
20400fe8:	0f28                	addi	a0,sp,920
20400fea:	2040                	fld	fs0,128(s0)
20400fec:	02b0                	addi	a2,sp,328
20400fee:	2040                	fld	fs0,128(s0)
20400ff0:	06f8                	addi	a4,sp,844
20400ff2:	2040                	fld	fs0,128(s0)
20400ff4:	13d8                	addi	a4,sp,484
20400ff6:	2040                	fld	fs0,128(s0)
20400ff8:	1000                	addi	s0,sp,32
20400ffa:	2040                	fld	fs0,128(s0)
20400ffc:	1d04                	addi	s1,sp,688
20400ffe:	2040                	fld	fs0,128(s0)

20401000 <PFA_QUIT4>:
20401000:	1a48                	addi	a0,sp,308
20401002:	2040                	fld	fs0,128(s0)
20401004:	1c94                	addi	a3,sp,624
20401006:	2040                	fld	fs0,128(s0)
20401008:	13d8                	addi	a4,sp,484
2040100a:	2040                	fld	fs0,128(s0)
2040100c:	104c                	addi	a1,sp,36
2040100e:	2040                	fld	fs0,128(s0)
20401010:	13f4                	addi	a3,sp,492
20401012:	2040                	fld	fs0,128(s0)
20401014:	2a80                	fld	fs0,16(a3)
20401016:	2040                	fld	fs0,128(s0)
20401018:	1d58                	addi	a4,sp,692
2040101a:	2040                	fld	fs0,128(s0)
2040101c:	00fc                	addi	a5,sp,76
2040101e:	2040                	fld	fs0,128(s0)
20401020:	13d8                	addi	a4,sp,484
20401022:	2040                	fld	fs0,128(s0)
20401024:	104c                	addi	a1,sp,36
20401026:	2040                	fld	fs0,128(s0)
20401028:	0078                	addi	a4,sp,12
2040102a:	2040                	fld	fs0,128(s0)
2040102c:	13f4                	addi	a3,sp,492
2040102e:	2040                	fld	fs0,128(s0)
20401030:	fffe                	fsw	ft11,252(sp)
20401032:	ffff                	0xffff
20401034:	0794                	addi	a3,sp,960
20401036:	2040                	fld	fs0,128(s0)
20401038:	13d8                	addi	a4,sp,484
2040103a:	2040                	fld	fs0,128(s0)
2040103c:	1044                	addi	s1,sp,36
2040103e:	2040                	fld	fs0,128(s0)
20401040:	1c2c                	addi	a1,sp,568
20401042:	2040                	fld	fs0,128(s0)

20401044 <PFA_QUIT5>:
20401044:	13cc                	addi	a1,sp,484
20401046:	2040                	fld	fs0,128(s0)
20401048:	0fd8                	addi	a4,sp,980
2040104a:	2040                	fld	fs0,128(s0)

2040104c <PFA_QUIT3>:
2040104c:	1cc0                	addi	s0,sp,628
2040104e:	2040                	fld	fs0,128(s0)
20401050:	13cc                	addi	a1,sp,484
20401052:	2040                	fld	fs0,128(s0)
20401054:	0fe8                	addi	a0,sp,988
20401056:	2040                	fld	fs0,128(s0)

20401058 <VE_EXECUTE>:
20401058:	0fc8                	addi	a0,sp,980
2040105a:	2040                	fld	fs0,128(s0)
2040105c:	0000                	unimp
2040105e:	0000                	unimp
20401060:	65786507          	0x65786507
20401064:	65747563          	bleu	s7,s0,204016ae <VE_LBRACKET+0xa>

20401068 <XT_EXECUTE>:
20401068:	106c                	addi	a1,sp,44
2040106a:	2040                	fld	fs0,128(s0)

2040106c <PFA_EXECUTE>:
2040106c:	00018893          	mv	a7,gp
20401070:	00022183          	lw	gp,0(tp) # 0 <Flag_visible>
20401074:	00420213          	addi	tp,tp,4 # 4 <USER_FOLLOWER>
20401078:	e68ff06f          	j	204006e0 <DO_EXECUTE>

2040107c <VE_KEY>:
2040107c:	105c                	addi	a5,sp,36
2040107e:	2040                	fld	fs0,128(s0)
20401080:	00c0                	addi	s0,sp,68
20401082:	0000                	unimp
20401084:	79656b03          	0x79656b03

20401088 <XT_KEY>:
20401088:	1318                	addi	a4,sp,416
2040108a:	2040                	fld	fs0,128(s0)

2040108c <PFA_KEY>:
2040108c:	0210                	addi	a2,sp,256
2040108e:	8000                	0x8000
20401090:	109c                	addi	a5,sp,96
20401092:	2040                	fld	fs0,128(s0)
20401094:	02b0                	addi	a2,sp,328
20401096:	2040                	fld	fs0,128(s0)
20401098:	02c8                	addi	a0,sp,324
2040109a:	2040                	fld	fs0,128(s0)

2040109c <XT_KEY_PAUSE>:
2040109c:	06cc                	addi	a1,sp,836
2040109e:	2040                	fld	fs0,128(s0)

204010a0 <PFA_KEY_PAUSE>:
204010a0:	1150                	addi	a2,sp,164
204010a2:	2040                	fld	fs0,128(s0)
204010a4:	3904                	fld	fs1,48(a0)
204010a6:	2040                	fld	fs0,128(s0)
204010a8:	13d8                	addi	a4,sp,484
204010aa:	2040                	fld	fs0,128(s0)
204010ac:	10a0                	addi	s0,sp,104
204010ae:	2040                	fld	fs0,128(s0)
204010b0:	38c8                	fld	fa0,176(s1)
204010b2:	2040                	fld	fs0,128(s0)
204010b4:	0018                	0x18
204010b6:	2040                	fld	fs0,128(s0)

204010b8 <VE_KEYQ>:
204010b8:	1080                	addi	s0,sp,96
204010ba:	2040                	fld	fs0,128(s0)
204010bc:	00c0                	addi	s0,sp,68
204010be:	0000                	unimp
204010c0:	6b04                	flw	fs1,16(a4)
204010c2:	7965                	lui	s2,0xffff9
204010c4:	aaaaaa3f  	0x20401318aaaaaa3f

204010c8 <XT_KEYQ>:
204010c8:	1318                	addi	a4,sp,416
204010ca:	2040                	fld	fs0,128(s0)

204010cc <PFA_KEYQ>:
204010cc:	0214                	addi	a3,sp,256
204010ce:	8000                	0x8000
204010d0:	3904                	fld	fs1,48(a0)
204010d2:	2040                	fld	fs0,128(s0)
204010d4:	02b0                	addi	a2,sp,328
204010d6:	2040                	fld	fs0,128(s0)
204010d8:	02c8                	addi	a0,sp,324
204010da:	2040                	fld	fs0,128(s0)

204010dc <VE_EMIT>:
204010dc:	10bc                	addi	a5,sp,104
204010de:	2040                	fld	fs0,128(s0)
204010e0:	00c0                	addi	s0,sp,68
204010e2:	0000                	unimp
204010e4:	6504                	flw	fs1,8(a0)
204010e6:	696d                	lui	s2,0x1b
204010e8:	aa74                	fsd	fa3,208(a2)
204010ea:	aaaa                	fsd	fa0,336(sp)

204010ec <XT_EMIT>:
204010ec:	1318                	addi	a4,sp,416
204010ee:	2040                	fld	fs0,128(s0)

204010f0 <PFA_EMIT>:
204010f0:	0218                	addi	a4,sp,256
204010f2:	8000                	0x8000
204010f4:	1100                	addi	s0,sp,160
204010f6:	2040                	fld	fs0,128(s0)
204010f8:	02b0                	addi	a2,sp,328
204010fa:	2040                	fld	fs0,128(s0)
204010fc:	02c8                	addi	a0,sp,324
204010fe:	2040                	fld	fs0,128(s0)

20401100 <XT_EMIT_PAUSE>:
20401100:	06cc                	addi	a1,sp,836
20401102:	2040                	fld	fs0,128(s0)

20401104 <PFA_EMIT_PAUSE>:
20401104:	1150                	addi	a2,sp,164
20401106:	2040                	fld	fs0,128(s0)
20401108:	399c                	fld	fa5,48(a1)
2040110a:	2040                	fld	fs0,128(s0)
2040110c:	13d8                	addi	a4,sp,484
2040110e:	2040                	fld	fs0,128(s0)
20401110:	1104                	addi	s1,sp,160
20401112:	2040                	fld	fs0,128(s0)
20401114:	3960                	fld	fs0,240(a0)
20401116:	2040                	fld	fs0,128(s0)
20401118:	0018                	0x18
2040111a:	2040                	fld	fs0,128(s0)

2040111c <VE_EMITQ>:
2040111c:	10e0                	addi	s0,sp,108
2040111e:	2040                	fld	fs0,128(s0)
20401120:	00c0                	addi	s0,sp,68
20401122:	0000                	unimp
20401124:	6505                	lui	a0,0x1
20401126:	696d                	lui	s2,0x1b
20401128:	3f74                	fld	fa3,248(a4)
2040112a:	aaaa                	fsd	fa0,336(sp)

2040112c <XT_EMITQ>:
2040112c:	1318                	addi	a4,sp,416
2040112e:	2040                	fld	fs0,128(s0)

20401130 <PFA_EMITQ>:
20401130:	021c                	addi	a5,sp,256
20401132:	8000                	0x8000
20401134:	399c                	fld	fa5,48(a1)
20401136:	2040                	fld	fs0,128(s0)
20401138:	02b0                	addi	a2,sp,328
2040113a:	2040                	fld	fs0,128(s0)
2040113c:	02c8                	addi	a0,sp,324
2040113e:	2040                	fld	fs0,128(s0)

20401140 <VE_PAUSE>:
20401140:	1120                	addi	s0,sp,168
20401142:	2040                	fld	fs0,128(s0)
20401144:	00c0                	addi	s0,sp,68
20401146:	0000                	unimp
20401148:	7005                	c.lui	zero,0xfffe1
2040114a:	7561                	lui	a0,0xffff8
2040114c:	aaaa6573          	csrrsi	a0,0xaaa,20

20401150 <XT_PAUSE>:
20401150:	1318                	addi	a4,sp,416
20401152:	2040                	fld	fs0,128(s0)

20401154 <PFA_PAUSE>:
20401154:	0220                	addi	s0,sp,264
20401156:	8000                	0x8000
20401158:	1170                	addi	a2,sp,172
2040115a:	2040                	fld	fs0,128(s0)
2040115c:	02b0                	addi	a2,sp,328
2040115e:	2040                	fld	fs0,128(s0)
20401160:	02c8                	addi	a0,sp,324
20401162:	2040                	fld	fs0,128(s0)

20401164 <VE_NOOP>:
20401164:	1144                	addi	s1,sp,164
20401166:	2040                	fld	fs0,128(s0)
20401168:	0000                	unimp
2040116a:	0000                	unimp
2040116c:	706f6e03          	0x706f6e03

20401170 <XT_NOOP>:
20401170:	1174                	addi	a3,sp,172
20401172:	2040                	fld	fs0,128(s0)

20401174 <PFA_NOOP>:
20401174:	d64ff06f          	j	204006d8 <DO_NEXT>

20401178 <VE_BOUNDS>:
20401178:	1168                	addi	a0,sp,172
2040117a:	2040                	fld	fs0,128(s0)
2040117c:	0000                	unimp
2040117e:	0000                	unimp
20401180:	6206                	flw	ft4,64(sp)
20401182:	646e756f          	jal	a0,204e87c8 <FlashEnd+0xd87c8>
20401186:	          	csrrs	s4,0x6c,s9

20401188 <XT_BOUNDS>:
20401188:	06cc                	addi	a1,sp,836
2040118a:	2040                	fld	fs0,128(s0)

2040118c <PFA_BOUNDS>:
2040118c:	00b0                	addi	a2,sp,72
2040118e:	2040                	fld	fs0,128(s0)
20401190:	0e1c                	addi	a5,sp,784
20401192:	2040                	fld	fs0,128(s0)
20401194:	0058                	addi	a4,sp,4
20401196:	2040                	fld	fs0,128(s0)
20401198:	0018                	0x18
2040119a:	2040                	fld	fs0,128(s0)

2040119c <XT_DODO>:
2040119c:	11a0                	addi	s0,sp,232
2040119e:	2040                	fld	fs0,128(s0)

204011a0 <PFA_DODO>:
204011a0:	ff810113          	addi	sp,sp,-8
204011a4:	00812223          	sw	s0,4(sp)
204011a8:	00912023          	sw	s1,0(sp)
204011ac:	00018413          	mv	s0,gp
204011b0:	00022183          	lw	gp,0(tp) # 0 <Flag_visible>
204011b4:	00420213          	addi	tp,tp,4 # 4 <USER_FOLLOWER>
204011b8:	00018493          	mv	s1,gp
204011bc:	00022183          	lw	gp,0(tp) # 0 <Flag_visible>
204011c0:	00420213          	addi	tp,tp,4 # 4 <USER_FOLLOWER>
204011c4:	80000337          	lui	t1,0x80000
204011c8:	006484b3          	add	s1,s1,t1
204011cc:	40940433          	sub	s0,s0,s1
204011d0:	d08ff06f          	j	204006d8 <DO_NEXT>

204011d4 <XT_DOLOOP>:
204011d4:	11d8                	addi	a4,sp,228
204011d6:	2040                	fld	fs0,128(s0)

204011d8 <PFA_DOLOOP>:
204011d8:	00100293          	li	t0,1
204011dc:	0140006f          	j	204011f0 <PFA_DOPLUSLOOP1>

204011e0 <XT_DOPLUSLOOP>:
204011e0:	11e4                	addi	s1,sp,236
204011e2:	2040                	fld	fs0,128(s0)

204011e4 <PFA_DOPLUSLOOP>:
204011e4:	00018293          	mv	t0,gp
204011e8:	00022183          	lw	gp,0(tp) # 0 <Flag_visible>
204011ec:	00420213          	addi	tp,tp,4 # 4 <USER_FOLLOWER>

204011f0 <PFA_DOPLUSLOOP1>:
204011f0:	00540333          	add	t1,s0,t0
204011f4:	0002a593          	slti	a1,t0,0
204011f8:	00832633          	slt	a2,t1,s0
204011fc:	00c59863          	bne	a1,a2,2040120c <PFA_DOLOOP_LEAVE>
20401200:	00030413          	mv	s0,t1
20401204:	00082803          	lw	a6,0(a6)
20401208:	cd0ff06f          	j	204006d8 <DO_NEXT>

2040120c <PFA_DOLOOP_LEAVE>:
2040120c:	00012483          	lw	s1,0(sp)
20401210:	00412403          	lw	s0,4(sp)
20401214:	00810113          	addi	sp,sp,8
20401218:	00480813          	addi	a6,a6,4
2040121c:	cbcff06f          	j	204006d8 <DO_NEXT>

20401220 <VE_UNLOOP>:
20401220:	117c                	addi	a5,sp,172
20401222:	2040                	fld	fs0,128(s0)
20401224:	0000                	unimp
20401226:	0000                	unimp
20401228:	7506                	flw	fa0,96(sp)
2040122a:	6c6e                	flw	fs8,216(sp)
2040122c:	aa706f6f          	jal	t5,20307cd2 <UART0_DIV+0x102f4cba>

20401230 <XT_UNLOOP>:
20401230:	1234                	addi	a3,sp,296
20401232:	2040                	fld	fs0,128(s0)

20401234 <PFA_UNLOOP>:
20401234:	00012483          	lw	s1,0(sp)
20401238:	00412403          	lw	s0,4(sp)
2040123c:	00810113          	addi	sp,sp,8
20401240:	c98ff06f          	j	204006d8 <DO_NEXT>

20401244 <VE_I>:
20401244:	1224                	addi	s1,sp,296
20401246:	2040                	fld	fs0,128(s0)
20401248:	0000                	unimp
2040124a:	0000                	unimp
2040124c:	6901                	0x6901
2040124e:	aaaa                	fsd	fa0,336(sp)

20401250 <XT_I>:
20401250:	1254                	addi	a3,sp,292
20401252:	2040                	fld	fs0,128(s0)

20401254 <PFA_I>:
20401254:	ffc20213          	addi	tp,tp,-4 # fffffffc <Flag_invisible+0xfffffffd>
20401258:	00322023          	sw	gp,0(tp) # 0 <Flag_visible>
2040125c:	009401b3          	add	gp,s0,s1
20401260:	c78ff06f          	j	204006d8 <DO_NEXT>

20401264 <VE_J>:
20401264:	1248                	addi	a0,sp,292
20401266:	2040                	fld	fs0,128(s0)
20401268:	0000                	unimp
2040126a:	0000                	unimp
2040126c:	6a01                	0x6a01
2040126e:	aaaa                	fsd	fa0,336(sp)

20401270 <XT_J>:
20401270:	1274                	addi	a3,sp,300
20401272:	2040                	fld	fs0,128(s0)

20401274 <PFA_J>:
20401274:	ffc20213          	addi	tp,tp,-4 # fffffffc <Flag_invisible+0xfffffffd>
20401278:	00322023          	sw	gp,0(tp) # 0 <Flag_visible>
2040127c:	00012183          	lw	gp,0(sp)
20401280:	00412283          	lw	t0,4(sp)
20401284:	005181b3          	add	gp,gp,t0
20401288:	c50ff06f          	j	204006d8 <DO_NEXT>

2040128c <VE_ALIGNED>:
2040128c:	1268                	addi	a0,sp,300
2040128e:	2040                	fld	fs0,128(s0)
20401290:	0000                	unimp
20401292:	0000                	unimp
20401294:	696c6107          	0x696c6107
20401298:	64656e67          	0x64656e67

2040129c <XT_ALIGNED>:
2040129c:	12a0                	addi	s0,sp,360
2040129e:	2040                	fld	fs0,128(s0)

204012a0 <PFA_ALIGNED>:
204012a0:	0011f293          	andi	t0,gp,1
204012a4:	005181b3          	add	gp,gp,t0
204012a8:	0021f293          	andi	t0,gp,2
204012ac:	005181b3          	add	gp,gp,t0
204012b0:	c28ff06f          	j	204006d8 <DO_NEXT>

204012b4 <XT_DOSLITERAL>:
204012b4:	06cc                	addi	a1,sp,836
204012b6:	2040                	fld	fs0,128(s0)

204012b8 <PFA_DOSLITERAL>:
204012b8:	01b0                	addi	a2,sp,200
204012ba:	2040                	fld	fs0,128(s0)
204012bc:	2cf0                	fld	fa2,216(s1)
204012be:	2040                	fld	fs0,128(s0)
204012c0:	0c04                	addi	s1,sp,528
204012c2:	2040                	fld	fs0,128(s0)
204012c4:	0e1c                	addi	a5,sp,784
204012c6:	2040                	fld	fs0,128(s0)
204012c8:	129c                	addi	a5,sp,352
204012ca:	2040                	fld	fs0,128(s0)
204012cc:	0194                	addi	a3,sp,192
204012ce:	2040                	fld	fs0,128(s0)
204012d0:	0018                	0x18
204012d2:	2040                	fld	fs0,128(s0)

204012d4 <XT_DOVARIABLE>:
204012d4:	12d8                	addi	a4,sp,356
204012d6:	2040                	fld	fs0,128(s0)

204012d8 <PFA_DOVARIABLE>:
204012d8:	ffc20213          	addi	tp,tp,-4 # fffffffc <Flag_invisible+0xfffffffd>
204012dc:	00322023          	sw	gp,0(tp) # 0 <Flag_visible>
204012e0:	0008a183          	lw	gp,0(a7)
204012e4:	bf4ff06f          	j	204006d8 <DO_NEXT>

204012e8 <XT_DODATA>:
204012e8:	12ec                	addi	a1,sp,364
204012ea:	2040                	fld	fs0,128(s0)

204012ec <PFA_DODATA>:
204012ec:	ffc20213          	addi	tp,tp,-4 # fffffffc <Flag_invisible+0xfffffffd>
204012f0:	00322023          	sw	gp,0(tp) # 0 <Flag_visible>
204012f4:	00088193          	mv	gp,a7
204012f8:	be0ff06f          	j	204006d8 <DO_NEXT>

204012fc <XT_DOVALUE>:
204012fc:	1300                	addi	s0,sp,416
204012fe:	2040                	fld	fs0,128(s0)

20401300 <PFA_DOVALUE>:
20401300:	ffc20213          	addi	tp,tp,-4 # fffffffc <Flag_invisible+0xfffffffd>
20401304:	00322023          	sw	gp,0(tp) # 0 <Flag_visible>
20401308:	0008a183          	lw	gp,0(a7)
2040130c:	0001a183          	lw	gp,0(gp)
20401310:	bc8ff06f          	j	204006d8 <DO_NEXT>

20401314 <XT_DODEFER>:
20401314:	1318                	addi	a4,sp,416
20401316:	2040                	fld	fs0,128(s0)

20401318 <PFA_DODEFER>:
20401318:	0008a883          	lw	a7,0(a7)
2040131c:	0008a883          	lw	a7,0(a7)
20401320:	bc0ff06f          	j	204006e0 <DO_EXECUTE>

20401324 <XT_DOUSER>:
20401324:	1328                	addi	a0,sp,424
20401326:	2040                	fld	fs0,128(s0)

20401328 <PFA_DOUSER>:
20401328:	ffc20213          	addi	tp,tp,-4 # fffffffc <Flag_invisible+0xfffffffd>
2040132c:	00322023          	sw	gp,0(tp) # 0 <Flag_visible>
20401330:	0008a183          	lw	gp,0(a7)
20401334:	012181b3          	add	gp,gp,s2
20401338:	ba0ff06f          	j	204006d8 <DO_NEXT>

2040133c <XT_DODOES>:
2040133c:	1340                	addi	s0,sp,420
2040133e:	2040                	fld	fs0,128(s0)

20401340 <PFA_DODOES>:
20401340:	ffc20213          	addi	tp,tp,-4 # fffffffc <Flag_invisible+0xfffffffd>
20401344:	00322023          	sw	gp,0(tp) # 0 <Flag_visible>
20401348:	00088193          	mv	gp,a7
2040134c:	ffc10113          	addi	sp,sp,-4
20401350:	01012023          	sw	a6,0(sp)
20401354:	ffc8a803          	lw	a6,-4(a7)
20401358:	00480813          	addi	a6,a6,4
2040135c:	b7cff06f          	j	204006d8 <DO_NEXT>

20401360 <VE_UP_FETCH>:
20401360:	1290                	addi	a2,sp,352
20401362:	2040                	fld	fs0,128(s0)
20401364:	0000                	unimp
20401366:	0000                	unimp
20401368:	40707503          	0x40707503

2040136c <XT_UP_FETCH>:
2040136c:	1370                	addi	a2,sp,428
2040136e:	2040                	fld	fs0,128(s0)

20401370 <PFA_UP_FETCH>:
20401370:	ffc20213          	addi	tp,tp,-4 # fffffffc <Flag_invisible+0xfffffffd>
20401374:	00322023          	sw	gp,0(tp) # 0 <Flag_visible>
20401378:	00090193          	mv	gp,s2
2040137c:	b5cff06f          	j	204006d8 <DO_NEXT>

20401380 <VE_UP_STORE>:
20401380:	1364                	addi	s1,sp,428
20401382:	2040                	fld	fs0,128(s0)
20401384:	0000                	unimp
20401386:	0000                	unimp
20401388:	21707503          	0x21707503

2040138c <XT_UP_STORE>:
2040138c:	1390                	addi	a2,sp,480
2040138e:	2040                	fld	fs0,128(s0)

20401390 <PFA_UP_STORE>:
20401390:	00018913          	mv	s2,gp
20401394:	00022183          	lw	gp,0(tp) # 0 <Flag_visible>
20401398:	00420213          	addi	tp,tp,4 # 4 <USER_FOLLOWER>
2040139c:	b3cff06f          	j	204006d8 <DO_NEXT>

204013a0 <VE_1MS>:
204013a0:	1384                	addi	s1,sp,480
204013a2:	2040                	fld	fs0,128(s0)
204013a4:	0000                	unimp
204013a6:	0000                	unimp
204013a8:	736d3103          	0x736d3103

204013ac <XT_1MS>:
204013ac:	13b0                	addi	a2,sp,488
204013ae:	2040                	fld	fs0,128(s0)

204013b0 <PFA_1MS>:
204013b0:	009892b7          	lui	t0,0x989
204013b4:	68028293          	addi	t0,t0,1664 # 989680 <red+0x589680>
204013b8:	000022b7          	lui	t0,0x2
204013bc:	71028293          	addi	t0,t0,1808 # 2710 <Flag_2variable+0x260e>
204013c0:	fff28293          	addi	t0,t0,-1
204013c4:	fe029ee3          	bnez	t0,204013c0 <PFA_1MS+0x10>
204013c8:	b10ff06f          	j	204006d8 <DO_NEXT>

204013cc <XT_DOBRANCH>:
204013cc:	13d0                	addi	a2,sp,484
204013ce:	2040                	fld	fs0,128(s0)

204013d0 <PFA_DOBRANCH>:
204013d0:	00082803          	lw	a6,0(a6)
204013d4:	b04ff06f          	j	204006d8 <DO_NEXT>

204013d8 <XT_DOCONDBRANCH>:
204013d8:	13dc                	addi	a5,sp,484
204013da:	2040                	fld	fs0,128(s0)

204013dc <PFA_DOCONDBRANCH>:
204013dc:	00018293          	mv	t0,gp
204013e0:	00022183          	lw	gp,0(tp) # 0 <Flag_visible>
204013e4:	00420213          	addi	tp,tp,4 # 4 <USER_FOLLOWER>
204013e8:	fe5004e3          	beq	zero,t0,204013d0 <PFA_DOBRANCH>
204013ec:	00480813          	addi	a6,a6,4
204013f0:	ae8ff06f          	j	204006d8 <DO_NEXT>

204013f4 <XT_DOLITERAL>:
204013f4:	13f8                	addi	a4,sp,492
204013f6:	2040                	fld	fs0,128(s0)

204013f8 <PFA_DOLITERAL>:
204013f8:	ffc20213          	addi	tp,tp,-4 # fffffffc <Flag_invisible+0xfffffffd>
204013fc:	00322023          	sw	gp,0(tp) # 0 <Flag_visible>
20401400:	00082183          	lw	gp,0(a6)
20401404:	00480813          	addi	a6,a6,4
20401408:	ad0ff06f          	j	204006d8 <DO_NEXT>

2040140c <VE_COMPARE>:
2040140c:	13a4                	addi	s1,sp,488
2040140e:	2040                	fld	fs0,128(s0)
20401410:	0000                	unimp
20401412:	0000                	unimp
20401414:	6d6f6307          	0x6d6f6307
20401418:	6170                	flw	fa2,68(a0)
2040141a:	6572                	flw	fa0,28(sp)

2040141c <XT_COMPARE>:
2040141c:	1420                	addi	s0,sp,552
2040141e:	2040                	fld	fs0,128(s0)

20401420 <PFA_COMPARE>:
20401420:	00018513          	mv	a0,gp
20401424:	00022583          	lw	a1,0(tp) # 0 <Flag_visible>
20401428:	00422603          	lw	a2,4(tp) # 4 <USER_FOLLOWER>
2040142c:	00822183          	lw	gp,8(tp) # 8 <USER_RP>
20401430:	00c20213          	addi	tp,tp,12 # c <USER_SP0>
20401434:	00c50663          	beq	a0,a2,20401440 <PFA_COMPARE+0x20>
20401438:	fff00193          	li	gp,-1
2040143c:	0500006f          	j	2040148c <PFA_COMPARE+0x6c>
20401440:	04050463          	beqz	a0,20401488 <PFA_COMPARE+0x68>
20401444:	0005c603          	lbu	a2,0(a1)
20401448:	04163713          	sltiu	a4,a2,65
2040144c:	00071863          	bnez	a4,2040145c <PFA_COMPARE+0x3c>
20401450:	05b63713          	sltiu	a4,a2,91
20401454:	00070463          	beqz	a4,2040145c <PFA_COMPARE+0x3c>
20401458:	02060613          	addi	a2,a2,32 # c0000020 <Flag_invisible+0xc0000021>
2040145c:	0001c683          	lbu	a3,0(gp)
20401460:	0416b713          	sltiu	a4,a3,65
20401464:	00071863          	bnez	a4,20401474 <PFA_COMPARE+0x54>
20401468:	05b6b713          	sltiu	a4,a3,91
2040146c:	00070463          	beqz	a4,20401474 <PFA_COMPARE+0x54>
20401470:	02068693          	addi	a3,a3,32
20401474:	fcd612e3          	bne	a2,a3,20401438 <PFA_COMPARE+0x18>
20401478:	fff50513          	addi	a0,a0,-1 # ffff7fff <Flag_invisible+0xffff8000>
2040147c:	00158593          	addi	a1,a1,1
20401480:	00118193          	addi	gp,gp,1
20401484:	fbdff06f          	j	20401440 <PFA_COMPARE+0x20>
20401488:	00000193          	li	gp,0
2040148c:	a4cff06f          	j	204006d8 <DO_NEXT>

20401490 <VE_N_TO_R>:
20401490:	1410                	addi	a2,sp,544
20401492:	2040                	fld	fs0,128(s0)
20401494:	0000                	unimp
20401496:	0000                	unimp
20401498:	723e6e03          	0x723e6e03

2040149c <XT_N_TO_R>:
2040149c:	14a0                	addi	s0,sp,616
2040149e:	2040                	fld	fs0,128(s0)

204014a0 <PFA_N_TO_R>:
204014a0:	00018293          	mv	t0,gp
204014a4:	00018313          	mv	t1,gp

204014a8 <N_TO_R_LOOP>:
204014a8:	00022183          	lw	gp,0(tp) # 0 <Flag_visible>
204014ac:	00420213          	addi	tp,tp,4 # 4 <USER_FOLLOWER>
204014b0:	ffc10113          	addi	sp,sp,-4
204014b4:	00312023          	sw	gp,0(sp)
204014b8:	fff28293          	addi	t0,t0,-1
204014bc:	fe0296e3          	bnez	t0,204014a8 <N_TO_R_LOOP>
204014c0:	ffc10113          	addi	sp,sp,-4
204014c4:	00612023          	sw	t1,0(sp)
204014c8:	00022183          	lw	gp,0(tp) # 0 <Flag_visible>
204014cc:	00420213          	addi	tp,tp,4 # 4 <USER_FOLLOWER>
204014d0:	a08ff06f          	j	204006d8 <DO_NEXT>

204014d4 <VE_N_R_FROM>:
204014d4:	1494                	addi	a3,sp,608
204014d6:	2040                	fld	fs0,128(s0)
204014d8:	0000                	unimp
204014da:	0000                	unimp
204014dc:	3e726e03          	0x3e726e03

204014e0 <XT_N_R_FROM>:
204014e0:	14e4                	addi	s1,sp,620
204014e2:	2040                	fld	fs0,128(s0)

204014e4 <PFA_N_R_FROM>:
204014e4:	00012283          	lw	t0,0(sp)
204014e8:	00410113          	addi	sp,sp,4
204014ec:	00028313          	mv	t1,t0
204014f0:	ffc20213          	addi	tp,tp,-4 # fffffffc <Flag_invisible+0xfffffffd>
204014f4:	00322023          	sw	gp,0(tp) # 0 <Flag_visible>

204014f8 <N_R_FROM_LOOP>:
204014f8:	00012183          	lw	gp,0(sp)
204014fc:	00410113          	addi	sp,sp,4
20401500:	ffc20213          	addi	tp,tp,-4 # fffffffc <Flag_invisible+0xfffffffd>
20401504:	00322023          	sw	gp,0(tp) # 0 <Flag_visible>
20401508:	fff28293          	addi	t0,t0,-1
2040150c:	fe0296e3          	bnez	t0,204014f8 <N_R_FROM_LOOP>
20401510:	00030193          	mv	gp,t1
20401514:	9c4ff06f          	j	204006d8 <DO_NEXT>

20401518 <VE_ZERO>:
20401518:	14d8                	addi	a4,sp,612
2040151a:	2040                	fld	fs0,128(s0)
2040151c:	0000                	unimp
2040151e:	0000                	unimp
20401520:	3001                	jal	20400d20 <ud_slash_mod_internal+0x84>
20401522:	aaaa                	fsd	fa0,336(sp)

20401524 <XT_ZERO>:
20401524:	12d8                	addi	a4,sp,356
20401526:	2040                	fld	fs0,128(s0)

20401528 <PFA_ZERO>:
20401528:	0000                	unimp
	...

2040152c <VE_ONE>:
2040152c:	151c                	addi	a5,sp,672
2040152e:	2040                	fld	fs0,128(s0)
20401530:	0000                	unimp
20401532:	0000                	unimp
20401534:	3101                	jal	20401134 <PFA_EMITQ+0x4>
20401536:	aaaa                	fsd	fa0,336(sp)

20401538 <XT_ONE>:
20401538:	12d8                	addi	a4,sp,356
2040153a:	2040                	fld	fs0,128(s0)

2040153c <PFA_ONE>:
2040153c:	0001                	nop
	...

20401540 <VE_TWO>:
20401540:	1530                	addi	a2,sp,680
20401542:	2040                	fld	fs0,128(s0)
20401544:	0000                	unimp
20401546:	0000                	unimp
20401548:	3201                	jal	20400e48 <PFA_MINUS+0x8>
2040154a:	aaaa                	fsd	fa0,336(sp)

2040154c <XT_TWO>:
2040154c:	12d8                	addi	a4,sp,356
2040154e:	2040                	fld	fs0,128(s0)

20401550 <PFA_TWO>:
20401550:	0002                	c.slli64	zero
	...

20401554 <VE_FOUR>:
20401554:	1544                	addi	s1,sp,676
20401556:	2040                	fld	fs0,128(s0)
20401558:	0000                	unimp
2040155a:	0000                	unimp
2040155c:	3401                	jal	20400f5c <VE_NUMBERTIB+0x8>
2040155e:	aaaa                	fsd	fa0,336(sp)

20401560 <XT_FOUR>:
20401560:	12d8                	addi	a4,sp,356
20401562:	2040                	fld	fs0,128(s0)

20401564 <PFA_FOUR>:
20401564:	0004                	0x4
	...

20401568 <VE_MINUSONE>:
20401568:	1558                	addi	a4,sp,676
2040156a:	2040                	fld	fs0,128(s0)
2040156c:	0000                	unimp
2040156e:	0000                	unimp
20401570:	2d02                	fld	fs10,0(sp)
20401572:	aa31                	j	2040168e <SPCS1+0xe>

20401574 <XT_MINUSONE>:
20401574:	12d8                	addi	a4,sp,356
20401576:	2040                	fld	fs0,128(s0)

20401578 <PFA_MINUSONE>:
20401578:	ffff                	0xffff
2040157a:	ffff                	0xffff

2040157c <VE_TRUE>:
2040157c:	156c                	addi	a1,sp,684
2040157e:	2040                	fld	fs0,128(s0)
20401580:	0000                	unimp
20401582:	0000                	unimp
20401584:	7404                	flw	fs1,40(s0)
20401586:	7572                	flw	fa0,60(sp)
20401588:	aa65                	j	20401740 <XT_PAD>
2040158a:	aaaa                	fsd	fa0,336(sp)

2040158c <XT_TRUE>:
2040158c:	12d8                	addi	a4,sp,356
2040158e:	2040                	fld	fs0,128(s0)

20401590 <PFA_TRUE>:
20401590:	ffff                	0xffff
20401592:	ffff                	0xffff

20401594 <VE_FALSE>:
20401594:	1580                	addi	s0,sp,736
20401596:	2040                	fld	fs0,128(s0)
20401598:	0000                	unimp
2040159a:	0000                	unimp
2040159c:	6605                	lui	a2,0x1
2040159e:	6c61                	lui	s8,0x18
204015a0:	aaaa6573          	csrrsi	a0,0xaaa,20

204015a4 <XT_FALSE>:
204015a4:	12d8                	addi	a4,sp,356
204015a6:	2040                	fld	fs0,128(s0)

204015a8 <PFA_FALSE>:
204015a8:	0000                	unimp
	...

204015ac <VE_WARM>:
204015ac:	1598                	addi	a4,sp,736
204015ae:	2040                	fld	fs0,128(s0)
204015b0:	0000                	unimp
204015b2:	0000                	unimp
204015b4:	7704                	flw	fs1,40(a4)
204015b6:	7261                	lui	tp,0xffff8
204015b8:	aa6d                	j	20401772 <PFA_HERE+0x6>
204015ba:	aaaa                	fsd	fa0,336(sp)

204015bc <XT_WARM>:
204015bc:	06cc                	addi	a1,sp,836
204015be:	2040                	fld	fs0,128(s0)

204015c0 <PFA_WARM>:
204015c0:	2bcc                	fld	fa1,144(a5)
204015c2:	2040                	fld	fs0,128(s0)
204015c4:	16b0                	addi	a2,sp,872
204015c6:	2040                	fld	fs0,128(s0)
204015c8:	30e8                	fld	fa0,224(s1)
204015ca:	2040                	fld	fs0,128(s0)
204015cc:	0fd4                	addi	a3,sp,980
204015ce:	2040                	fld	fs0,128(s0)
204015d0:	0018                	0x18
204015d2:	2040                	fld	fs0,128(s0)

204015d4 <VE_MS>:
204015d4:	15b0                	addi	a2,sp,744
204015d6:	2040                	fld	fs0,128(s0)
204015d8:	0000                	unimp
204015da:	0000                	unimp
204015dc:	6d02                	flw	fs10,0(sp)
204015de:	          	csrrs	s4,0x6c,s9

204015e0 <XT_MS>:
204015e0:	06cc                	addi	a1,sp,836
204015e2:	2040                	fld	fs0,128(s0)

204015e4 <PFA_MS>:
204015e4:	0e74                	addi	a3,sp,796
204015e6:	2040                	fld	fs0,128(s0)
204015e8:	13ac                	addi	a1,sp,488
204015ea:	2040                	fld	fs0,128(s0)
204015ec:	0078                	addi	a4,sp,12
204015ee:	2040                	fld	fs0,128(s0)
204015f0:	06f8                	addi	a4,sp,844
204015f2:	2040                	fld	fs0,128(s0)
204015f4:	13d8                	addi	a4,sp,484
204015f6:	2040                	fld	fs0,128(s0)
204015f8:	15e4                	addi	s1,sp,748
204015fa:	2040                	fld	fs0,128(s0)
204015fc:	0038                	addi	a4,sp,8
204015fe:	2040                	fld	fs0,128(s0)
20401600:	0018                	0x18
20401602:	2040                	fld	fs0,128(s0)

20401604 <VE_CR>:
20401604:	15d8                	addi	a4,sp,740
20401606:	2040                	fld	fs0,128(s0)
20401608:	0000                	unimp
2040160a:	0000                	unimp
2040160c:	6302                	flw	ft6,0(sp)
2040160e:	aa72                	fsd	ft8,272(sp)

20401610 <XT_CR>:
20401610:	06cc                	addi	a1,sp,836
20401612:	2040                	fld	fs0,128(s0)

20401614 <PFA_CR>:
20401614:	13f4                	addi	a3,sp,492
20401616:	2040                	fld	fs0,128(s0)
20401618:	000d                	c.nop	3
2040161a:	0000                	unimp
2040161c:	10ec                	addi	a1,sp,108
2040161e:	2040                	fld	fs0,128(s0)
20401620:	13f4                	addi	a3,sp,492
20401622:	2040                	fld	fs0,128(s0)
20401624:	000a                	c.slli	zero,0x2
20401626:	0000                	unimp
20401628:	10ec                	addi	a1,sp,108
2040162a:	2040                	fld	fs0,128(s0)
2040162c:	0018                	0x18
2040162e:	2040                	fld	fs0,128(s0)

20401630 <VE_BL>:
20401630:	1608                	addi	a0,sp,800
20401632:	2040                	fld	fs0,128(s0)
20401634:	0000                	unimp
20401636:	0000                	unimp
20401638:	6202                	flw	ft4,0(sp)
2040163a:	aa6c                	fsd	fa1,208(a2)

2040163c <XT_BL>:
2040163c:	12d8                	addi	a4,sp,356
2040163e:	2040                	fld	fs0,128(s0)

20401640 <PFA_BL>:
20401640:	0020                	addi	s0,sp,8
	...

20401644 <VE_SPACE>:
20401644:	1634                	addi	a3,sp,808
20401646:	2040                	fld	fs0,128(s0)
20401648:	0000                	unimp
2040164a:	0000                	unimp
2040164c:	7305                	lui	t1,0xfffe1
2040164e:	6170                	flw	fa2,68(a0)
20401650:	aaaa6563          	bltu	s4,a0,204008fa <PFA_MAX+0x2>

20401654 <XT_SPACE>:
20401654:	06cc                	addi	a1,sp,836
20401656:	2040                	fld	fs0,128(s0)

20401658 <PFA_SPACE>:
20401658:	163c                	addi	a5,sp,808
2040165a:	2040                	fld	fs0,128(s0)
2040165c:	10ec                	addi	a1,sp,108
2040165e:	2040                	fld	fs0,128(s0)
20401660:	0018                	0x18
20401662:	2040                	fld	fs0,128(s0)

20401664 <VE_SPACES>:
20401664:	1648                	addi	a0,sp,804
20401666:	2040                	fld	fs0,128(s0)
20401668:	0000                	unimp
2040166a:	0000                	unimp
2040166c:	7306                	flw	ft6,96(sp)
2040166e:	6170                	flw	fa2,68(a0)
20401670:	aa736563          	bltu	t1,t2,2040091a <VE_UMIN+0xe>

20401674 <XT_SPACES>:
20401674:	06cc                	addi	a1,sp,836
20401676:	2040                	fld	fs0,128(s0)

20401678 <PFA_SPACES>:
20401678:	1524                	addi	s1,sp,680
2040167a:	2040                	fld	fs0,128(s0)
2040167c:	08f4                	addi	a3,sp,92
2040167e:	2040                	fld	fs0,128(s0)

20401680 <SPCS1>:
20401680:	0078                	addi	a4,sp,12
20401682:	2040                	fld	fs0,128(s0)
20401684:	13d8                	addi	a4,sp,484
20401686:	2040                	fld	fs0,128(s0)
20401688:	169c                	addi	a5,sp,864
2040168a:	2040                	fld	fs0,128(s0)
2040168c:	1654                	addi	a3,sp,804
2040168e:	2040                	fld	fs0,128(s0)
20401690:	0e74                	addi	a3,sp,796
20401692:	2040                	fld	fs0,128(s0)
20401694:	13cc                	addi	a1,sp,484
20401696:	2040                	fld	fs0,128(s0)
20401698:	1680                	addi	s0,sp,864
2040169a:	2040                	fld	fs0,128(s0)

2040169c <SPCS2>:
2040169c:	0038                	addi	a4,sp,8
2040169e:	2040                	fld	fs0,128(s0)
204016a0:	0018                	0x18
204016a2:	2040                	fld	fs0,128(s0)

204016a4 <VE_LBRACKET>:
204016a4:	1668                	addi	a0,sp,812
204016a6:	2040                	fld	fs0,128(s0)
204016a8:	0000                	unimp
204016aa:	0000                	unimp
204016ac:	5b01                	li	s6,-32
204016ae:	aaaa                	fsd	fa0,336(sp)

204016b0 <XT_LBRACKET>:
204016b0:	06cc                	addi	a1,sp,836
204016b2:	2040                	fld	fs0,128(s0)

204016b4 <PFA_LBRACKET>:
204016b4:	1524                	addi	s1,sp,680
204016b6:	2040                	fld	fs0,128(s0)
204016b8:	0f28                	addi	a0,sp,920
204016ba:	2040                	fld	fs0,128(s0)
204016bc:	02c8                	addi	a0,sp,324
204016be:	2040                	fld	fs0,128(s0)
204016c0:	0018                	0x18
204016c2:	2040                	fld	fs0,128(s0)

204016c4 <VE_LPAREN>:
204016c4:	16a8                	addi	a0,sp,872
204016c6:	2040                	fld	fs0,128(s0)
204016c8:	0010                	0x10
204016ca:	0000                	unimp
204016cc:	2801                	jal	204016dc <PFA_LPAREN+0x8>
204016ce:	aaaa                	fsd	fa0,336(sp)

204016d0 <XT_LPAREN>:
204016d0:	06cc                	addi	a1,sp,836
204016d2:	2040                	fld	fs0,128(s0)

204016d4 <PFA_LPAREN>:
204016d4:	13f4                	addi	a3,sp,492
204016d6:	2040                	fld	fs0,128(s0)
204016d8:	0029                	c.nop	10
204016da:	0000                	unimp
204016dc:	1fc4                	addi	s1,sp,1012
204016de:	2040                	fld	fs0,128(s0)
204016e0:	09c4                	addi	s1,sp,212
204016e2:	2040                	fld	fs0,128(s0)
204016e4:	0018                	0x18
204016e6:	2040                	fld	fs0,128(s0)

204016e8 <VE_DECIMAL>:
204016e8:	16c8                	addi	a0,sp,868
204016ea:	2040                	fld	fs0,128(s0)
204016ec:	0000                	unimp
204016ee:	0000                	unimp
204016f0:	63656407          	0x63656407
204016f4:	6d69                	lui	s10,0x1a
204016f6:	6c61                	lui	s8,0x18

204016f8 <XT_DECIMAL>:
204016f8:	06cc                	addi	a1,sp,836
204016fa:	2040                	fld	fs0,128(s0)

204016fc <PFA_DECIMAL>:
204016fc:	13f4                	addi	a3,sp,492
204016fe:	2040                	fld	fs0,128(s0)
20401700:	000a                	c.slli	zero,0x2
20401702:	0000                	unimp
20401704:	0e08                	addi	a0,sp,784
20401706:	2040                	fld	fs0,128(s0)
20401708:	02c8                	addi	a0,sp,324
2040170a:	2040                	fld	fs0,128(s0)
2040170c:	0018                	0x18
2040170e:	2040                	fld	fs0,128(s0)

20401710 <VE_HEX>:
20401710:	16ec                	addi	a1,sp,876
20401712:	2040                	fld	fs0,128(s0)
20401714:	0000                	unimp
20401716:	0000                	unimp
20401718:	78656803          	0x78656803

2040171c <XT_HEX>:
2040171c:	06cc                	addi	a1,sp,836
2040171e:	2040                	fld	fs0,128(s0)

20401720 <PFA_HEX>:
20401720:	13f4                	addi	a3,sp,492
20401722:	2040                	fld	fs0,128(s0)
20401724:	0010                	0x10
20401726:	0000                	unimp
20401728:	0e08                	addi	a0,sp,784
2040172a:	2040                	fld	fs0,128(s0)
2040172c:	02c8                	addi	a0,sp,324
2040172e:	2040                	fld	fs0,128(s0)
20401730:	0018                	0x18
20401732:	2040                	fld	fs0,128(s0)

20401734 <VE_PAD>:
20401734:	1714                	addi	a3,sp,928
20401736:	2040                	fld	fs0,128(s0)
20401738:	0000                	unimp
2040173a:	0000                	unimp
2040173c:	64617003          	0x64617003

20401740 <XT_PAD>:
20401740:	06cc                	addi	a1,sp,836
20401742:	2040                	fld	fs0,128(s0)

20401744 <PFA_PAD>:
20401744:	1768                	addi	a0,sp,940
20401746:	2040                	fld	fs0,128(s0)
20401748:	13f4                	addi	a3,sp,492
2040174a:	2040                	fld	fs0,128(s0)
2040174c:	0028                	addi	a0,sp,8
2040174e:	0000                	unimp
20401750:	0e1c                	addi	a5,sp,784
20401752:	2040                	fld	fs0,128(s0)
20401754:	0018                	0x18
20401756:	2040                	fld	fs0,128(s0)

20401758 <VE_HERE>:
20401758:	1738                	addi	a4,sp,936
2040175a:	2040                	fld	fs0,128(s0)
2040175c:	0000                	unimp
2040175e:	0000                	unimp
20401760:	6804                	flw	fs1,16(s0)
20401762:	7265                	lui	tp,0xffff9
20401764:	aa65                	j	2040191c <PFA_DDOTR>
20401766:	aaaa                	fsd	fa0,336(sp)

20401768 <XT_HERE>:
20401768:	06cc                	addi	a1,sp,836
2040176a:	2040                	fld	fs0,128(s0)

2040176c <PFA_HERE>:
2040176c:	3778                	fld	fa4,232(a4)
2040176e:	2040                	fld	fs0,128(s0)
20401770:	0018                	0x18
20401772:	2040                	fld	fs0,128(s0)

20401774 <VE_ALLOT>:
20401774:	175c                	addi	a5,sp,932
20401776:	2040                	fld	fs0,128(s0)
20401778:	0000                	unimp
2040177a:	0000                	unimp
2040177c:	6105                	addi	sp,sp,32
2040177e:	6c6c                	flw	fa1,92(s0)
20401780:	aaaa746f          	jal	s0,203a8a2a <UART0_DIV+0x10395a12>

20401784 <XT_ALLOT>:
20401784:	06cc                	addi	a1,sp,836
20401786:	2040                	fld	fs0,128(s0)

20401788 <PFA_ALLOT>:
20401788:	3778                	fld	fa4,232(a4)
2040178a:	2040                	fld	fs0,128(s0)
2040178c:	0e1c                	addi	a5,sp,784
2040178e:	2040                	fld	fs0,128(s0)
20401790:	3660                	fld	fs0,232(a2)
20401792:	2040                	fld	fs0,128(s0)
20401794:	3778                	fld	fa4,232(a4)
20401796:	2040                	fld	fs0,128(s0)
20401798:	0018                	0x18
2040179a:	2040                	fld	fs0,128(s0)

2040179c <VE_HLD>:
2040179c:	1778                	addi	a4,sp,940
2040179e:	2040                	fld	fs0,128(s0)
204017a0:	0101                	addi	sp,sp,0
204017a2:	0000                	unimp
204017a4:	646c6803          	0x646c6803

204017a8 <XT_HLD>:
204017a8:	12d8                	addi	a4,sp,356
204017aa:	2040                	fld	fs0,128(s0)

204017ac <PFA_HLD>:
204017ac:	0224                	addi	s1,sp,264
204017ae:	8000                	0x8000

204017b0 <VE_HOLD>:
204017b0:	17a0                	addi	s0,sp,1000
204017b2:	2040                	fld	fs0,128(s0)
204017b4:	0000                	unimp
204017b6:	0000                	unimp
204017b8:	6804                	flw	fs1,16(s0)
204017ba:	aa646c6f          	jal	s8,20347a60 <UART0_DIV+0x10334a48>
204017be:	aaaa                	fsd	fa0,336(sp)

204017c0 <XT_HOLD>:
204017c0:	06cc                	addi	a1,sp,836
204017c2:	2040                	fld	fs0,128(s0)

204017c4 <PFA_HOLD>:
204017c4:	17a8                	addi	a0,sp,1000
204017c6:	2040                	fld	fs0,128(s0)
204017c8:	0078                	addi	a4,sp,12
204017ca:	2040                	fld	fs0,128(s0)
204017cc:	02b0                	addi	a2,sp,328
204017ce:	2040                	fld	fs0,128(s0)
204017d0:	0e74                	addi	a3,sp,796
204017d2:	2040                	fld	fs0,128(s0)
204017d4:	0078                	addi	a4,sp,12
204017d6:	2040                	fld	fs0,128(s0)
204017d8:	0194                	addi	a3,sp,192
204017da:	2040                	fld	fs0,128(s0)
204017dc:	0058                	addi	a4,sp,4
204017de:	2040                	fld	fs0,128(s0)
204017e0:	02c8                	addi	a0,sp,324
204017e2:	2040                	fld	fs0,128(s0)
204017e4:	01b0                	addi	a2,sp,200
204017e6:	2040                	fld	fs0,128(s0)
204017e8:	06b4                	addi	a3,sp,840
204017ea:	2040                	fld	fs0,128(s0)
204017ec:	0018                	0x18
204017ee:	2040                	fld	fs0,128(s0)

204017f0 <VE_L_SHARP>:
204017f0:	17b4                	addi	a3,sp,1000
204017f2:	2040                	fld	fs0,128(s0)
204017f4:	0000                	unimp
204017f6:	0000                	unimp
204017f8:	3c02                	fld	fs8,32(sp)
204017fa:	          	sw	a2,116(s9)

204017fc <XT_L_SHARP>:
204017fc:	06cc                	addi	a1,sp,836
204017fe:	2040                	fld	fs0,128(s0)

20401800 <PFA_L_SHARP>:
20401800:	1740                	addi	s0,sp,932
20401802:	2040                	fld	fs0,128(s0)
20401804:	17a8                	addi	a0,sp,1000
20401806:	2040                	fld	fs0,128(s0)
20401808:	02c8                	addi	a0,sp,324
2040180a:	2040                	fld	fs0,128(s0)
2040180c:	0018                	0x18
2040180e:	2040                	fld	fs0,128(s0)

20401810 <VE_SHARP>:
20401810:	17f4                	addi	a3,sp,1004
20401812:	2040                	fld	fs0,128(s0)
20401814:	0000                	unimp
20401816:	0000                	unimp
20401818:	2301                	jal	20401d18 <XT_PROMPTREADYDEFAULT>
2040181a:	aaaa                	fsd	fa0,336(sp)

2040181c <XT_SHARP>:
2040181c:	06cc                	addi	a1,sp,836
2040181e:	2040                	fld	fs0,128(s0)

20401820 <PFA_SHARP>:
20401820:	0e08                	addi	a0,sp,784
20401822:	2040                	fld	fs0,128(s0)
20401824:	02b0                	addi	a2,sp,328
20401826:	2040                	fld	fs0,128(s0)
20401828:	0c74                	addi	a3,sp,540
2040182a:	2040                	fld	fs0,128(s0)
2040182c:	00d0                	addi	a2,sp,68
2040182e:	2040                	fld	fs0,128(s0)
20401830:	13f4                	addi	a3,sp,492
20401832:	2040                	fld	fs0,128(s0)
20401834:	0009                	c.nop	2
20401836:	0000                	unimp
20401838:	00b0                	addi	a2,sp,72
2040183a:	2040                	fld	fs0,128(s0)
2040183c:	0794                	addi	a3,sp,960
2040183e:	2040                	fld	fs0,128(s0)
20401840:	13d8                	addi	a4,sp,484
20401842:	2040                	fld	fs0,128(s0)
20401844:	1854                	addi	a3,sp,52
20401846:	2040                	fld	fs0,128(s0)
20401848:	13f4                	addi	a3,sp,492
2040184a:	2040                	fld	fs0,128(s0)
2040184c:	00000007          	0x7
20401850:	0e1c                	addi	a5,sp,784
20401852:	2040                	fld	fs0,128(s0)

20401854 <PFA_SHARP1>:
20401854:	13f4                	addi	a3,sp,492
20401856:	2040                	fld	fs0,128(s0)
20401858:	0030                	addi	a2,sp,8
2040185a:	0000                	unimp
2040185c:	0e1c                	addi	a5,sp,784
2040185e:	2040                	fld	fs0,128(s0)
20401860:	17c0                	addi	s0,sp,996
20401862:	2040                	fld	fs0,128(s0)
20401864:	0018                	0x18
20401866:	2040                	fld	fs0,128(s0)

20401868 <VE_SHARP_S>:
20401868:	1814                	addi	a3,sp,48
2040186a:	2040                	fld	fs0,128(s0)
2040186c:	0000                	unimp
2040186e:	0000                	unimp
20401870:	2302                	fld	ft6,0(sp)
20401872:	          	csrrs	s4,0x6c,s9

20401874 <XT_SHARP_S>:
20401874:	06cc                	addi	a1,sp,836
20401876:	2040                	fld	fs0,128(s0)

20401878 <PFA_SHARP_S>:
20401878:	181c                	addi	a5,sp,48
2040187a:	2040                	fld	fs0,128(s0)
2040187c:	0c04                	addi	s1,sp,528
2040187e:	2040                	fld	fs0,128(s0)
20401880:	04c0                	addi	s0,sp,580
20401882:	2040                	fld	fs0,128(s0)
20401884:	06f8                	addi	a4,sp,844
20401886:	2040                	fld	fs0,128(s0)
20401888:	13d8                	addi	a4,sp,484
2040188a:	2040                	fld	fs0,128(s0)
2040188c:	1878                	addi	a4,sp,60
2040188e:	2040                	fld	fs0,128(s0)
20401890:	0018                	0x18
20401892:	2040                	fld	fs0,128(s0)

20401894 <VE_SHARP_G>:
20401894:	186c                	addi	a1,sp,60
20401896:	2040                	fld	fs0,128(s0)
20401898:	0000                	unimp
2040189a:	0000                	unimp
2040189c:	2302                	fld	ft6,0(sp)
2040189e:	aa3e                	fsd	fa5,272(sp)

204018a0 <XT_SHARP_G>:
204018a0:	06cc                	addi	a1,sp,836
204018a2:	2040                	fld	fs0,128(s0)

204018a4 <PFA_SHARP_G>:
204018a4:	09c4                	addi	s1,sp,212
204018a6:	2040                	fld	fs0,128(s0)
204018a8:	17a8                	addi	a0,sp,1000
204018aa:	2040                	fld	fs0,128(s0)
204018ac:	02b0                	addi	a2,sp,328
204018ae:	2040                	fld	fs0,128(s0)
204018b0:	1740                	addi	s0,sp,932
204018b2:	2040                	fld	fs0,128(s0)
204018b4:	00b0                	addi	a2,sp,72
204018b6:	2040                	fld	fs0,128(s0)
204018b8:	0e3c                	addi	a5,sp,792
204018ba:	2040                	fld	fs0,128(s0)
204018bc:	0018                	0x18
204018be:	2040                	fld	fs0,128(s0)

204018c0 <VE_SIGN>:
204018c0:	1898                	addi	a4,sp,112
204018c2:	2040                	fld	fs0,128(s0)
204018c4:	0000                	unimp
204018c6:	0000                	unimp
204018c8:	7304                	flw	fs1,32(a4)
204018ca:	6769                	lui	a4,0x1a
204018cc:	aa6e                	fsd	fs11,272(sp)
204018ce:	aaaa                	fsd	fa0,336(sp)

204018d0 <XT_SIGN>:
204018d0:	06cc                	addi	a1,sp,836
204018d2:	2040                	fld	fs0,128(s0)

204018d4 <PFA_SIGN>:
204018d4:	0734                	addi	a3,sp,904
204018d6:	2040                	fld	fs0,128(s0)
204018d8:	13d8                	addi	a4,sp,484
204018da:	2040                	fld	fs0,128(s0)
204018dc:	18ec                	addi	a1,sp,124
204018de:	2040                	fld	fs0,128(s0)
204018e0:	13f4                	addi	a3,sp,492
204018e2:	2040                	fld	fs0,128(s0)
204018e4:	002d                	c.nop	11
204018e6:	0000                	unimp
204018e8:	17c0                	addi	s0,sp,996
204018ea:	2040                	fld	fs0,128(s0)

204018ec <PFA_SIGN1>:
204018ec:	0018                	0x18
204018ee:	2040                	fld	fs0,128(s0)

204018f0 <VE_DOT>:
204018f0:	18c4                	addi	s1,sp,116
204018f2:	2040                	fld	fs0,128(s0)
204018f4:	0000                	unimp
204018f6:	0000                	unimp
204018f8:	2e01                	jal	20401c08 <PFA_CRLFQ+0x14>
204018fa:	aaaa                	fsd	fa0,336(sp)

204018fc <XT_DOT>:
204018fc:	06cc                	addi	a1,sp,836
204018fe:	2040                	fld	fs0,128(s0)

20401900 <PFA_DOT>:
20401900:	0c28                	addi	a0,sp,536
20401902:	2040                	fld	fs0,128(s0)
20401904:	1960                	addi	s0,sp,188
20401906:	2040                	fld	fs0,128(s0)
20401908:	0018                	0x18
2040190a:	2040                	fld	fs0,128(s0)

2040190c <VE_DDOTR>:
2040190c:	18f4                	addi	a3,sp,124
2040190e:	2040                	fld	fs0,128(s0)
20401910:	0000                	unimp
20401912:	0000                	unimp
20401914:	722e6403          	0x722e6403

20401918 <XT_DDOTR>:
20401918:	06cc                	addi	a1,sp,836
2040191a:	2040                	fld	fs0,128(s0)

2040191c <PFA_DDOTR>:
2040191c:	0194                	addi	a3,sp,192
2040191e:	2040                	fld	fs0,128(s0)
20401920:	0120                	addi	s0,sp,136
20401922:	2040                	fld	fs0,128(s0)
20401924:	0b08                	addi	a0,sp,400
20401926:	2040                	fld	fs0,128(s0)
20401928:	17fc                	addi	a5,sp,1004
2040192a:	2040                	fld	fs0,128(s0)
2040192c:	1874                	addi	a3,sp,60
2040192e:	2040                	fld	fs0,128(s0)
20401930:	00d0                	addi	a2,sp,68
20401932:	2040                	fld	fs0,128(s0)
20401934:	18d0                	addi	a2,sp,116
20401936:	2040                	fld	fs0,128(s0)
20401938:	18a0                	addi	s0,sp,120
2040193a:	2040                	fld	fs0,128(s0)
2040193c:	01b0                	addi	a2,sp,200
2040193e:	2040                	fld	fs0,128(s0)
20401940:	00b0                	addi	a2,sp,72
20401942:	2040                	fld	fs0,128(s0)
20401944:	0e3c                	addi	a5,sp,792
20401946:	2040                	fld	fs0,128(s0)
20401948:	1674                	addi	a3,sp,812
2040194a:	2040                	fld	fs0,128(s0)
2040194c:	2d18                	fld	fa4,24(a0)
2040194e:	2040                	fld	fs0,128(s0)
20401950:	0018                	0x18
20401952:	2040                	fld	fs0,128(s0)

20401954 <VE_DDOT>:
20401954:	1910                	addi	a2,sp,176
20401956:	2040                	fld	fs0,128(s0)
20401958:	0000                	unimp
2040195a:	0000                	unimp
2040195c:	6402                	flw	fs0,0(sp)
2040195e:	aa2e                	fsd	fa1,272(sp)

20401960 <XT_DDOT>:
20401960:	06cc                	addi	a1,sp,836
20401962:	2040                	fld	fs0,128(s0)

20401964 <PFA_DDOT>:
20401964:	1524                	addi	s1,sp,680
20401966:	2040                	fld	fs0,128(s0)
20401968:	1918                	addi	a4,sp,176
2040196a:	2040                	fld	fs0,128(s0)
2040196c:	1654                	addi	a3,sp,804
2040196e:	2040                	fld	fs0,128(s0)
20401970:	0018                	0x18
20401972:	2040                	fld	fs0,128(s0)

20401974 <VE_UDOT>:
20401974:	1958                	addi	a4,sp,180
20401976:	2040                	fld	fs0,128(s0)
20401978:	0000                	unimp
2040197a:	0000                	unimp
2040197c:	7502                	flw	fa0,32(sp)
2040197e:	aa2e                	fsd	fa1,272(sp)

20401980 <XT_UDOT>:
20401980:	06cc                	addi	a1,sp,836
20401982:	2040                	fld	fs0,128(s0)

20401984 <PFA_UDOT>:
20401984:	1524                	addi	s1,sp,680
20401986:	2040                	fld	fs0,128(s0)
20401988:	199c                	addi	a5,sp,240
2040198a:	2040                	fld	fs0,128(s0)
2040198c:	0018                	0x18
2040198e:	2040                	fld	fs0,128(s0)

20401990 <VE_UDDOT>:
20401990:	1978                	addi	a4,sp,188
20401992:	2040                	fld	fs0,128(s0)
20401994:	0000                	unimp
20401996:	0000                	unimp
20401998:	2e647503          	0x2e647503

2040199c <XT_UDDOT>:
2040199c:	06cc                	addi	a1,sp,836
2040199e:	2040                	fld	fs0,128(s0)

204019a0 <PFA_UDDOT>:
204019a0:	1524                	addi	s1,sp,680
204019a2:	2040                	fld	fs0,128(s0)
204019a4:	19c0                	addi	s0,sp,244
204019a6:	2040                	fld	fs0,128(s0)
204019a8:	1654                	addi	a3,sp,804
204019aa:	2040                	fld	fs0,128(s0)
204019ac:	0018                	0x18
204019ae:	2040                	fld	fs0,128(s0)

204019b0 <VE_UDDOTR>:
204019b0:	1994                	addi	a3,sp,240
204019b2:	2040                	fld	fs0,128(s0)
204019b4:	0000                	unimp
204019b6:	0000                	unimp
204019b8:	7504                	flw	fs1,40(a0)
204019ba:	2e64                	fld	fs1,216(a2)
204019bc:	aa72                	fsd	ft8,272(sp)
204019be:	aaaa                	fsd	fa0,336(sp)

204019c0 <XT_UDDOTR>:
204019c0:	06cc                	addi	a1,sp,836
204019c2:	2040                	fld	fs0,128(s0)

204019c4 <PFA_UDDOTR>:
204019c4:	0194                	addi	a3,sp,192
204019c6:	2040                	fld	fs0,128(s0)
204019c8:	17fc                	addi	a5,sp,1004
204019ca:	2040                	fld	fs0,128(s0)
204019cc:	1874                	addi	a3,sp,60
204019ce:	2040                	fld	fs0,128(s0)
204019d0:	18a0                	addi	s0,sp,120
204019d2:	2040                	fld	fs0,128(s0)
204019d4:	01b0                	addi	a2,sp,200
204019d6:	2040                	fld	fs0,128(s0)
204019d8:	00b0                	addi	a2,sp,72
204019da:	2040                	fld	fs0,128(s0)
204019dc:	0e3c                	addi	a5,sp,792
204019de:	2040                	fld	fs0,128(s0)
204019e0:	1674                	addi	a3,sp,812
204019e2:	2040                	fld	fs0,128(s0)
204019e4:	2d18                	fld	fa4,24(a0)
204019e6:	2040                	fld	fs0,128(s0)
204019e8:	0018                	0x18
204019ea:	2040                	fld	fs0,128(s0)

204019ec <VE_DOTS>:
204019ec:	19b4                	addi	a3,sp,248
204019ee:	2040                	fld	fs0,128(s0)
204019f0:	0000                	unimp
204019f2:	0000                	unimp
204019f4:	2e02                	fld	ft8,0(sp)
204019f6:	          	csrrs	s4,0x6c,s9

204019f8 <XT_DOTS>:
204019f8:	06cc                	addi	a1,sp,836
204019fa:	2040                	fld	fs0,128(s0)

204019fc <PFA_DOTS>:
204019fc:	0428                	addi	a0,sp,520
204019fe:	2040                	fld	fs0,128(s0)
20401a00:	1980                	addi	s0,sp,240
20401a02:	2040                	fld	fs0,128(s0)
20401a04:	1654                	addi	a3,sp,804
20401a06:	2040                	fld	fs0,128(s0)
20401a08:	0428                	addi	a0,sp,520
20401a0a:	2040                	fld	fs0,128(s0)
20401a0c:	1524                	addi	s1,sp,680
20401a0e:	2040                	fld	fs0,128(s0)
20401a10:	2b8c                	fld	fa1,16(a5)
20401a12:	2040                	fld	fs0,128(s0)
20401a14:	13d8                	addi	a4,sp,484
20401a16:	2040                	fld	fs0,128(s0)
20401a18:	1a34                	addi	a3,sp,312
20401a1a:	2040                	fld	fs0,128(s0)
20401a1c:	119c                	addi	a5,sp,224
20401a1e:	2040                	fld	fs0,128(s0)

20401a20 <PFA_DOTS1>:
20401a20:	1250                	addi	a2,sp,292
20401a22:	2040                	fld	fs0,128(s0)
20401a24:	0174                	addi	a3,sp,140
20401a26:	2040                	fld	fs0,128(s0)
20401a28:	18fc                	addi	a5,sp,124
20401a2a:	2040                	fld	fs0,128(s0)
20401a2c:	11d4                	addi	a3,sp,228
20401a2e:	2040                	fld	fs0,128(s0)
20401a30:	1a20                	addi	s0,sp,312
20401a32:	2040                	fld	fs0,128(s0)

20401a34 <PFA_DOTS2>:
20401a34:	0018                	0x18
20401a36:	2040                	fld	fs0,128(s0)

20401a38 <VE_REFILL>:
20401a38:	19f0                	addi	a2,sp,252
20401a3a:	2040                	fld	fs0,128(s0)
20401a3c:	00c0                	addi	s0,sp,68
20401a3e:	0000                	unimp
20401a40:	7206                	flw	ft4,96(sp)
20401a42:	6665                	lui	a2,0x19
20401a44:	6c69                	lui	s8,0x1a
20401a46:	aa6c                	fsd	fa1,208(a2)

20401a48 <XT_REFILL>:
20401a48:	1318                	addi	a4,sp,416
20401a4a:	2040                	fld	fs0,128(s0)

20401a4c <PFA_REFILL>:
20401a4c:	0228                	addi	a0,sp,264
20401a4e:	8000                	0x8000
20401a50:	1a70                	addi	a2,sp,316
20401a52:	2040                	fld	fs0,128(s0)
20401a54:	02b0                	addi	a2,sp,328
20401a56:	2040                	fld	fs0,128(s0)
20401a58:	02c8                	addi	a0,sp,324
20401a5a:	2040                	fld	fs0,128(s0)

20401a5c <VE_REFILLTIB>:
20401a5c:	1a3c                	addi	a5,sp,312
20401a5e:	2040                	fld	fs0,128(s0)
20401a60:	0000                	unimp
20401a62:	0000                	unimp
20401a64:	720a                	flw	ft4,160(sp)
20401a66:	6665                	lui	a2,0x19
20401a68:	6c69                	lui	s8,0x1a
20401a6a:	2d6c                	fld	fa1,216(a0)
20401a6c:	6974                	flw	fa3,84(a0)
20401a6e:	aa62                	fsd	fs8,272(sp)

20401a70 <XT_REFILLTIB>:
20401a70:	06cc                	addi	a1,sp,836
20401a72:	2040                	fld	fs0,128(s0)

20401a74 <PFA_REFILLTIB>:
20401a74:	0f3c                	addi	a5,sp,920
20401a76:	2040                	fld	fs0,128(s0)
20401a78:	13f4                	addi	a3,sp,492
20401a7a:	2040                	fld	fs0,128(s0)
20401a7c:	0060                	addi	s0,sp,12
20401a7e:	0000                	unimp
20401a80:	1ab0                	addi	a2,sp,376
20401a82:	2040                	fld	fs0,128(s0)
20401a84:	0f64                	addi	s1,sp,924
20401a86:	2040                	fld	fs0,128(s0)
20401a88:	02c8                	addi	a0,sp,324
20401a8a:	2040                	fld	fs0,128(s0)
20401a8c:	1524                	addi	s1,sp,680
20401a8e:	2040                	fld	fs0,128(s0)
20401a90:	3764                	fld	fs1,232(a4)
20401a92:	2040                	fld	fs0,128(s0)
20401a94:	02c8                	addi	a0,sp,324
20401a96:	2040                	fld	fs0,128(s0)
20401a98:	158c                	addi	a1,sp,736
20401a9a:	2040                	fld	fs0,128(s0)
20401a9c:	0018                	0x18
20401a9e:	2040                	fld	fs0,128(s0)

20401aa0 <VE_ACCEPT>:
20401aa0:	1a60                	addi	s0,sp,316
20401aa2:	2040                	fld	fs0,128(s0)
20401aa4:	0000                	unimp
20401aa6:	0000                	unimp
20401aa8:	6106                	flw	ft2,64(sp)
20401aaa:	70656363          	bltu	a0,t1,204021b0 <PFA_FINDXTA+0x18>
20401aae:	aa74                	fsd	fa3,208(a2)

20401ab0 <XT_ACCEPT>:
20401ab0:	06cc                	addi	a1,sp,836
20401ab2:	2040                	fld	fs0,128(s0)

20401ab4 <PFA_ACCEPT>:
20401ab4:	00b0                	addi	a2,sp,72
20401ab6:	2040                	fld	fs0,128(s0)
20401ab8:	0e1c                	addi	a5,sp,784
20401aba:	2040                	fld	fs0,128(s0)
20401abc:	00b0                	addi	a2,sp,72
20401abe:	2040                	fld	fs0,128(s0)

20401ac0 <ACC1>:
20401ac0:	1088                	addi	a0,sp,96
20401ac2:	2040                	fld	fs0,128(s0)
20401ac4:	0078                	addi	a4,sp,12
20401ac6:	2040                	fld	fs0,128(s0)
20401ac8:	1bf0                	addi	a2,sp,508
20401aca:	2040                	fld	fs0,128(s0)
20401acc:	06f8                	addi	a4,sp,844
20401ace:	2040                	fld	fs0,128(s0)
20401ad0:	13d8                	addi	a4,sp,484
20401ad2:	2040                	fld	fs0,128(s0)
20401ad4:	1ba0                	addi	s0,sp,504
20401ad6:	2040                	fld	fs0,128(s0)
20401ad8:	0078                	addi	a4,sp,12
20401ada:	2040                	fld	fs0,128(s0)
20401adc:	13f4                	addi	a3,sp,492
20401ade:	2040                	fld	fs0,128(s0)
20401ae0:	0008                	0x8
20401ae2:	0000                	unimp
20401ae4:	08a4                	addi	s1,sp,88
20401ae6:	2040                	fld	fs0,128(s0)
20401ae8:	13d8                	addi	a4,sp,484
20401aea:	2040                	fld	fs0,128(s0)
20401aec:	1b38                	addi	a4,sp,440
20401aee:	2040                	fld	fs0,128(s0)
20401af0:	0038                	addi	a4,sp,8
20401af2:	2040                	fld	fs0,128(s0)
20401af4:	00d0                	addi	a2,sp,68
20401af6:	2040                	fld	fs0,128(s0)
20401af8:	0c04                	addi	s1,sp,528
20401afa:	2040                	fld	fs0,128(s0)
20401afc:	07bc                	addi	a5,sp,968
20401afe:	2040                	fld	fs0,128(s0)
20401b00:	0194                	addi	a3,sp,192
20401b02:	2040                	fld	fs0,128(s0)
20401b04:	00d0                	addi	a2,sp,68
20401b06:	2040                	fld	fs0,128(s0)
20401b08:	00d0                	addi	a2,sp,68
20401b0a:	2040                	fld	fs0,128(s0)
20401b0c:	01b0                	addi	a2,sp,200
20401b0e:	2040                	fld	fs0,128(s0)
20401b10:	13d8                	addi	a4,sp,484
20401b12:	2040                	fld	fs0,128(s0)
20401b14:	1b30                	addi	a2,sp,440
20401b16:	2040                	fld	fs0,128(s0)
20401b18:	1bc0                	addi	s0,sp,500
20401b1a:	2040                	fld	fs0,128(s0)
20401b1c:	0e74                	addi	a3,sp,796
20401b1e:	2040                	fld	fs0,128(s0)
20401b20:	0194                	addi	a3,sp,192
20401b22:	2040                	fld	fs0,128(s0)
20401b24:	00b0                	addi	a2,sp,72
20401b26:	2040                	fld	fs0,128(s0)
20401b28:	01b0                	addi	a2,sp,200
20401b2a:	2040                	fld	fs0,128(s0)
20401b2c:	0944                	addi	s1,sp,148
20401b2e:	2040                	fld	fs0,128(s0)

20401b30 <ACC6>:
20401b30:	13cc                	addi	a1,sp,484
20401b32:	2040                	fld	fs0,128(s0)
20401b34:	1b98                	addi	a4,sp,496
20401b36:	2040                	fld	fs0,128(s0)

20401b38 <ACC3>:
20401b38:	0078                	addi	a4,sp,12
20401b3a:	2040                	fld	fs0,128(s0)
20401b3c:	163c                	addi	a5,sp,808
20401b3e:	2040                	fld	fs0,128(s0)
20401b40:	0794                	addi	a3,sp,960
20401b42:	2040                	fld	fs0,128(s0)
20401b44:	13d8                	addi	a4,sp,484
20401b46:	2040                	fld	fs0,128(s0)
20401b48:	1b54                	addi	a3,sp,436
20401b4a:	2040                	fld	fs0,128(s0)
20401b4c:	0038                	addi	a4,sp,8
20401b4e:	2040                	fld	fs0,128(s0)
20401b50:	163c                	addi	a5,sp,808
20401b52:	2040                	fld	fs0,128(s0)

20401b54 <PFA_ACCEPT6>:
20401b54:	0194                	addi	a3,sp,192
20401b56:	2040                	fld	fs0,128(s0)
20401b58:	0c04                	addi	s1,sp,528
20401b5a:	2040                	fld	fs0,128(s0)
20401b5c:	07bc                	addi	a5,sp,968
20401b5e:	2040                	fld	fs0,128(s0)
20401b60:	01b0                	addi	a2,sp,200
20401b62:	2040                	fld	fs0,128(s0)
20401b64:	0058                	addi	a4,sp,4
20401b66:	2040                	fld	fs0,128(s0)
20401b68:	13d8                	addi	a4,sp,484
20401b6a:	2040                	fld	fs0,128(s0)
20401b6c:	1b94                	addi	a3,sp,496
20401b6e:	2040                	fld	fs0,128(s0)
20401b70:	0078                	addi	a4,sp,12
20401b72:	2040                	fld	fs0,128(s0)
20401b74:	10ec                	addi	a1,sp,108
20401b76:	2040                	fld	fs0,128(s0)
20401b78:	00b0                	addi	a2,sp,72
20401b7a:	2040                	fld	fs0,128(s0)
20401b7c:	06b4                	addi	a3,sp,840
20401b7e:	2040                	fld	fs0,128(s0)
20401b80:	0e5c                	addi	a5,sp,788
20401b82:	2040                	fld	fs0,128(s0)
20401b84:	00b0                	addi	a2,sp,72
20401b86:	2040                	fld	fs0,128(s0)
20401b88:	091c                	addi	a5,sp,144
20401b8a:	2040                	fld	fs0,128(s0)
20401b8c:	13cc                	addi	a1,sp,484
20401b8e:	2040                	fld	fs0,128(s0)
20401b90:	1b98                	addi	a4,sp,496
20401b92:	2040                	fld	fs0,128(s0)

20401b94 <ACC7>:
20401b94:	0038                	addi	a4,sp,8
20401b96:	2040                	fld	fs0,128(s0)

20401b98 <ACC4>:
20401b98:	13cc                	addi	a1,sp,484
20401b9a:	2040                	fld	fs0,128(s0)
20401b9c:	1ac0                	addi	s0,sp,372
20401b9e:	2040                	fld	fs0,128(s0)

20401ba0 <ACC5>:
20401ba0:	0038                	addi	a4,sp,8
20401ba2:	2040                	fld	fs0,128(s0)
20401ba4:	0094                	addi	a3,sp,64
20401ba6:	2040                	fld	fs0,128(s0)
20401ba8:	0058                	addi	a4,sp,4
20401baa:	2040                	fld	fs0,128(s0)
20401bac:	0e3c                	addi	a5,sp,792
20401bae:	2040                	fld	fs0,128(s0)
20401bb0:	0018                	0x18
20401bb2:	2040                	fld	fs0,128(s0)

20401bb4 <VE_BS>:
20401bb4:	1aa4                	addi	s1,sp,376
20401bb6:	2040                	fld	fs0,128(s0)
20401bb8:	0000                	unimp
20401bba:	0000                	unimp
20401bbc:	6202                	flw	ft4,0(sp)
20401bbe:	          	csrrs	s4,0x6c,s9

20401bc0 <XT_BS>:
20401bc0:	06cc                	addi	a1,sp,836
20401bc2:	2040                	fld	fs0,128(s0)

20401bc4 <PFA_BS>:
20401bc4:	13f4                	addi	a3,sp,492
20401bc6:	2040                	fld	fs0,128(s0)
20401bc8:	0008                	0x8
20401bca:	0000                	unimp
20401bcc:	0078                	addi	a4,sp,12
20401bce:	2040                	fld	fs0,128(s0)
20401bd0:	10ec                	addi	a1,sp,108
20401bd2:	2040                	fld	fs0,128(s0)
20401bd4:	1654                	addi	a3,sp,804
20401bd6:	2040                	fld	fs0,128(s0)
20401bd8:	10ec                	addi	a1,sp,108
20401bda:	2040                	fld	fs0,128(s0)
20401bdc:	0018                	0x18
20401bde:	2040                	fld	fs0,128(s0)

20401be0 <VE_CRLFQ>:
20401be0:	1bb8                	addi	a4,sp,504
20401be2:	2040                	fld	fs0,128(s0)
20401be4:	0000                	unimp
20401be6:	0000                	unimp
20401be8:	3f05                	jal	20401b18 <ACC1+0x58>
20401bea:	666c7263          	bleu	t1,s8,2040224e <PFA_TRAVERSEWORDLIST+0x12>
20401bee:	aaaa                	fsd	fa0,336(sp)

20401bf0 <XT_CRLFQ>:
20401bf0:	06cc                	addi	a1,sp,836
20401bf2:	2040                	fld	fs0,128(s0)

20401bf4 <PFA_CRLFQ>:
20401bf4:	0078                	addi	a4,sp,12
20401bf6:	2040                	fld	fs0,128(s0)
20401bf8:	13f4                	addi	a3,sp,492
20401bfa:	2040                	fld	fs0,128(s0)
20401bfc:	000d                	c.nop	3
20401bfe:	0000                	unimp
20401c00:	08a4                	addi	s1,sp,88
20401c02:	2040                	fld	fs0,128(s0)
20401c04:	0058                	addi	a4,sp,4
20401c06:	2040                	fld	fs0,128(s0)
20401c08:	13f4                	addi	a3,sp,492
20401c0a:	2040                	fld	fs0,128(s0)
20401c0c:	000a                	c.slli	zero,0x2
20401c0e:	0000                	unimp
20401c10:	08a4                	addi	s1,sp,88
20401c12:	2040                	fld	fs0,128(s0)
20401c14:	04c0                	addi	s0,sp,580
20401c16:	2040                	fld	fs0,128(s0)
20401c18:	0018                	0x18
20401c1a:	2040                	fld	fs0,128(s0)

20401c1c <VE_PROMPTERROR>:
20401c1c:	1be4                	addi	s1,sp,508
20401c1e:	2040                	fld	fs0,128(s0)
20401c20:	00c0                	addi	s0,sp,68
20401c22:	0000                	unimp
20401c24:	2e06                	fld	ft8,64(sp)
20401c26:	7265                	lui	tp,0xffff9
20401c28:	6f72                	flw	ft10,28(sp)
20401c2a:	aa72                	fsd	ft8,272(sp)

20401c2c <XT_PROMPTERROR>:
20401c2c:	1318                	addi	a4,sp,416
20401c2e:	2040                	fld	fs0,128(s0)

20401c30 <PFA_PROMPTERROR>:
20401c30:	022c                	addi	a1,sp,264
20401c32:	8000                	0x8000
20401c34:	1c40                	addi	s0,sp,564
20401c36:	2040                	fld	fs0,128(s0)
20401c38:	02b0                	addi	a2,sp,328
20401c3a:	2040                	fld	fs0,128(s0)
20401c3c:	02c8                	addi	a0,sp,324
20401c3e:	2040                	fld	fs0,128(s0)

20401c40 <XT_PROMPTERROR_DEFAULT>:
20401c40:	06cc                	addi	a1,sp,836
20401c42:	2040                	fld	fs0,128(s0)

20401c44 <PFA_PROMPTERROR_DEFAULT>:
20401c44:	12b4                	addi	a3,sp,360
20401c46:	2040                	fld	fs0,128(s0)
20401c48:	2004                	fld	fs1,0(s0)
20401c4a:	0f203f3f 2d180f0f 	0x2d180f0f0f203f3f
20401c52:	2040                	fld	fs0,128(s0)
20401c54:	0e08                	addi	a0,sp,784
20401c56:	2040                	fld	fs0,128(s0)
20401c58:	02b0                	addi	a2,sp,328
20401c5a:	2040                	fld	fs0,128(s0)
20401c5c:	0194                	addi	a3,sp,192
20401c5e:	2040                	fld	fs0,128(s0)
20401c60:	16f8                	addi	a4,sp,876
20401c62:	2040                	fld	fs0,128(s0)
20401c64:	18fc                	addi	a5,sp,124
20401c66:	2040                	fld	fs0,128(s0)
20401c68:	3764                	fld	fs1,232(a4)
20401c6a:	2040                	fld	fs0,128(s0)
20401c6c:	02b0                	addi	a2,sp,328
20401c6e:	2040                	fld	fs0,128(s0)
20401c70:	18fc                	addi	a5,sp,124
20401c72:	2040                	fld	fs0,128(s0)
20401c74:	01b0                	addi	a2,sp,200
20401c76:	2040                	fld	fs0,128(s0)
20401c78:	0e08                	addi	a0,sp,784
20401c7a:	2040                	fld	fs0,128(s0)
20401c7c:	02c8                	addi	a0,sp,324
20401c7e:	2040                	fld	fs0,128(s0)
20401c80:	0018                	0x18
20401c82:	2040                	fld	fs0,128(s0)

20401c84 <VE_PROMPTINPUT>:
20401c84:	1c20                	addi	s0,sp,568
20401c86:	2040                	fld	fs0,128(s0)
20401c88:	00c0                	addi	s0,sp,68
20401c8a:	0000                	unimp
20401c8c:	2e06                	fld	ft8,64(sp)
20401c8e:	6e69                	lui	t3,0x1a
20401c90:	7570                	flw	fa2,108(a0)
20401c92:	aa74                	fsd	fa3,208(a2)

20401c94 <XT_PROMPTINPUT>:
20401c94:	1318                	addi	a4,sp,416
20401c96:	2040                	fld	fs0,128(s0)

20401c98 <PFA_PROMPTINPUT>:
20401c98:	0230                	addi	a2,sp,264
20401c9a:	8000                	0x8000
20401c9c:	1ca8                	addi	a0,sp,632
20401c9e:	2040                	fld	fs0,128(s0)
20401ca0:	02b0                	addi	a2,sp,328
20401ca2:	2040                	fld	fs0,128(s0)
20401ca4:	02c8                	addi	a0,sp,324
20401ca6:	2040                	fld	fs0,128(s0)

20401ca8 <XT_PROMPTINPUT_DEFAULT>:
20401ca8:	06cc                	addi	a1,sp,836
20401caa:	2040                	fld	fs0,128(s0)

20401cac <PFA_PROMPTINPUT_DEFAULT>:
20401cac:	1610                	addi	a2,sp,800
20401cae:	2040                	fld	fs0,128(s0)
20401cb0:	0018                	0x18
20401cb2:	2040                	fld	fs0,128(s0)

20401cb4 <VE_PROMPTOK>:
20401cb4:	1c88                	addi	a0,sp,624
20401cb6:	2040                	fld	fs0,128(s0)
20401cb8:	00c0                	addi	s0,sp,68
20401cba:	0000                	unimp
20401cbc:	6b6f2e03          	lw	t3,1718(t5) # 1b6b6 <CLINT_MTIME+0xf6be>

20401cc0 <XT_PROMPTOK>:
20401cc0:	1318                	addi	a4,sp,416
20401cc2:	2040                	fld	fs0,128(s0)

20401cc4 <PFA_PROMPTOK>:
20401cc4:	0234                	addi	a3,sp,264
20401cc6:	8000                	0x8000
20401cc8:	1cd4                	addi	a3,sp,628
20401cca:	2040                	fld	fs0,128(s0)
20401ccc:	02b0                	addi	a2,sp,328
20401cce:	2040                	fld	fs0,128(s0)
20401cd0:	02c8                	addi	a0,sp,324
20401cd2:	2040                	fld	fs0,128(s0)

20401cd4 <XT_PROMPTOKDEFAULT>:
20401cd4:	06cc                	addi	a1,sp,836
20401cd6:	2040                	fld	fs0,128(s0)

20401cd8 <PFA_PROMPTOKDEFAULT>:
20401cd8:	0f28                	addi	a0,sp,920
20401cda:	2040                	fld	fs0,128(s0)
20401cdc:	02b0                	addi	a2,sp,328
20401cde:	2040                	fld	fs0,128(s0)
20401ce0:	0038                	addi	a4,sp,8
20401ce2:	2040                	fld	fs0,128(s0)
20401ce4:	12b4                	addi	a3,sp,360
20401ce6:	2040                	fld	fs0,128(s0)
20401ce8:	6b6f2003          	lw	zero,1718(t5)
20401cec:	2d18                	fld	fa4,24(a0)
20401cee:	2040                	fld	fs0,128(s0)
20401cf0:	0018                	0x18
20401cf2:	2040                	fld	fs0,128(s0)

20401cf4 <VE_PROMPTREADY>:
20401cf4:	1cb8                	addi	a4,sp,632
20401cf6:	2040                	fld	fs0,128(s0)
20401cf8:	00c0                	addi	s0,sp,68
20401cfa:	0000                	unimp
20401cfc:	2e06                	fld	ft8,64(sp)
20401cfe:	6572                	flw	fa0,28(sp)
20401d00:	6461                	lui	s0,0x18
20401d02:	aa79                	j	20401ea0 <PFA_CSCAN1+0x14>

20401d04 <XT_PROMPTREADY>:
20401d04:	1318                	addi	a4,sp,416
20401d06:	2040                	fld	fs0,128(s0)

20401d08 <PFA_PROMPTREADY>:
20401d08:	0238                	addi	a4,sp,264
20401d0a:	8000                	0x8000
20401d0c:	1d18                	addi	a4,sp,688
20401d0e:	2040                	fld	fs0,128(s0)
20401d10:	02b0                	addi	a2,sp,328
20401d12:	2040                	fld	fs0,128(s0)
20401d14:	02c8                	addi	a0,sp,324
20401d16:	2040                	fld	fs0,128(s0)

20401d18 <XT_PROMPTREADYDEFAULT>:
20401d18:	06cc                	addi	a1,sp,836
20401d1a:	2040                	fld	fs0,128(s0)

20401d1c <PFA_PROMPTREADYDEFAULT>:
20401d1c:	1610                	addi	a2,sp,800
20401d1e:	2040                	fld	fs0,128(s0)
20401d20:	12b4                	addi	a3,sp,360
20401d22:	2040                	fld	fs0,128(s0)
20401d24:	3e02                	fld	ft8,32(sp)
20401d26:	0f20                	addi	s0,sp,920
20401d28:	2d18                	fld	fa4,24(a0)
20401d2a:	2040                	fld	fs0,128(s0)
20401d2c:	0018                	0x18
20401d2e:	2040                	fld	fs0,128(s0)

20401d30 <VE_HANDLER>:
20401d30:	1cf8                	addi	a4,sp,636
20401d32:	2040                	fld	fs0,128(s0)
20401d34:	0101                	addi	sp,sp,0
20401d36:	0000                	unimp
20401d38:	6e616807          	0x6e616807
20401d3c:	6c64                	flw	fs1,92(s0)
20401d3e:	7265                	lui	tp,0xffff9

20401d40 <XT_HANDLER>:
20401d40:	1328                	addi	a0,sp,424
20401d42:	2040                	fld	fs0,128(s0)

20401d44 <PFA_HANDLER>:
20401d44:	0014                	0x14
	...

20401d48 <VE_CATCH>:
20401d48:	1d34                	addi	a3,sp,696
20401d4a:	2040                	fld	fs0,128(s0)
20401d4c:	0000                	unimp
20401d4e:	0000                	unimp
20401d50:	6305                	lui	t1,0x1
20401d52:	7461                	lui	s0,0xffff8
20401d54:	aaaa6863          	bltu	s4,a0,20401004 <PFA_QUIT4+0x4>

20401d58 <XT_CATCH>:
20401d58:	06cc                	addi	a1,sp,836
20401d5a:	2040                	fld	fs0,128(s0)

20401d5c <PFA_CATCH>:
20401d5c:	0248                	addi	a0,sp,260
20401d5e:	2040                	fld	fs0,128(s0)
20401d60:	0194                	addi	a3,sp,192
20401d62:	2040                	fld	fs0,128(s0)
20401d64:	1d40                	addi	s0,sp,692
20401d66:	2040                	fld	fs0,128(s0)
20401d68:	02b0                	addi	a2,sp,328
20401d6a:	2040                	fld	fs0,128(s0)
20401d6c:	0194                	addi	a3,sp,192
20401d6e:	2040                	fld	fs0,128(s0)
20401d70:	01f4                	addi	a3,sp,204
20401d72:	2040                	fld	fs0,128(s0)
20401d74:	1d40                	addi	s0,sp,692
20401d76:	2040                	fld	fs0,128(s0)
20401d78:	02c8                	addi	a0,sp,324
20401d7a:	2040                	fld	fs0,128(s0)
20401d7c:	1068                	addi	a0,sp,44
20401d7e:	2040                	fld	fs0,128(s0)
20401d80:	01b0                	addi	a2,sp,200
20401d82:	2040                	fld	fs0,128(s0)
20401d84:	1d40                	addi	s0,sp,692
20401d86:	2040                	fld	fs0,128(s0)
20401d88:	02c8                	addi	a0,sp,324
20401d8a:	2040                	fld	fs0,128(s0)
20401d8c:	01b0                	addi	a2,sp,200
20401d8e:	2040                	fld	fs0,128(s0)
20401d90:	0038                	addi	a4,sp,8
20401d92:	2040                	fld	fs0,128(s0)
20401d94:	1524                	addi	s1,sp,680
20401d96:	2040                	fld	fs0,128(s0)
20401d98:	0018                	0x18
20401d9a:	2040                	fld	fs0,128(s0)

20401d9c <VE_THROW>:
20401d9c:	1d4c                	addi	a1,sp,692
20401d9e:	2040                	fld	fs0,128(s0)
20401da0:	0000                	unimp
20401da2:	0000                	unimp
20401da4:	7405                	lui	s0,0xfffe1
20401da6:	7268                	flw	fa0,100(a2)
20401da8:	aaaa776f          	jal	a4,203a9052 <UART0_DIV+0x1039603a>

20401dac <XT_THROW>:
20401dac:	06cc                	addi	a1,sp,836
20401dae:	2040                	fld	fs0,128(s0)

20401db0 <PFA_THROW>:
20401db0:	00fc                	addi	a5,sp,76
20401db2:	2040                	fld	fs0,128(s0)
20401db4:	13d8                	addi	a4,sp,484
20401db6:	2040                	fld	fs0,128(s0)
20401db8:	1dec                	addi	a1,sp,764
20401dba:	2040                	fld	fs0,128(s0)
20401dbc:	1d40                	addi	s0,sp,692
20401dbe:	2040                	fld	fs0,128(s0)
20401dc0:	02b0                	addi	a2,sp,328
20401dc2:	2040                	fld	fs0,128(s0)
20401dc4:	0214                	addi	a3,sp,256
20401dc6:	2040                	fld	fs0,128(s0)
20401dc8:	01b0                	addi	a2,sp,200
20401dca:	2040                	fld	fs0,128(s0)
20401dcc:	1d40                	addi	s0,sp,692
20401dce:	2040                	fld	fs0,128(s0)
20401dd0:	02c8                	addi	a0,sp,324
20401dd2:	2040                	fld	fs0,128(s0)
20401dd4:	01b0                	addi	a2,sp,200
20401dd6:	2040                	fld	fs0,128(s0)
20401dd8:	0058                	addi	a4,sp,4
20401dda:	2040                	fld	fs0,128(s0)
20401ddc:	0194                	addi	a3,sp,192
20401dde:	2040                	fld	fs0,128(s0)
20401de0:	0268                	addi	a0,sp,268
20401de2:	2040                	fld	fs0,128(s0)
20401de4:	0038                	addi	a4,sp,8
20401de6:	2040                	fld	fs0,128(s0)
20401de8:	01b0                	addi	a2,sp,200
20401dea:	2040                	fld	fs0,128(s0)

20401dec <PFA_THROW1>:
20401dec:	0018                	0x18
20401dee:	2040                	fld	fs0,128(s0)

20401df0 <VE_SOURCE>:
20401df0:	1da0                	addi	s0,sp,760
20401df2:	2040                	fld	fs0,128(s0)
20401df4:	00c0                	addi	s0,sp,68
20401df6:	0000                	unimp
20401df8:	7306                	flw	ft6,96(sp)
20401dfa:	6372756f          	jal	a0,20429c30 <FlashEnd+0x19c30>
20401dfe:	aa65                	j	20401fb6 <VE_PARSE+0x2>

20401e00 <XT_SOURCE>:
20401e00:	1318                	addi	a4,sp,416
20401e02:	2040                	fld	fs0,128(s0)

20401e04 <PFA_SOURCE>:
20401e04:	023c                	addi	a5,sp,264
20401e06:	8000                	0x8000
20401e08:	1e28                	addi	a0,sp,824
20401e0a:	2040                	fld	fs0,128(s0)
20401e0c:	02b0                	addi	a2,sp,328
20401e0e:	2040                	fld	fs0,128(s0)
20401e10:	02c8                	addi	a0,sp,324
20401e12:	2040                	fld	fs0,128(s0)

20401e14 <VE_SOURCETIB>:
20401e14:	1df4                	addi	a3,sp,764
20401e16:	2040                	fld	fs0,128(s0)
20401e18:	0000                	unimp
20401e1a:	0000                	unimp
20401e1c:	730a                	flw	ft6,160(sp)
20401e1e:	6372756f          	jal	a0,20429c54 <FlashEnd+0x19c54>
20401e22:	2d65                	jal	204024da <PFA_DIGITQ+0x12>
20401e24:	6974                	flw	fa3,84(a0)
20401e26:	aa62                	fsd	fs8,272(sp)

20401e28 <XT_SOURCETIB>:
20401e28:	06cc                	addi	a1,sp,836
20401e2a:	2040                	fld	fs0,128(s0)

20401e2c <PFA_SOURCETIB>:
20401e2c:	0f3c                	addi	a5,sp,920
20401e2e:	2040                	fld	fs0,128(s0)
20401e30:	0f64                	addi	s1,sp,924
20401e32:	2040                	fld	fs0,128(s0)
20401e34:	02b0                	addi	a2,sp,328
20401e36:	2040                	fld	fs0,128(s0)
20401e38:	0018                	0x18
20401e3a:	2040                	fld	fs0,128(s0)

20401e3c <VE_QSTACK>:
20401e3c:	1e18                	addi	a4,sp,816
20401e3e:	2040                	fld	fs0,128(s0)
20401e40:	0000                	unimp
20401e42:	0000                	unimp
20401e44:	3f06                	fld	ft10,96(sp)
20401e46:	63617473          	csrrci	s0,0x636,2
20401e4a:	          	0x6ccaa6b

20401e4c <XT_QSTACK>:
20401e4c:	06cc                	addi	a1,sp,836
20401e4e:	2040                	fld	fs0,128(s0)

20401e50 <PFA_QSTACK>:
20401e50:	0428                	addi	a0,sp,520
20401e52:	2040                	fld	fs0,128(s0)
20401e54:	0734                	addi	a3,sp,904
20401e56:	2040                	fld	fs0,128(s0)
20401e58:	13d8                	addi	a4,sp,484
20401e5a:	2040                	fld	fs0,128(s0)
20401e5c:	1e6c                	addi	a1,sp,828
20401e5e:	2040                	fld	fs0,128(s0)
20401e60:	13f4                	addi	a3,sp,492
20401e62:	2040                	fld	fs0,128(s0)
20401e64:	fffc                	fsw	fa5,124(a5)
20401e66:	ffff                	0xffff
20401e68:	1dac                	addi	a1,sp,760
20401e6a:	2040                	fld	fs0,128(s0)

20401e6c <PFA_QSTACK1>:
20401e6c:	0018                	0x18
20401e6e:	2040                	fld	fs0,128(s0)

20401e70 <VE_CSCAN>:
20401e70:	1e40                	addi	s0,sp,820
20401e72:	2040                	fld	fs0,128(s0)
20401e74:	0000                	unimp
20401e76:	0000                	unimp
20401e78:	6305                	lui	t1,0x1
20401e7a:	6e616373          	csrrsi	t1,0x6e6,2
20401e7e:	aaaa                	fsd	fa0,336(sp)

20401e80 <XT_CSCAN>:
20401e80:	06cc                	addi	a1,sp,836
20401e82:	2040                	fld	fs0,128(s0)

20401e84 <PFA_CSCAN>:
20401e84:	0194                	addi	a3,sp,192
20401e86:	2040                	fld	fs0,128(s0)
20401e88:	00b0                	addi	a2,sp,72
20401e8a:	2040                	fld	fs0,128(s0)

20401e8c <PFA_CSCAN1>:
20401e8c:	0078                	addi	a4,sp,12
20401e8e:	2040                	fld	fs0,128(s0)
20401e90:	069c                	addi	a5,sp,832
20401e92:	2040                	fld	fs0,128(s0)
20401e94:	01d4                	addi	a3,sp,196
20401e96:	2040                	fld	fs0,128(s0)
20401e98:	08a4                	addi	s1,sp,88
20401e9a:	2040                	fld	fs0,128(s0)
20401e9c:	06f8                	addi	a4,sp,844
20401e9e:	2040                	fld	fs0,128(s0)
20401ea0:	13d8                	addi	a4,sp,484
20401ea2:	2040                	fld	fs0,128(s0)
20401ea4:	1ed4                	addi	a3,sp,884
20401ea6:	2040                	fld	fs0,128(s0)
20401ea8:	0058                	addi	a4,sp,4
20401eaa:	2040                	fld	fs0,128(s0)
20401eac:	0e74                	addi	a3,sp,796
20401eae:	2040                	fld	fs0,128(s0)
20401eb0:	0058                	addi	a4,sp,4
20401eb2:	2040                	fld	fs0,128(s0)
20401eb4:	00b0                	addi	a2,sp,72
20401eb6:	2040                	fld	fs0,128(s0)
20401eb8:	0734                	addi	a3,sp,904
20401eba:	2040                	fld	fs0,128(s0)
20401ebc:	06f8                	addi	a4,sp,844
20401ebe:	2040                	fld	fs0,128(s0)
20401ec0:	13d8                	addi	a4,sp,484
20401ec2:	2040                	fld	fs0,128(s0)
20401ec4:	1ed4                	addi	a3,sp,884
20401ec6:	2040                	fld	fs0,128(s0)
20401ec8:	0e5c                	addi	a5,sp,788
20401eca:	2040                	fld	fs0,128(s0)
20401ecc:	13cc                	addi	a1,sp,484
20401ece:	2040                	fld	fs0,128(s0)
20401ed0:	1e8c                	addi	a1,sp,880
20401ed2:	2040                	fld	fs0,128(s0)

20401ed4 <PFA_CSCAN2>:
20401ed4:	0094                	addi	a3,sp,64
20401ed6:	2040                	fld	fs0,128(s0)
20401ed8:	00b0                	addi	a2,sp,72
20401eda:	2040                	fld	fs0,128(s0)
20401edc:	0e3c                	addi	a5,sp,792
20401ede:	2040                	fld	fs0,128(s0)
20401ee0:	01b0                	addi	a2,sp,200
20401ee2:	2040                	fld	fs0,128(s0)
20401ee4:	0038                	addi	a4,sp,8
20401ee6:	2040                	fld	fs0,128(s0)
20401ee8:	0018                	0x18
20401eea:	2040                	fld	fs0,128(s0)

20401eec <VE_CSKIP>:
20401eec:	1e74                	addi	a3,sp,828
20401eee:	2040                	fld	fs0,128(s0)
20401ef0:	0000                	unimp
20401ef2:	0000                	unimp
20401ef4:	6305                	lui	t1,0x1
20401ef6:	70696b73          	csrrsi	s6,0x706,18
20401efa:	aaaa                	fsd	fa0,336(sp)

20401efc <XT_CSKIP>:
20401efc:	06cc                	addi	a1,sp,836
20401efe:	2040                	fld	fs0,128(s0)

20401f00 <PFA_CSKIP>:
20401f00:	0194                	addi	a3,sp,192
20401f02:	2040                	fld	fs0,128(s0)

20401f04 <PFA_CSKIP1>:
20401f04:	0078                	addi	a4,sp,12
20401f06:	2040                	fld	fs0,128(s0)
20401f08:	13d8                	addi	a4,sp,484
20401f0a:	2040                	fld	fs0,128(s0)
20401f0c:	1f3c                	addi	a5,sp,952
20401f0e:	2040                	fld	fs0,128(s0)
20401f10:	00b0                	addi	a2,sp,72
20401f12:	2040                	fld	fs0,128(s0)
20401f14:	069c                	addi	a5,sp,832
20401f16:	2040                	fld	fs0,128(s0)
20401f18:	01d4                	addi	a3,sp,196
20401f1a:	2040                	fld	fs0,128(s0)
20401f1c:	08a4                	addi	s1,sp,88
20401f1e:	2040                	fld	fs0,128(s0)
20401f20:	13d8                	addi	a4,sp,484
20401f22:	2040                	fld	fs0,128(s0)
20401f24:	1f3c                	addi	a5,sp,952
20401f26:	2040                	fld	fs0,128(s0)
20401f28:	13f4                	addi	a3,sp,492
20401f2a:	2040                	fld	fs0,128(s0)
20401f2c:	0001                	nop
20401f2e:	0000                	unimp
20401f30:	2014                	fld	fa3,0(s0)
20401f32:	2040                	fld	fs0,128(s0)
20401f34:	13cc                	addi	a1,sp,484
20401f36:	2040                	fld	fs0,128(s0)
20401f38:	1f04                	addi	s1,sp,944
20401f3a:	2040                	fld	fs0,128(s0)

20401f3c <PFA_CSKIP2>:
20401f3c:	01b0                	addi	a2,sp,200
20401f3e:	2040                	fld	fs0,128(s0)
20401f40:	0038                	addi	a4,sp,8
20401f42:	2040                	fld	fs0,128(s0)
20401f44:	0018                	0x18
20401f46:	2040                	fld	fs0,128(s0)

20401f48 <VE_PARSENAME>:
20401f48:	1ef0                	addi	a2,sp,892
20401f4a:	2040                	fld	fs0,128(s0)
20401f4c:	0000                	unimp
20401f4e:	0000                	unimp
20401f50:	700a                	flw	ft0,160(sp)
20401f52:	7261                	lui	tp,0xffff8
20401f54:	6e2d6573          	csrrsi	a0,0x6e2,26
20401f58:	6d61                	lui	s10,0x18
20401f5a:	aa65                	j	20402112 <PFA_IMMEDIATEQ+0x12>

20401f5c <XT_PARSENAME>:
20401f5c:	06cc                	addi	a1,sp,836
20401f5e:	2040                	fld	fs0,128(s0)

20401f60 <PFA_PARSENAME>:
20401f60:	163c                	addi	a5,sp,808
20401f62:	2040                	fld	fs0,128(s0)
20401f64:	1f6c                	addi	a1,sp,956
20401f66:	2040                	fld	fs0,128(s0)
20401f68:	0018                	0x18
20401f6a:	2040                	fld	fs0,128(s0)

20401f6c <XT_SKIPSCANCHAR>:
20401f6c:	06cc                	addi	a1,sp,836
20401f6e:	2040                	fld	fs0,128(s0)

20401f70 <PFA_SKIPSCANCHAR>:
20401f70:	0194                	addi	a3,sp,192
20401f72:	2040                	fld	fs0,128(s0)
20401f74:	1e00                	addi	s0,sp,816
20401f76:	2040                	fld	fs0,128(s0)
20401f78:	3764                	fld	fs1,232(a4)
20401f7a:	2040                	fld	fs0,128(s0)
20401f7c:	02b0                	addi	a2,sp,328
20401f7e:	2040                	fld	fs0,128(s0)
20401f80:	2014                	fld	fa3,0(s0)
20401f82:	2040                	fld	fs0,128(s0)
20401f84:	01d4                	addi	a3,sp,196
20401f86:	2040                	fld	fs0,128(s0)
20401f88:	1efc                	addi	a5,sp,892
20401f8a:	2040                	fld	fs0,128(s0)
20401f8c:	01b0                	addi	a2,sp,200
20401f8e:	2040                	fld	fs0,128(s0)
20401f90:	1e80                	addi	s0,sp,880
20401f92:	2040                	fld	fs0,128(s0)
20401f94:	0c04                	addi	s1,sp,528
20401f96:	2040                	fld	fs0,128(s0)
20401f98:	0e1c                	addi	a5,sp,784
20401f9a:	2040                	fld	fs0,128(s0)
20401f9c:	1e00                	addi	s0,sp,816
20401f9e:	2040                	fld	fs0,128(s0)
20401fa0:	0038                	addi	a4,sp,8
20401fa2:	2040                	fld	fs0,128(s0)
20401fa4:	0e3c                	addi	a5,sp,792
20401fa6:	2040                	fld	fs0,128(s0)
20401fa8:	3764                	fld	fs1,232(a4)
20401faa:	2040                	fld	fs0,128(s0)
20401fac:	02c8                	addi	a0,sp,324
20401fae:	2040                	fld	fs0,128(s0)
20401fb0:	0018                	0x18
20401fb2:	2040                	fld	fs0,128(s0)

20401fb4 <VE_PARSE>:
20401fb4:	1f4c                	addi	a1,sp,948
20401fb6:	2040                	fld	fs0,128(s0)
20401fb8:	0000                	unimp
20401fba:	0000                	unimp
20401fbc:	7005                	c.lui	zero,0xfffe1
20401fbe:	7261                	lui	tp,0xffff8
20401fc0:	aaaa6573          	csrrsi	a0,0xaaa,20

20401fc4 <XT_PARSE>:
20401fc4:	06cc                	addi	a1,sp,836
20401fc6:	2040                	fld	fs0,128(s0)

20401fc8 <PFA_PARSE>:
20401fc8:	0194                	addi	a3,sp,192
20401fca:	2040                	fld	fs0,128(s0)
20401fcc:	1e00                	addi	s0,sp,816
20401fce:	2040                	fld	fs0,128(s0)
20401fd0:	3764                	fld	fs1,232(a4)
20401fd2:	2040                	fld	fs0,128(s0)
20401fd4:	02b0                	addi	a2,sp,328
20401fd6:	2040                	fld	fs0,128(s0)
20401fd8:	2014                	fld	fa3,0(s0)
20401fda:	2040                	fld	fs0,128(s0)
20401fdc:	01b0                	addi	a2,sp,200
20401fde:	2040                	fld	fs0,128(s0)
20401fe0:	1e80                	addi	s0,sp,880
20401fe2:	2040                	fld	fs0,128(s0)
20401fe4:	0078                	addi	a4,sp,12
20401fe6:	2040                	fld	fs0,128(s0)
20401fe8:	0e5c                	addi	a5,sp,788
20401fea:	2040                	fld	fs0,128(s0)
20401fec:	3764                	fld	fs1,232(a4)
20401fee:	2040                	fld	fs0,128(s0)
20401ff0:	0670                	addi	a2,sp,780
20401ff2:	2040                	fld	fs0,128(s0)
20401ff4:	13f4                	addi	a3,sp,492
20401ff6:	2040                	fld	fs0,128(s0)
20401ff8:	0001                	nop
20401ffa:	0000                	unimp
20401ffc:	2014                	fld	fa3,0(s0)
20401ffe:	2040                	fld	fs0,128(s0)
20402000:	0018                	0x18
20402002:	2040                	fld	fs0,128(s0)

20402004 <VE_SLASHSTRING>:
20402004:	1fb8                	addi	a4,sp,1016
20402006:	2040                	fld	fs0,128(s0)
20402008:	0000                	unimp
2040200a:	0000                	unimp
2040200c:	74732f07          	flw	ft10,1863(t1) # 1747 <Flag_2variable+0x1645>
20402010:	6972                	flw	fs2,28(sp)
20402012:	676e                	flw	fa4,216(sp)

20402014 <XT_SLASHSTRING>:
20402014:	06cc                	addi	a1,sp,836
20402016:	2040                	fld	fs0,128(s0)

20402018 <PFA_SLASHSTRING>:
20402018:	00d0                	addi	a2,sp,68
2040201a:	2040                	fld	fs0,128(s0)
2040201c:	00b0                	addi	a2,sp,72
2040201e:	2040                	fld	fs0,128(s0)
20402020:	0e1c                	addi	a5,sp,784
20402022:	2040                	fld	fs0,128(s0)
20402024:	00d0                	addi	a2,sp,68
20402026:	2040                	fld	fs0,128(s0)
20402028:	00d0                	addi	a2,sp,68
2040202a:	2040                	fld	fs0,128(s0)
2040202c:	0e3c                	addi	a5,sp,792
2040202e:	2040                	fld	fs0,128(s0)
20402030:	0018                	0x18
20402032:	2040                	fld	fs0,128(s0)

20402034 <VE_2LITERAL>:
20402034:	2008                	fld	fa0,0(s0)
20402036:	2040                	fld	fs0,128(s0)
20402038:	0010                	0x10
2040203a:	0000                	unimp
2040203c:	3208                	fld	fa0,32(a2)
2040203e:	696c                	flw	fa1,84(a0)
20402040:	6574                	flw	fa3,76(a0)
20402042:	6172                	flw	ft2,28(sp)
20402044:	aa6c                	fsd	fa1,208(a2)
20402046:	aaaa                	fsd	fa0,336(sp)

20402048 <XT_2LITERAL>:
20402048:	06cc                	addi	a1,sp,836
2040204a:	2040                	fld	fs0,128(s0)

2040204c <PFA_2LITERAL>:
2040204c:	0058                	addi	a4,sp,4
2040204e:	2040                	fld	fs0,128(s0)
20402050:	206c                	fld	fa1,192(s0)
20402052:	2040                	fld	fs0,128(s0)
20402054:	206c                	fld	fa1,192(s0)
20402056:	2040                	fld	fs0,128(s0)
20402058:	0018                	0x18
2040205a:	2040                	fld	fs0,128(s0)

2040205c <VE_LITERAL>:
2040205c:	2038                	fld	fa4,64(s0)
2040205e:	2040                	fld	fs0,128(s0)
20402060:	0010                	0x10
20402062:	0000                	unimp
20402064:	74696c07          	0x74696c07
20402068:	7265                	lui	tp,0xffff9
2040206a:	6c61                	lui	s8,0x18

2040206c <XT_LITERAL>:
2040206c:	06cc                	addi	a1,sp,836
2040206e:	2040                	fld	fs0,128(s0)

20402070 <PFA_LITERAL>:
20402070:	2090                	fld	fa2,0(s1)
20402072:	2040                	fld	fs0,128(s0)
20402074:	13f4                	addi	a3,sp,492
20402076:	2040                	fld	fs0,128(s0)
20402078:	20bc                	fld	fa5,64(s1)
2040207a:	2040                	fld	fs0,128(s0)
2040207c:	0018                	0x18
2040207e:	2040                	fld	fs0,128(s0)

20402080 <VE_COMPILE>:
20402080:	2060                	fld	fs0,192(s0)
20402082:	2040                	fld	fs0,128(s0)
20402084:	0000                	unimp
20402086:	0000                	unimp
20402088:	6d6f6307          	0x6d6f6307
2040208c:	6970                	flw	fa2,84(a0)
2040208e:	656c                	flw	fa1,76(a0)

20402090 <XT_COMPILE>:
20402090:	06cc                	addi	a1,sp,836
20402092:	2040                	fld	fs0,128(s0)

20402094 <PFA_COMPILE>:
20402094:	01b0                	addi	a2,sp,200
20402096:	2040                	fld	fs0,128(s0)
20402098:	0078                	addi	a4,sp,12
2040209a:	2040                	fld	fs0,128(s0)
2040209c:	0ef0                	addi	a2,sp,860
2040209e:	2040                	fld	fs0,128(s0)
204020a0:	0194                	addi	a3,sp,192
204020a2:	2040                	fld	fs0,128(s0)
204020a4:	02b0                	addi	a2,sp,328
204020a6:	2040                	fld	fs0,128(s0)
204020a8:	20bc                	fld	fa5,64(s1)
204020aa:	2040                	fld	fs0,128(s0)
204020ac:	0018                	0x18
204020ae:	2040                	fld	fs0,128(s0)

204020b0 <VE_COMMA>:
204020b0:	2084                	fld	fs1,0(s1)
204020b2:	2040                	fld	fs0,128(s0)
204020b4:	0000                	unimp
204020b6:	0000                	unimp
204020b8:	2c01                	jal	204022c8 <VE_CURRENT>
204020ba:	aaaa                	fsd	fa0,336(sp)

204020bc <XT_COMMA>:
204020bc:	06cc                	addi	a1,sp,836
204020be:	2040                	fld	fs0,128(s0)

204020c0 <PFA_COMMA>:
204020c0:	1768                	addi	a0,sp,940
204020c2:	2040                	fld	fs0,128(s0)
204020c4:	02c8                	addi	a0,sp,324
204020c6:	2040                	fld	fs0,128(s0)
204020c8:	13f4                	addi	a3,sp,492
204020ca:	2040                	fld	fs0,128(s0)
204020cc:	0004                	0x4
204020ce:	0000                	unimp
204020d0:	1784                	addi	s1,sp,992
204020d2:	2040                	fld	fs0,128(s0)
204020d4:	0018                	0x18
204020d6:	2040                	fld	fs0,128(s0)

204020d8 <VE_CCOMMA>:
204020d8:	20b4                	fld	fa3,64(s1)
204020da:	2040                	fld	fs0,128(s0)
204020dc:	0000                	unimp
204020de:	0000                	unimp
204020e0:	6302                	flw	ft6,0(sp)
204020e2:	aa2c                	fsd	fa1,80(a2)

204020e4 <XT_CCOMMA>:
204020e4:	06cc                	addi	a1,sp,836
204020e6:	2040                	fld	fs0,128(s0)

204020e8 <PFA_CCOMMA>:
204020e8:	1768                	addi	a0,sp,940
204020ea:	2040                	fld	fs0,128(s0)
204020ec:	06b4                	addi	a3,sp,840
204020ee:	2040                	fld	fs0,128(s0)
204020f0:	1538                	addi	a4,sp,680
204020f2:	2040                	fld	fs0,128(s0)
204020f4:	1784                	addi	s1,sp,992
204020f6:	2040                	fld	fs0,128(s0)
204020f8:	0018                	0x18
204020fa:	2040                	fld	fs0,128(s0)

204020fc <XT_IMMEDIATEQ>:
204020fc:	06cc                	addi	a1,sp,836
204020fe:	2040                	fld	fs0,128(s0)

20402100 <PFA_IMMEDIATEQ>:
20402100:	02b0                	addi	a2,sp,328
20402102:	2040                	fld	fs0,128(s0)
20402104:	13f4                	addi	a3,sp,492
20402106:	2040                	fld	fs0,128(s0)
20402108:	0010                	0x10
2040210a:	0000                	unimp
2040210c:	0120                	addi	s0,sp,136
2040210e:	2040                	fld	fs0,128(s0)
20402110:	04a0                	addi	s0,sp,584
20402112:	2040                	fld	fs0,128(s0)
20402114:	08a4                	addi	s1,sp,88
20402116:	2040                	fld	fs0,128(s0)
20402118:	13d8                	addi	a4,sp,484
2040211a:	2040                	fld	fs0,128(s0)
2040211c:	2128                	fld	fa0,64(a0)
2040211e:	2040                	fld	fs0,128(s0)
20402120:	1538                	addi	a4,sp,680
20402122:	2040                	fld	fs0,128(s0)
20402124:	0018                	0x18
20402126:	2040                	fld	fs0,128(s0)

20402128 <IMMEDIATEQ1>:
20402128:	1574                	addi	a3,sp,684
2040212a:	2040                	fld	fs0,128(s0)
2040212c:	0018                	0x18
2040212e:	2040                	fld	fs0,128(s0)

20402130 <VE_CFG_ORDER>:
20402130:	20dc                	fld	fa5,128(s1)
20402132:	2040                	fld	fs0,128(s0)
20402134:	0000                	unimp
20402136:	0000                	unimp
20402138:	6309                	lui	t1,0x2
2040213a:	6766                	flw	fa4,88(sp)
2040213c:	6f2d                	lui	t5,0xb
2040213e:	6472                	flw	fs0,28(sp)
20402140:	7265                	lui	tp,0xffff9
20402142:	aaaa                	fsd	fa0,336(sp)

20402144 <XT_CFG_ORDER>:
20402144:	12ec                	addi	a1,sp,364
20402146:	2040                	fld	fs0,128(s0)

20402148 <PFA_CFG_ORDER>:
20402148:	00000003          	lb	zero,0(zero) # 0 <Flag_visible>
2040214c:	3828                	fld	fa0,112(s0)
2040214e:	2040                	fld	fs0,128(s0)
20402150:	4248                	lw	a0,4(a2)
20402152:	2040                	fld	fs0,128(s0)
20402154:	421c                	lw	a5,0(a2)
20402156:	2040                	fld	fs0,128(s0)

20402158 <VE_FINDXT>:
20402158:	2134                	fld	fa3,64(a0)
2040215a:	2040                	fld	fs0,128(s0)
2040215c:	0000                	unimp
2040215e:	0000                	unimp
20402160:	6e696607          	0x6e696607
20402164:	2d64                	fld	fs1,216(a0)
20402166:	7478                	flw	fa4,108(s0)

20402168 <XT_FINDXT>:
20402168:	06cc                	addi	a1,sp,836
2040216a:	2040                	fld	fs0,128(s0)

2040216c <PFA_FINDXT>:
2040216c:	13f4                	addi	a3,sp,492
2040216e:	2040                	fld	fs0,128(s0)
20402170:	2194                	fld	fa3,0(a1)
20402172:	2040                	fld	fs0,128(s0)
20402174:	2144                	fld	fs1,128(a0)
20402176:	2040                	fld	fs0,128(s0)
20402178:	2ae0                	fld	fs0,208(a3)
2040217a:	2040                	fld	fs0,128(s0)
2040217c:	06f8                	addi	a4,sp,844
2040217e:	2040                	fld	fs0,128(s0)
20402180:	13d8                	addi	a4,sp,484
20402182:	2040                	fld	fs0,128(s0)
20402184:	2190                	fld	fa2,0(a1)
20402186:	2040                	fld	fs0,128(s0)
20402188:	09c4                	addi	s1,sp,212
2040218a:	2040                	fld	fs0,128(s0)
2040218c:	1524                	addi	s1,sp,680
2040218e:	2040                	fld	fs0,128(s0)

20402190 <PFA_FINDXT1>:
20402190:	0018                	0x18
20402192:	2040                	fld	fs0,128(s0)

20402194 <XT_FINDXTA>:
20402194:	06cc                	addi	a1,sp,836
20402196:	2040                	fld	fs0,128(s0)

20402198 <PFA_FINDXTA>:
20402198:	0194                	addi	a3,sp,192
2040219a:	2040                	fld	fs0,128(s0)
2040219c:	0c04                	addi	s1,sp,528
2040219e:	2040                	fld	fs0,128(s0)
204021a0:	01b0                	addi	a2,sp,200
204021a2:	2040                	fld	fs0,128(s0)
204021a4:	1068                	addi	a0,sp,44
204021a6:	2040                	fld	fs0,128(s0)
204021a8:	2304                	fld	fs1,0(a4)
204021aa:	2040                	fld	fs0,128(s0)
204021ac:	0078                	addi	a4,sp,12
204021ae:	2040                	fld	fs0,128(s0)
204021b0:	13d8                	addi	a4,sp,484
204021b2:	2040                	fld	fs0,128(s0)
204021b4:	21cc                	fld	fa1,128(a1)
204021b6:	2040                	fld	fs0,128(s0)
204021b8:	0194                	addi	a3,sp,192
204021ba:	2040                	fld	fs0,128(s0)
204021bc:	0094                	addi	a3,sp,64
204021be:	2040                	fld	fs0,128(s0)
204021c0:	0094                	addi	a3,sp,64
204021c2:	2040                	fld	fs0,128(s0)
204021c4:	01b0                	addi	a2,sp,200
204021c6:	2040                	fld	fs0,128(s0)
204021c8:	158c                	addi	a1,sp,736
204021ca:	2040                	fld	fs0,128(s0)

204021cc <PFA_FINDXTA1>:
204021cc:	0018                	0x18
204021ce:	2040                	fld	fs0,128(s0)

204021d0 <VE_NFA2LFA>:
204021d0:	215c                	fld	fa5,128(a0)
204021d2:	2040                	fld	fs0,128(s0)
204021d4:	0000                	unimp
204021d6:	0000                	unimp
204021d8:	61666e07          	0x61666e07
204021dc:	6c3e                	flw	fs8,204(sp)
204021de:	6166                	flw	ft2,88(sp)

204021e0 <XT_NFA2LFA>:
204021e0:	06cc                	addi	a1,sp,836
204021e2:	2040                	fld	fs0,128(s0)

204021e4 <PFA_NFA2LFA>:
204021e4:	13f4                	addi	a3,sp,492
204021e6:	2040                	fld	fs0,128(s0)
204021e8:	0004                	0x4
204021ea:	0000                	unimp
204021ec:	0e3c                	addi	a5,sp,792
204021ee:	2040                	fld	fs0,128(s0)
204021f0:	0018                	0x18
204021f2:	2040                	fld	fs0,128(s0)

204021f4 <VE_NFA2CFA>:
204021f4:	21d4                	fld	fa3,128(a1)
204021f6:	2040                	fld	fs0,128(s0)
204021f8:	0000                	unimp
204021fa:	0000                	unimp
204021fc:	61666e07          	0x61666e07
20402200:	6332                	flw	ft6,12(sp)
20402202:	6166                	flw	ft2,88(sp)

20402204 <XT_NFA2CFA>:
20402204:	06cc                	addi	a1,sp,836
20402206:	2040                	fld	fs0,128(s0)

20402208 <PFA_NFA2CFA>:
20402208:	0ef0                	addi	a2,sp,860
2040220a:	2040                	fld	fs0,128(s0)
2040220c:	2cf0                	fld	fa2,216(s1)
2040220e:	2040                	fld	fs0,128(s0)
20402210:	0e1c                	addi	a5,sp,784
20402212:	2040                	fld	fs0,128(s0)
20402214:	129c                	addi	a5,sp,352
20402216:	2040                	fld	fs0,128(s0)
20402218:	0018                	0x18
2040221a:	2040                	fld	fs0,128(s0)

2040221c <VE_TRAVERSEWORDLIST>:
2040221c:	21f8                	fld	fa4,192(a1)
2040221e:	2040                	fld	fs0,128(s0)
20402220:	0000                	unimp
20402222:	0000                	unimp
20402224:	7411                	lui	s0,0xfffe4
20402226:	6172                	flw	ft2,28(sp)
20402228:	6576                	flw	fa0,92(sp)
2040222a:	7372                	flw	ft6,60(sp)
2040222c:	2d65                	jal	204028e4 <PFA_REC_NUM+0xc>
2040222e:	64726f77          	0x64726f77
20402232:	696c                	flw	fa1,84(a0)
20402234:	aaaa7473          	csrrci	s0,0xaaa,20

20402238 <XT_TRAVERSEWORDLIST>:
20402238:	06cc                	addi	a1,sp,836
2040223a:	2040                	fld	fs0,128(s0)

2040223c <PFA_TRAVERSEWORDLIST>:
2040223c:	0078                	addi	a4,sp,12
2040223e:	2040                	fld	fs0,128(s0)
20402240:	13d8                	addi	a4,sp,484
20402242:	2040                	fld	fs0,128(s0)
20402244:	2278                	fld	fa4,192(a2)
20402246:	2040                	fld	fs0,128(s0)
20402248:	0c04                	addi	s1,sp,528
2040224a:	2040                	fld	fs0,128(s0)
2040224c:	0a3c                	addi	a5,sp,280
2040224e:	2040                	fld	fs0,128(s0)
20402250:	0058                	addi	a4,sp,4
20402252:	2040                	fld	fs0,128(s0)
20402254:	1068                	addi	a0,sp,44
20402256:	2040                	fld	fs0,128(s0)
20402258:	0a74                	addi	a3,sp,284
2040225a:	2040                	fld	fs0,128(s0)
2040225c:	00d0                	addi	a2,sp,68
2040225e:	2040                	fld	fs0,128(s0)
20402260:	13d8                	addi	a4,sp,484
20402262:	2040                	fld	fs0,128(s0)
20402264:	2278                	fld	fa4,192(a2)
20402266:	2040                	fld	fs0,128(s0)
20402268:	21e0                	fld	fs0,192(a1)
2040226a:	2040                	fld	fs0,128(s0)
2040226c:	02b0                	addi	a2,sp,328
2040226e:	2040                	fld	fs0,128(s0)
20402270:	13cc                	addi	a1,sp,484
20402272:	2040                	fld	fs0,128(s0)
20402274:	223c                	fld	fa5,64(a2)
20402276:	2040                	fld	fs0,128(s0)

20402278 <PFA_TRAVERSEWORDLIST2>:
20402278:	09c4                	addi	s1,sp,212
2040227a:	2040                	fld	fs0,128(s0)
2040227c:	0018                	0x18
2040227e:	2040                	fld	fs0,128(s0)

20402280 <VE_SHOWWORDLIST>:
20402280:	2220                	fld	fs0,64(a2)
20402282:	2040                	fld	fs0,128(s0)
20402284:	0000                	unimp
20402286:	0000                	unimp
20402288:	730d                	lui	t1,0xfffe3
2040228a:	6f68                	flw	fa0,92(a4)
2040228c:	6f772d77          	0x6f772d77
20402290:	6472                	flw	fs0,28(sp)
20402292:	696c                	flw	fa1,84(a0)
20402294:	aaaa7473          	csrrci	s0,0xaaa,20

20402298 <XT_SHOWWORDLIST>:
20402298:	06cc                	addi	a1,sp,836
2040229a:	2040                	fld	fs0,128(s0)

2040229c <PFA_SHOWWORDLIST>:
2040229c:	13f4                	addi	a3,sp,492
2040229e:	2040                	fld	fs0,128(s0)
204022a0:	22b0                	fld	fa2,64(a3)
204022a2:	2040                	fld	fs0,128(s0)
204022a4:	0058                	addi	a4,sp,4
204022a6:	2040                	fld	fs0,128(s0)
204022a8:	2238                	fld	fa4,64(a2)
204022aa:	2040                	fld	fs0,128(s0)
204022ac:	0018                	0x18
204022ae:	2040                	fld	fs0,128(s0)

204022b0 <XT_SHOWWORD>:
204022b0:	06cc                	addi	a1,sp,836
204022b2:	2040                	fld	fs0,128(s0)

204022b4 <PFA_SHOWWORD>:
204022b4:	23b4                	fld	fa3,64(a5)
204022b6:	2040                	fld	fs0,128(s0)
204022b8:	2d18                	fld	fa4,24(a0)
204022ba:	2040                	fld	fs0,128(s0)
204022bc:	1654                	addi	a3,sp,804
204022be:	2040                	fld	fs0,128(s0)
204022c0:	158c                	addi	a1,sp,736
204022c2:	2040                	fld	fs0,128(s0)
204022c4:	0018                	0x18
204022c6:	2040                	fld	fs0,128(s0)

204022c8 <VE_CURRENT>:
204022c8:	2284                	fld	fs1,0(a3)
204022ca:	2040                	fld	fs0,128(s0)
204022cc:	00a0                	addi	s0,sp,72
204022ce:	0000                	unimp
204022d0:	72756307          	0x72756307
204022d4:	6572                	flw	fa0,28(sp)
204022d6:	746e                	flw	fs0,248(sp)

204022d8 <XT_CURRENT>:
204022d8:	1300                	addi	s0,sp,416
204022da:	2040                	fld	fs0,128(s0)

204022dc <PFA_CURRENT>:
204022dc:	0240                	addi	s0,sp,260
204022de:	8000                	0x8000
204022e0:	3828                	fld	fa0,112(s0)
204022e2:	2040                	fld	fs0,128(s0)
204022e4:	02b0                	addi	a2,sp,328
204022e6:	2040                	fld	fs0,128(s0)
204022e8:	02c8                	addi	a0,sp,324
204022ea:	2040                	fld	fs0,128(s0)

204022ec <VE_SEARCH_WORDLIST>:
204022ec:	22cc                	fld	fa1,128(a3)
204022ee:	2040                	fld	fs0,128(s0)
204022f0:	0000                	unimp
204022f2:	0000                	unimp
204022f4:	6165730f          	0x6165730f
204022f8:	6372                	flw	ft6,28(sp)
204022fa:	2d68                	fld	fa0,216(a0)
204022fc:	64726f77          	0x64726f77
20402300:	696c                	flw	fa1,84(a0)
20402302:	          	csrrci	s0,0x6c,24

20402304 <XT_SEARCH_WORDLIST>:
20402304:	06cc                	addi	a1,sp,836
20402306:	2040                	fld	fs0,128(s0)

20402308 <PFA_SEARCH_WORDLIST>:
20402308:	0194                	addi	a3,sp,192
2040230a:	2040                	fld	fs0,128(s0)
2040230c:	1524                	addi	s1,sp,680
2040230e:	2040                	fld	fs0,128(s0)
20402310:	13f4                	addi	a3,sp,492
20402312:	2040                	fld	fs0,128(s0)
20402314:	2358                	fld	fa4,128(a4)
20402316:	2040                	fld	fs0,128(s0)
20402318:	01b0                	addi	a2,sp,200
2040231a:	2040                	fld	fs0,128(s0)
2040231c:	2238                	fld	fa4,64(a2)
2040231e:	2040                	fld	fs0,128(s0)
20402320:	0078                	addi	a4,sp,12
20402322:	2040                	fld	fs0,128(s0)
20402324:	06f8                	addi	a4,sp,844
20402326:	2040                	fld	fs0,128(s0)
20402328:	13d8                	addi	a4,sp,484
2040232a:	2040                	fld	fs0,128(s0)
2040232c:	2340                	fld	fs0,128(a4)
2040232e:	2040                	fld	fs0,128(s0)
20402330:	09c4                	addi	s1,sp,212
20402332:	2040                	fld	fs0,128(s0)
20402334:	0038                	addi	a4,sp,8
20402336:	2040                	fld	fs0,128(s0)
20402338:	1524                	addi	s1,sp,680
2040233a:	2040                	fld	fs0,128(s0)
2040233c:	0018                	0x18
2040233e:	2040                	fld	fs0,128(s0)

20402340 <PFA_SEARCH_WORDLIST1>:
20402340:	0078                	addi	a4,sp,12
20402342:	2040                	fld	fs0,128(s0)
20402344:	2204                	fld	fs1,0(a2)
20402346:	2040                	fld	fs0,128(s0)
20402348:	0058                	addi	a4,sp,4
2040234a:	2040                	fld	fs0,128(s0)
2040234c:	23e4                	fld	fs1,192(a5)
2040234e:	2040                	fld	fs0,128(s0)
20402350:	20fc                	fld	fa5,192(s1)
20402352:	2040                	fld	fs0,128(s0)
20402354:	0018                	0x18
20402356:	2040                	fld	fs0,128(s0)

20402358 <XT_ISWORD>:
20402358:	06cc                	addi	a1,sp,836
2040235a:	2040                	fld	fs0,128(s0)

2040235c <PFA_ISWORD>:
2040235c:	0194                	addi	a3,sp,192
2040235e:	2040                	fld	fs0,128(s0)
20402360:	0038                	addi	a4,sp,8
20402362:	2040                	fld	fs0,128(s0)
20402364:	0c04                	addi	s1,sp,528
20402366:	2040                	fld	fs0,128(s0)
20402368:	01d4                	addi	a3,sp,196
2040236a:	2040                	fld	fs0,128(s0)
2040236c:	23b4                	fld	fa3,64(a5)
2040236e:	2040                	fld	fs0,128(s0)
20402370:	141c                	addi	a5,sp,544
20402372:	2040                	fld	fs0,128(s0)
20402374:	13d8                	addi	a4,sp,484
20402376:	2040                	fld	fs0,128(s0)
20402378:	2390                	fld	fa2,0(a5)
2040237a:	2040                	fld	fs0,128(s0)
2040237c:	01b0                	addi	a2,sp,200
2040237e:	2040                	fld	fs0,128(s0)
20402380:	0038                	addi	a4,sp,8
20402382:	2040                	fld	fs0,128(s0)
20402384:	1524                	addi	s1,sp,680
20402386:	2040                	fld	fs0,128(s0)
20402388:	158c                	addi	a1,sp,736
2040238a:	2040                	fld	fs0,128(s0)
2040238c:	0018                	0x18
2040238e:	2040                	fld	fs0,128(s0)

20402390 <PFA_ISWORD3>:
20402390:	09c4                	addi	s1,sp,212
20402392:	2040                	fld	fs0,128(s0)
20402394:	01b0                	addi	a2,sp,200
20402396:	2040                	fld	fs0,128(s0)
20402398:	1524                	addi	s1,sp,680
2040239a:	2040                	fld	fs0,128(s0)
2040239c:	0018                	0x18
2040239e:	2040                	fld	fs0,128(s0)

204023a0 <VE_NAME2STRING>:
204023a0:	22f0                	fld	fa2,192(a3)
204023a2:	2040                	fld	fs0,128(s0)
204023a4:	0000                	unimp
204023a6:	0000                	unimp
204023a8:	6d616e0b          	0x6d616e0b
204023ac:	3e65                	jal	20401f64 <PFA_PARSENAME+0x4>
204023ae:	69727473          	csrrci	s0,0x697,4
204023b2:	676e                	flw	fa4,216(sp)

204023b4 <XT_NAME2STRING>:
204023b4:	06cc                	addi	a1,sp,836
204023b6:	2040                	fld	fs0,128(s0)

204023b8 <PFA_NAME2STRING>:
204023b8:	0ef0                	addi	a2,sp,860
204023ba:	2040                	fld	fs0,128(s0)
204023bc:	2cf0                	fld	fa2,216(s1)
204023be:	2040                	fld	fs0,128(s0)
204023c0:	13f4                	addi	a3,sp,492
204023c2:	2040                	fld	fs0,128(s0)
204023c4:	00ff                	0xff
204023c6:	0000                	unimp
204023c8:	04a0                	addi	s0,sp,584
204023ca:	2040                	fld	fs0,128(s0)
204023cc:	0018                	0x18
204023ce:	2040                	fld	fs0,128(s0)

204023d0 <VE_NAME2FLAGS>:
204023d0:	23a4                	fld	fs1,64(a5)
204023d2:	2040                	fld	fs0,128(s0)
204023d4:	0000                	unimp
204023d6:	0000                	unimp
204023d8:	6e0a                	flw	ft8,128(sp)
204023da:	6d61                	lui	s10,0x18
204023dc:	3e65                	jal	20401f94 <PFA_SKIPSCANCHAR+0x24>
204023de:	6c66                	flw	fs8,88(sp)
204023e0:	6761                	lui	a4,0x18
204023e2:	          	csrrs	s4,0x6c,s9

204023e4 <XT_NAME2FLAGS>:
204023e4:	06cc                	addi	a1,sp,836
204023e6:	2040                	fld	fs0,128(s0)

204023e8 <PFA_NAME2FLAGS>:
204023e8:	0018                	0x18
204023ea:	2040                	fld	fs0,128(s0)

204023ec <VE_MPLUS>:
204023ec:	23d4                	fld	fa3,128(a5)
204023ee:	2040                	fld	fs0,128(s0)
204023f0:	0000                	unimp
204023f2:	0000                	unimp
204023f4:	6d02                	flw	fs10,0(sp)
204023f6:	          	0x6ccaa2b

204023f8 <XT_MPLUS>:
204023f8:	06cc                	addi	a1,sp,836
204023fa:	2040                	fld	fs0,128(s0)

204023fc <PFA_MPLUS>:
204023fc:	0c28                	addi	a0,sp,536
204023fe:	2040                	fld	fs0,128(s0)
20402400:	0b70                	addi	a2,sp,412
20402402:	2040                	fld	fs0,128(s0)
20402404:	0018                	0x18
20402406:	2040                	fld	fs0,128(s0)

20402408 <VE_UDSTAR>:
20402408:	23f0                	fld	fa2,192(a5)
2040240a:	2040                	fld	fs0,128(s0)
2040240c:	0000                	unimp
2040240e:	0000                	unimp
20402410:	2a647503          	0x2a647503

20402414 <XT_UDSTAR>:
20402414:	06cc                	addi	a1,sp,836
20402416:	2040                	fld	fs0,128(s0)

20402418 <PFA_UDSTAR>:
20402418:	0078                	addi	a4,sp,12
2040241a:	2040                	fld	fs0,128(s0)
2040241c:	0194                	addi	a3,sp,192
2040241e:	2040                	fld	fs0,128(s0)
20402420:	034c                	addi	a1,sp,388
20402422:	2040                	fld	fs0,128(s0)
20402424:	0038                	addi	a4,sp,8
20402426:	2040                	fld	fs0,128(s0)
20402428:	0058                	addi	a4,sp,4
2040242a:	2040                	fld	fs0,128(s0)
2040242c:	01b0                	addi	a2,sp,200
2040242e:	2040                	fld	fs0,128(s0)
20402430:	034c                	addi	a1,sp,388
20402432:	2040                	fld	fs0,128(s0)
20402434:	00d0                	addi	a2,sp,68
20402436:	2040                	fld	fs0,128(s0)
20402438:	0e1c                	addi	a5,sp,784
2040243a:	2040                	fld	fs0,128(s0)
2040243c:	0018                	0x18
2040243e:	2040                	fld	fs0,128(s0)

20402440 <VE_WITHIN>:
20402440:	240c                	fld	fa1,8(s0)
20402442:	2040                	fld	fs0,128(s0)
20402444:	0000                	unimp
20402446:	0000                	unimp
20402448:	7706                	flw	fa4,96(sp)
2040244a:	7469                	lui	s0,0xffffa
2040244c:	6968                	flw	fa0,84(a0)
2040244e:	aa6e                	fsd	fs11,272(sp)

20402450 <XT_WITHIN>:
20402450:	06cc                	addi	a1,sp,836
20402452:	2040                	fld	fs0,128(s0)

20402454 <PFA_WITHIN>:
20402454:	00b0                	addi	a2,sp,72
20402456:	2040                	fld	fs0,128(s0)
20402458:	0e3c                	addi	a5,sp,792
2040245a:	2040                	fld	fs0,128(s0)
2040245c:	0194                	addi	a3,sp,192
2040245e:	2040                	fld	fs0,128(s0)
20402460:	0e3c                	addi	a5,sp,792
20402462:	2040                	fld	fs0,128(s0)
20402464:	01b0                	addi	a2,sp,200
20402466:	2040                	fld	fs0,128(s0)
20402468:	082c                	addi	a1,sp,24
2040246a:	2040                	fld	fs0,128(s0)
2040246c:	0018                	0x18
2040246e:	2040                	fld	fs0,128(s0)

20402470 <VE_TOUPPER>:
20402470:	2444                	fld	fs1,136(s0)
20402472:	2040                	fld	fs0,128(s0)
20402474:	0000                	unimp
20402476:	0000                	unimp
20402478:	756f7407          	0x756f7407
2040247c:	7070                	flw	fa2,100(s0)
2040247e:	7265                	lui	tp,0xffff9

20402480 <XT_TOUPPER>:
20402480:	06cc                	addi	a1,sp,836
20402482:	2040                	fld	fs0,128(s0)

20402484 <PFA_TOUPPER>:
20402484:	0078                	addi	a4,sp,12
20402486:	2040                	fld	fs0,128(s0)
20402488:	13f4                	addi	a3,sp,492
2040248a:	2040                	fld	fs0,128(s0)
2040248c:	0061                	c.nop	24
2040248e:	0000                	unimp
20402490:	13f4                	addi	a3,sp,492
20402492:	2040                	fld	fs0,128(s0)
20402494:	0000007b          	0x7b
20402498:	2450                	fld	fa2,136(s0)
2040249a:	2040                	fld	fs0,128(s0)
2040249c:	13d8                	addi	a4,sp,484
2040249e:	2040                	fld	fs0,128(s0)
204024a0:	24b0                	fld	fa2,72(s1)
204024a2:	2040                	fld	fs0,128(s0)
204024a4:	13f4                	addi	a3,sp,492
204024a6:	2040                	fld	fs0,128(s0)
204024a8:	00df 0000 04a0      	0x4a0000000df
204024ae:	2040                	fld	fs0,128(s0)

204024b0 <PFA_TOUPPER0>:
204024b0:	0018                	0x18
204024b2:	2040                	fld	fs0,128(s0)

204024b4 <VE_DIGITQ>:
204024b4:	2474                	fld	fa3,200(s0)
204024b6:	2040                	fld	fs0,128(s0)
204024b8:	0000                	unimp
204024ba:	0000                	unimp
204024bc:	6406                	flw	fs0,64(sp)
204024be:	6769                	lui	a4,0x1a
204024c0:	7469                	lui	s0,0xffffa
204024c2:	  	0x2480204006ccaa3f

204024c4 <XT_DIGITQ>:
204024c4:	06cc                	addi	a1,sp,836
204024c6:	2040                	fld	fs0,128(s0)

204024c8 <PFA_DIGITQ>:
204024c8:	2480                	fld	fs0,8(s1)
204024ca:	2040                	fld	fs0,128(s0)
204024cc:	0078                	addi	a4,sp,12
204024ce:	2040                	fld	fs0,128(s0)
204024d0:	13f4                	addi	a3,sp,492
204024d2:	2040                	fld	fs0,128(s0)
204024d4:	0039                	c.nop	14
204024d6:	0000                	unimp
204024d8:	07bc                	addi	a5,sp,968
204024da:	2040                	fld	fs0,128(s0)
204024dc:	13f4                	addi	a3,sp,492
204024de:	2040                	fld	fs0,128(s0)
204024e0:	0100                	addi	s0,sp,128
204024e2:	0000                	unimp
204024e4:	04a0                	addi	s0,sp,584
204024e6:	2040                	fld	fs0,128(s0)
204024e8:	0e1c                	addi	a5,sp,784
204024ea:	2040                	fld	fs0,128(s0)
204024ec:	0078                	addi	a4,sp,12
204024ee:	2040                	fld	fs0,128(s0)
204024f0:	13f4                	addi	a3,sp,492
204024f2:	2040                	fld	fs0,128(s0)
204024f4:	0140                	addi	s0,sp,132
204024f6:	0000                	unimp
204024f8:	07bc                	addi	a5,sp,968
204024fa:	2040                	fld	fs0,128(s0)
204024fc:	13f4                	addi	a3,sp,492
204024fe:	2040                	fld	fs0,128(s0)
20402500:	00000107          	0x107
20402504:	04a0                	addi	s0,sp,584
20402506:	2040                	fld	fs0,128(s0)
20402508:	0e3c                	addi	a5,sp,792
2040250a:	2040                	fld	fs0,128(s0)
2040250c:	13f4                	addi	a3,sp,492
2040250e:	2040                	fld	fs0,128(s0)
20402510:	0030                	addi	a2,sp,8
20402512:	0000                	unimp
20402514:	0e3c                	addi	a5,sp,792
20402516:	2040                	fld	fs0,128(s0)
20402518:	0078                	addi	a4,sp,12
2040251a:	2040                	fld	fs0,128(s0)
2040251c:	0e08                	addi	a0,sp,784
2040251e:	2040                	fld	fs0,128(s0)
20402520:	02b0                	addi	a2,sp,328
20402522:	2040                	fld	fs0,128(s0)
20402524:	082c                	addi	a1,sp,24
20402526:	2040                	fld	fs0,128(s0)
20402528:	0018                	0x18
2040252a:	2040                	fld	fs0,128(s0)

2040252c <VE_TO_NUMBER>:
2040252c:	24b8                	fld	fa4,72(s1)
2040252e:	2040                	fld	fs0,128(s0)
20402530:	0000                	unimp
20402532:	0000                	unimp
20402534:	756e3e07          	fld	ft8,1878(t3) # 1a756 <CLINT_MTIME+0xe75e>
20402538:	626d                	lui	tp,0x1b
2040253a:	7265                	lui	tp,0xffff9

2040253c <XT_TO_NUMBER>:
2040253c:	06cc                	addi	a1,sp,836
2040253e:	2040                	fld	fs0,128(s0)

20402540 <PFA_TO_NUMBER>:
20402540:	0078                	addi	a4,sp,12
20402542:	2040                	fld	fs0,128(s0)
20402544:	13d8                	addi	a4,sp,484
20402546:	2040                	fld	fs0,128(s0)
20402548:	25a0                	fld	fs0,72(a1)
2040254a:	2040                	fld	fs0,128(s0)
2040254c:	00b0                	addi	a2,sp,72
2040254e:	2040                	fld	fs0,128(s0)
20402550:	069c                	addi	a5,sp,832
20402552:	2040                	fld	fs0,128(s0)
20402554:	24c4                	fld	fs1,136(s1)
20402556:	2040                	fld	fs0,128(s0)
20402558:	06f8                	addi	a4,sp,844
2040255a:	2040                	fld	fs0,128(s0)
2040255c:	13d8                	addi	a4,sp,484
2040255e:	2040                	fld	fs0,128(s0)
20402560:	256c                	fld	fa1,200(a0)
20402562:	2040                	fld	fs0,128(s0)
20402564:	0038                	addi	a4,sp,8
20402566:	2040                	fld	fs0,128(s0)
20402568:	0018                	0x18
2040256a:	2040                	fld	fs0,128(s0)

2040256c <TONUM2>:
2040256c:	0194                	addi	a3,sp,192
2040256e:	2040                	fld	fs0,128(s0)
20402570:	096c                	addi	a1,sp,156
20402572:	2040                	fld	fs0,128(s0)
20402574:	0e08                	addi	a0,sp,784
20402576:	2040                	fld	fs0,128(s0)
20402578:	02b0                	addi	a2,sp,328
2040257a:	2040                	fld	fs0,128(s0)
2040257c:	2414                	fld	fa3,8(s0)
2040257e:	2040                	fld	fs0,128(s0)
20402580:	01b0                	addi	a2,sp,200
20402582:	2040                	fld	fs0,128(s0)
20402584:	23f8                	fld	fa4,192(a5)
20402586:	2040                	fld	fs0,128(s0)
20402588:	096c                	addi	a1,sp,156
2040258a:	2040                	fld	fs0,128(s0)
2040258c:	13f4                	addi	a3,sp,492
2040258e:	2040                	fld	fs0,128(s0)
20402590:	0001                	nop
20402592:	0000                	unimp
20402594:	2014                	fld	fa3,0(s0)
20402596:	2040                	fld	fs0,128(s0)
20402598:	13cc                	addi	a1,sp,484
2040259a:	2040                	fld	fs0,128(s0)
2040259c:	2540                	fld	fs0,136(a0)
2040259e:	2040                	fld	fs0,128(s0)

204025a0 <TONUM3>:
204025a0:	0018                	0x18
204025a2:	2040                	fld	fs0,128(s0)

204025a4 <VE_NUMBER>:
204025a4:	2530                	fld	fa2,72(a0)
204025a6:	2040                	fld	fs0,128(s0)
204025a8:	0000                	unimp
204025aa:	0000                	unimp
204025ac:	6e06                	flw	ft8,64(sp)
204025ae:	6d75                	lui	s10,0x1d
204025b0:	6562                	flw	fa0,24(sp)
204025b2:	aa72                	fsd	ft8,272(sp)

204025b4 <XT_NUMBER>:
204025b4:	06cc                	addi	a1,sp,836
204025b6:	2040                	fld	fs0,128(s0)

204025b8 <PFA_NUMBER>:
204025b8:	0e08                	addi	a0,sp,784
204025ba:	2040                	fld	fs0,128(s0)
204025bc:	02b0                	addi	a2,sp,328
204025be:	2040                	fld	fs0,128(s0)
204025c0:	0194                	addi	a3,sp,192
204025c2:	2040                	fld	fs0,128(s0)
204025c4:	26d0                	fld	fa2,136(a3)
204025c6:	2040                	fld	fs0,128(s0)
204025c8:	0194                	addi	a3,sp,192
204025ca:	2040                	fld	fs0,128(s0)
204025cc:	2744                	fld	fs1,136(a4)
204025ce:	2040                	fld	fs0,128(s0)
204025d0:	26d0                	fld	fa2,136(a3)
204025d2:	2040                	fld	fs0,128(s0)
204025d4:	01b0                	addi	a2,sp,200
204025d6:	2040                	fld	fs0,128(s0)
204025d8:	04c0                	addi	s0,sp,580
204025da:	2040                	fld	fs0,128(s0)
204025dc:	0194                	addi	a3,sp,192
204025de:	2040                	fld	fs0,128(s0)
204025e0:	0078                	addi	a4,sp,12
204025e2:	2040                	fld	fs0,128(s0)
204025e4:	06f8                	addi	a4,sp,844
204025e6:	2040                	fld	fs0,128(s0)
204025e8:	13d8                	addi	a4,sp,484
204025ea:	2040                	fld	fs0,128(s0)
204025ec:	2610                	fld	fa2,8(a2)
204025ee:	2040                	fld	fs0,128(s0)
204025f0:	09c4                	addi	s1,sp,212
204025f2:	2040                	fld	fs0,128(s0)
204025f4:	01b0                	addi	a2,sp,200
204025f6:	2040                	fld	fs0,128(s0)
204025f8:	0038                	addi	a4,sp,8
204025fa:	2040                	fld	fs0,128(s0)
204025fc:	01b0                	addi	a2,sp,200
204025fe:	2040                	fld	fs0,128(s0)
20402600:	0e08                	addi	a0,sp,784
20402602:	2040                	fld	fs0,128(s0)
20402604:	02c8                	addi	a0,sp,324
20402606:	2040                	fld	fs0,128(s0)
20402608:	1524                	addi	s1,sp,680
2040260a:	2040                	fld	fs0,128(s0)
2040260c:	0018                	0x18
2040260e:	2040                	fld	fs0,128(s0)

20402610 <PFA_NUMBER0>:
20402610:	0a3c                	addi	a5,sp,280
20402612:	2040                	fld	fs0,128(s0)
20402614:	1524                	addi	s1,sp,680
20402616:	2040                	fld	fs0,128(s0)
20402618:	1524                	addi	s1,sp,680
2040261a:	2040                	fld	fs0,128(s0)
2040261c:	0a74                	addi	a3,sp,284
2040261e:	2040                	fld	fs0,128(s0)
20402620:	253c                	fld	fa5,72(a0)
20402622:	2040                	fld	fs0,128(s0)
20402624:	00fc                	addi	a5,sp,76
20402626:	2040                	fld	fs0,128(s0)
20402628:	13d8                	addi	a4,sp,484
2040262a:	2040                	fld	fs0,128(s0)
2040262c:	26a0                	fld	fs0,72(a3)
2040262e:	2040                	fld	fs0,128(s0)
20402630:	13f4                	addi	a3,sp,492
20402632:	2040                	fld	fs0,128(s0)
20402634:	0001                	nop
20402636:	0000                	unimp
20402638:	08a4                	addi	s1,sp,88
2040263a:	2040                	fld	fs0,128(s0)
2040263c:	13d8                	addi	a4,sp,484
2040263e:	2040                	fld	fs0,128(s0)
20402640:	267c                	fld	fa5,200(a2)
20402642:	2040                	fld	fs0,128(s0)
20402644:	069c                	addi	a5,sp,832
20402646:	2040                	fld	fs0,128(s0)
20402648:	13f4                	addi	a3,sp,492
2040264a:	2040                	fld	fs0,128(s0)
2040264c:	002e                	c.slli	zero,0xb
2040264e:	0000                	unimp
20402650:	08a4                	addi	s1,sp,88
20402652:	2040                	fld	fs0,128(s0)
20402654:	13d8                	addi	a4,sp,484
20402656:	2040                	fld	fs0,128(s0)
20402658:	2680                	fld	fs0,8(a3)
2040265a:	2040                	fld	fs0,128(s0)
2040265c:	01b0                	addi	a2,sp,200
2040265e:	2040                	fld	fs0,128(s0)
20402660:	13d8                	addi	a4,sp,484
20402662:	2040                	fld	fs0,128(s0)
20402664:	266c                	fld	fa1,200(a2)
20402666:	2040                	fld	fs0,128(s0)
20402668:	0b34                	addi	a3,sp,408
2040266a:	2040                	fld	fs0,128(s0)

2040266c <PFA_NUMBER3>:
2040266c:	13f4                	addi	a3,sp,492
2040266e:	2040                	fld	fs0,128(s0)
20402670:	0002                	c.slli64	zero
20402672:	0000                	unimp
20402674:	13cc                	addi	a1,sp,484
20402676:	2040                	fld	fs0,128(s0)
20402678:	26bc                	fld	fa5,72(a3)
2040267a:	2040                	fld	fs0,128(s0)

2040267c <PFA_NUMBER2>:
2040267c:	0038                	addi	a4,sp,8
2040267e:	2040                	fld	fs0,128(s0)

20402680 <PFA_NUMBER6>:
20402680:	09c4                	addi	s1,sp,212
20402682:	2040                	fld	fs0,128(s0)
20402684:	01b0                	addi	a2,sp,200
20402686:	2040                	fld	fs0,128(s0)
20402688:	0038                	addi	a4,sp,8
2040268a:	2040                	fld	fs0,128(s0)
2040268c:	01b0                	addi	a2,sp,200
2040268e:	2040                	fld	fs0,128(s0)
20402690:	0e08                	addi	a0,sp,784
20402692:	2040                	fld	fs0,128(s0)
20402694:	02c8                	addi	a0,sp,324
20402696:	2040                	fld	fs0,128(s0)
20402698:	1524                	addi	s1,sp,680
2040269a:	2040                	fld	fs0,128(s0)
2040269c:	0018                	0x18
2040269e:	2040                	fld	fs0,128(s0)

204026a0 <PFA_NUMBER1>:
204026a0:	09c4                	addi	s1,sp,212
204026a2:	2040                	fld	fs0,128(s0)
204026a4:	01b0                	addi	a2,sp,200
204026a6:	2040                	fld	fs0,128(s0)
204026a8:	13d8                	addi	a4,sp,484
204026aa:	2040                	fld	fs0,128(s0)
204026ac:	26b4                	fld	fa3,72(a3)
204026ae:	2040                	fld	fs0,128(s0)
204026b0:	02f0                	addi	a2,sp,332
204026b2:	2040                	fld	fs0,128(s0)

204026b4 <PFA_NUMBER4>:
204026b4:	13f4                	addi	a3,sp,492
204026b6:	2040                	fld	fs0,128(s0)
204026b8:	0001                	nop
	...

204026bc <PFA_NUMBER5>:
204026bc:	01b0                	addi	a2,sp,200
204026be:	2040                	fld	fs0,128(s0)
204026c0:	0e08                	addi	a0,sp,784
204026c2:	2040                	fld	fs0,128(s0)
204026c4:	02c8                	addi	a0,sp,324
204026c6:	2040                	fld	fs0,128(s0)
204026c8:	158c                	addi	a1,sp,736
204026ca:	2040                	fld	fs0,128(s0)
204026cc:	0018                	0x18
204026ce:	2040                	fld	fs0,128(s0)

204026d0 <XT_QSIGN>:
204026d0:	06cc                	addi	a1,sp,836
204026d2:	2040                	fld	fs0,128(s0)

204026d4 <PFA_QSIGN>:
204026d4:	00b0                	addi	a2,sp,72
204026d6:	2040                	fld	fs0,128(s0)
204026d8:	069c                	addi	a5,sp,832
204026da:	2040                	fld	fs0,128(s0)
204026dc:	13f4                	addi	a3,sp,492
204026de:	2040                	fld	fs0,128(s0)
204026e0:	002d                	c.nop	11
204026e2:	0000                	unimp
204026e4:	08a4                	addi	s1,sp,88
204026e6:	2040                	fld	fs0,128(s0)
204026e8:	0078                	addi	a4,sp,12
204026ea:	2040                	fld	fs0,128(s0)
204026ec:	0194                	addi	a3,sp,192
204026ee:	2040                	fld	fs0,128(s0)
204026f0:	13d8                	addi	a4,sp,484
204026f2:	2040                	fld	fs0,128(s0)
204026f4:	2704                	fld	fs1,8(a4)
204026f6:	2040                	fld	fs0,128(s0)
204026f8:	13f4                	addi	a3,sp,492
204026fa:	2040                	fld	fs0,128(s0)
204026fc:	0001                	nop
204026fe:	0000                	unimp
20402700:	2014                	fld	fa3,0(s0)
20402702:	2040                	fld	fs0,128(s0)

20402704 <PFA_NUMBERSIGN_DONE>:
20402704:	01b0                	addi	a2,sp,200
20402706:	2040                	fld	fs0,128(s0)
20402708:	0018                	0x18
2040270a:	2040                	fld	fs0,128(s0)

2040270c <VE_BASES>:
2040270c:	25a8                	fld	fa0,72(a1)
2040270e:	2040                	fld	fs0,128(s0)
20402710:	0000                	unimp
20402712:	0000                	unimp
20402714:	6205                	lui	tp,0x1
20402716:	7361                	lui	t1,0xffff8
20402718:	7365                	lui	t1,0xffff9
2040271a:	aaaa                	fsd	fa0,336(sp)

2040271c <XT_BASES>:
2040271c:	12ec                	addi	a1,sp,364
2040271e:	2040                	fld	fs0,128(s0)

20402720 <PFA_BASES>:
20402720:	000a                	c.slli	zero,0x2
20402722:	0000                	unimp
20402724:	0010                	0x10
20402726:	0000                	unimp
20402728:	0002                	c.slli64	zero
2040272a:	0000                	unimp
2040272c:	000a                	c.slli	zero,0x2
	...

20402730 <VE_SET_BASE>:
20402730:	2710                	fld	fa2,8(a4)
20402732:	2040                	fld	fs0,128(s0)
20402734:	0000                	unimp
20402736:	0000                	unimp
20402738:	7308                	flw	fa0,32(a4)
2040273a:	7465                	lui	s0,0xffff9
2040273c:	622d                	lui	tp,0xb
2040273e:	7361                	lui	t1,0xffff8
20402740:	aa65                	j	204028f8 <PFA_REC_NUM+0x20>
20402742:	aaaa                	fsd	fa0,336(sp)

20402744 <XT_SET_BASE>:
20402744:	06cc                	addi	a1,sp,836
20402746:	2040                	fld	fs0,128(s0)

20402748 <PFA_SET_BASE>:
20402748:	00b0                	addi	a2,sp,72
2040274a:	2040                	fld	fs0,128(s0)
2040274c:	069c                	addi	a5,sp,832
2040274e:	2040                	fld	fs0,128(s0)
20402750:	13f4                	addi	a3,sp,492
20402752:	2040                	fld	fs0,128(s0)
20402754:	00000023          	sb	zero,0(zero) # 0 <Flag_visible>
20402758:	0e3c                	addi	a5,sp,792
2040275a:	2040                	fld	fs0,128(s0)
2040275c:	0078                	addi	a4,sp,12
2040275e:	2040                	fld	fs0,128(s0)
20402760:	1524                	addi	s1,sp,680
20402762:	2040                	fld	fs0,128(s0)
20402764:	13f4                	addi	a3,sp,492
20402766:	2040                	fld	fs0,128(s0)
20402768:	0004                	0x4
2040276a:	0000                	unimp
2040276c:	2450                	fld	fa2,136(s0)
2040276e:	2040                	fld	fs0,128(s0)
20402770:	13d8                	addi	a4,sp,484
20402772:	2040                	fld	fs0,128(s0)
20402774:	27a4                	fld	fs1,72(a5)
20402776:	2040                	fld	fs0,128(s0)
20402778:	0f0c                	addi	a1,sp,912
2040277a:	2040                	fld	fs0,128(s0)
2040277c:	271c                	fld	fa5,8(a4)
2040277e:	2040                	fld	fs0,128(s0)
20402780:	0e1c                	addi	a5,sp,784
20402782:	2040                	fld	fs0,128(s0)
20402784:	02b0                	addi	a2,sp,328
20402786:	2040                	fld	fs0,128(s0)
20402788:	0e08                	addi	a0,sp,784
2040278a:	2040                	fld	fs0,128(s0)
2040278c:	02c8                	addi	a0,sp,324
2040278e:	2040                	fld	fs0,128(s0)
20402790:	13f4                	addi	a3,sp,492
20402792:	2040                	fld	fs0,128(s0)
20402794:	0001                	nop
20402796:	0000                	unimp
20402798:	2014                	fld	fa3,0(s0)
2040279a:	2040                	fld	fs0,128(s0)
2040279c:	13cc                	addi	a1,sp,484
2040279e:	2040                	fld	fs0,128(s0)
204027a0:	27a8                	fld	fa0,72(a5)
204027a2:	2040                	fld	fs0,128(s0)

204027a4 <SET_BASE1>:
204027a4:	0038                	addi	a4,sp,8
204027a6:	2040                	fld	fs0,128(s0)

204027a8 <SET_BASE2>:
204027a8:	0018                	0x18
204027aa:	2040                	fld	fs0,128(s0)

204027ac <VE_RECTYPE_NULL>:
204027ac:	2734                	fld	fa3,72(a4)
204027ae:	2040                	fld	fs0,128(s0)
204027b0:	0000                	unimp
204027b2:	0000                	unimp
204027b4:	720c                	flw	fa1,32(a2)
204027b6:	6365                	lui	t1,0x19
204027b8:	7974                	flw	fa3,116(a0)
204027ba:	6570                	flw	fa2,76(a0)
204027bc:	6e2d                	lui	t3,0xb
204027be:	6c75                	lui	s8,0x1d
204027c0:	aa6c                	fsd	fa1,208(a2)
204027c2:	aaaa                	fsd	fa0,336(sp)

204027c4 <XT_RECTYPE_NULL>:
204027c4:	12ec                	addi	a1,sp,364
204027c6:	2040                	fld	fs0,128(s0)

204027c8 <PFA_RECTYPE_NULL>:
204027c8:	27d4                	fld	fa3,136(a5)
204027ca:	2040                	fld	fs0,128(s0)
204027cc:	27d4                	fld	fa3,136(a5)
204027ce:	2040                	fld	fs0,128(s0)
204027d0:	27d4                	fld	fa3,136(a5)
204027d2:	2040                	fld	fs0,128(s0)

204027d4 <XT_FAIL>:
204027d4:	06cc                	addi	a1,sp,836
204027d6:	2040                	fld	fs0,128(s0)

204027d8 <PFA_FAIL>:
204027d8:	13f4                	addi	a3,sp,492
204027da:	2040                	fld	fs0,128(s0)
204027dc:	fffffff3          	csrrci	t6,0xfff,31
204027e0:	1dac                	addi	a1,sp,760
204027e2:	2040                	fld	fs0,128(s0)

204027e4 <VE_REC_FIND>:
204027e4:	27b0                	fld	fa2,72(a5)
204027e6:	2040                	fld	fs0,128(s0)
204027e8:	0000                	unimp
204027ea:	0000                	unimp
204027ec:	7208                	flw	fa0,32(a2)
204027ee:	6365                	lui	t1,0x19
204027f0:	662d                	lui	a2,0xb
204027f2:	6e69                	lui	t3,0x1a
204027f4:	aa64                	fsd	fs1,208(a2)
204027f6:	aaaa                	fsd	fa0,336(sp)

204027f8 <XT_REC_FIND>:
204027f8:	06cc                	addi	a1,sp,836
204027fa:	2040                	fld	fs0,128(s0)

204027fc <PFA_REC_FIND>:
204027fc:	2168                	fld	fa0,192(a0)
204027fe:	2040                	fld	fs0,128(s0)
20402800:	0078                	addi	a4,sp,12
20402802:	2040                	fld	fs0,128(s0)
20402804:	06f8                	addi	a4,sp,844
20402806:	2040                	fld	fs0,128(s0)
20402808:	13d8                	addi	a4,sp,484
2040280a:	2040                	fld	fs0,128(s0)
2040280c:	281c                	fld	fa5,16(s0)
2040280e:	2040                	fld	fs0,128(s0)
20402810:	0038                	addi	a4,sp,8
20402812:	2040                	fld	fs0,128(s0)
20402814:	27c4                	fld	fs1,136(a5)
20402816:	2040                	fld	fs0,128(s0)
20402818:	0018                	0x18
2040281a:	2040                	fld	fs0,128(s0)

2040281c <PFA_REC_WORD_FOUND>:
2040281c:	2838                	fld	fa4,80(s0)
2040281e:	2040                	fld	fs0,128(s0)
20402820:	0018                	0x18
20402822:	2040                	fld	fs0,128(s0)

20402824 <VE_RECTYPE_XT>:
20402824:	27e8                	fld	fa0,200(a5)
20402826:	2040                	fld	fs0,128(s0)
20402828:	0000                	unimp
2040282a:	0000                	unimp
2040282c:	720a                	flw	ft4,160(sp)
2040282e:	6365                	lui	t1,0x19
20402830:	7974                	flw	fa3,116(a0)
20402832:	6570                	flw	fa2,76(a0)
20402834:	782d                	lui	a6,0xfffeb
20402836:	aa74                	fsd	fa3,208(a2)

20402838 <XT_RECTYPE_XT>:
20402838:	12ec                	addi	a1,sp,364
2040283a:	2040                	fld	fs0,128(s0)

2040283c <PFA_RECTYPE_XT>:
2040283c:	2848                	fld	fa0,144(s0)
2040283e:	2040                	fld	fs0,128(s0)
20402840:	2858                	fld	fa4,144(s0)
20402842:	2040                	fld	fs0,128(s0)
20402844:	2048                	fld	fa0,128(s0)
20402846:	2040                	fld	fs0,128(s0)

20402848 <XT_R_WORD_INTERPRET>:
20402848:	06cc                	addi	a1,sp,836
2040284a:	2040                	fld	fs0,128(s0)

2040284c <PFA_R_WORD_INTERPRET>:
2040284c:	0038                	addi	a4,sp,8
2040284e:	2040                	fld	fs0,128(s0)
20402850:	1068                	addi	a0,sp,44
20402852:	2040                	fld	fs0,128(s0)
20402854:	0018                	0x18
20402856:	2040                	fld	fs0,128(s0)

20402858 <XT_R_WORD_COMPILE>:
20402858:	06cc                	addi	a1,sp,836
2040285a:	2040                	fld	fs0,128(s0)

2040285c <PFA_R_WORD_COMPILE>:
2040285c:	0734                	addi	a3,sp,904
2040285e:	2040                	fld	fs0,128(s0)
20402860:	13d8                	addi	a4,sp,484
20402862:	2040                	fld	fs0,128(s0)
20402864:	2870                	fld	fa2,208(s0)
20402866:	2040                	fld	fs0,128(s0)
20402868:	20bc                	fld	fa5,64(s1)
2040286a:	2040                	fld	fs0,128(s0)
2040286c:	0018                	0x18
2040286e:	2040                	fld	fs0,128(s0)

20402870 <PFA_R_WORD_COMPILE1>:
20402870:	1068                	addi	a0,sp,44
20402872:	2040                	fld	fs0,128(s0)
20402874:	0018                	0x18
20402876:	2040                	fld	fs0,128(s0)

20402878 <VE_RECTYPE_NUM>:
20402878:	2828                	fld	fa0,80(s0)
2040287a:	2040                	fld	fs0,128(s0)
2040287c:	0000                	unimp
2040287e:	0000                	unimp
20402880:	6365720b          	0x6365720b
20402884:	7974                	flw	fa3,116(a0)
20402886:	6570                	flw	fa2,76(a0)
20402888:	6e2d                	lui	t3,0xb
2040288a:	6d75                	lui	s10,0x1d

2040288c <XT_RECTYPE_NUM>:
2040288c:	12ec                	addi	a1,sp,364
2040288e:	2040                	fld	fs0,128(s0)

20402890 <PFA_RECTYPE_NUM>:
20402890:	1170                	addi	a2,sp,172
20402892:	2040                	fld	fs0,128(s0)
20402894:	206c                	fld	fa1,192(s0)
20402896:	2040                	fld	fs0,128(s0)
20402898:	206c                	fld	fa1,192(s0)
2040289a:	2040                	fld	fs0,128(s0)

2040289c <VE_RECTYPE_DNUM>:
2040289c:	287c                	fld	fa5,208(s0)
2040289e:	2040                	fld	fs0,128(s0)
204028a0:	0000                	unimp
204028a2:	0000                	unimp
204028a4:	720c                	flw	fa1,32(a2)
204028a6:	6365                	lui	t1,0x19
204028a8:	7974                	flw	fa3,116(a0)
204028aa:	6570                	flw	fa2,76(a0)
204028ac:	642d                	lui	s0,0xb
204028ae:	756e                	flw	fa0,248(sp)
204028b0:	aa6d                	j	20402a6a <PFA_RECOGNIZE_A1+0xe>
204028b2:	aaaa                	fsd	fa0,336(sp)

204028b4 <XT_RECTYPE_DNUM>:
204028b4:	12ec                	addi	a1,sp,364
204028b6:	2040                	fld	fs0,128(s0)

204028b8 <PFA_RECTYPE_DNUM>:
204028b8:	1170                	addi	a2,sp,172
204028ba:	2040                	fld	fs0,128(s0)
204028bc:	2048                	fld	fa0,128(s0)
204028be:	2040                	fld	fs0,128(s0)
204028c0:	2048                	fld	fa0,128(s0)
204028c2:	2040                	fld	fs0,128(s0)

204028c4 <VE_REC_NUM>:
204028c4:	28a0                	fld	fs0,80(s1)
204028c6:	2040                	fld	fs0,128(s0)
204028c8:	0000                	unimp
204028ca:	0000                	unimp
204028cc:	63657207          	0x63657207
204028d0:	6e2d                	lui	t3,0xb
204028d2:	6d75                	lui	s10,0x1d

204028d4 <XT_REC_NUM>:
204028d4:	06cc                	addi	a1,sp,836
204028d6:	2040                	fld	fs0,128(s0)

204028d8 <PFA_REC_NUM>:
204028d8:	25b4                	fld	fa3,72(a1)
204028da:	2040                	fld	fs0,128(s0)
204028dc:	13d8                	addi	a4,sp,484
204028de:	2040                	fld	fs0,128(s0)
204028e0:	2908                	fld	fa0,16(a0)
204028e2:	2040                	fld	fs0,128(s0)
204028e4:	13f4                	addi	a3,sp,492
204028e6:	2040                	fld	fs0,128(s0)
204028e8:	0001                	nop
204028ea:	0000                	unimp
204028ec:	08a4                	addi	s1,sp,88
204028ee:	2040                	fld	fs0,128(s0)
204028f0:	13d8                	addi	a4,sp,484
204028f2:	2040                	fld	fs0,128(s0)
204028f4:	2900                	fld	fs0,16(a0)
204028f6:	2040                	fld	fs0,128(s0)
204028f8:	288c                	fld	fa1,16(s1)
204028fa:	2040                	fld	fs0,128(s0)
204028fc:	0018                	0x18
204028fe:	2040                	fld	fs0,128(s0)

20402900 <PFA_REC_INTNUM2>:
20402900:	28b4                	fld	fa3,80(s1)
20402902:	2040                	fld	fs0,128(s0)
20402904:	0018                	0x18
20402906:	2040                	fld	fs0,128(s0)

20402908 <PFA_REC_NONUMBER>:
20402908:	27c4                	fld	fs1,136(a5)
2040290a:	2040                	fld	fs0,128(s0)
2040290c:	0018                	0x18
2040290e:	2040                	fld	fs0,128(s0)

20402910 <VE_REC_SPLIT>:
20402910:	28c8                	fld	fa0,144(s1)
20402912:	2040                	fld	fs0,128(s0)
20402914:	0000                	unimp
20402916:	0000                	unimp
20402918:	7209                	lui	tp,0xfffe2
2040291a:	6365                	lui	t1,0x19
2040291c:	732d                	lui	t1,0xfffeb
2040291e:	6c70                	flw	fa2,92(s0)
20402920:	7469                	lui	s0,0xffffa
20402922:	aaaa                	fsd	fa0,336(sp)

20402924 <XT_REC_SPLIT>:
20402924:	06cc                	addi	a1,sp,836
20402926:	2040                	fld	fs0,128(s0)

20402928 <PFA_REC_SPLIT>:
20402928:	2948                	fld	fa0,144(a0)
2040292a:	2040                	fld	fs0,128(s0)
2040292c:	0018                	0x18
2040292e:	2040                	fld	fs0,128(s0)

20402930 <VE_RECTYPE_SPLIT>:
20402930:	2914                	fld	fa3,16(a0)
20402932:	2040                	fld	fs0,128(s0)
20402934:	0000                	unimp
20402936:	0000                	unimp
20402938:	720d                	lui	tp,0xfffe3
2040293a:	6365                	lui	t1,0x19
2040293c:	7974                	flw	fa3,116(a0)
2040293e:	6570                	flw	fa2,76(a0)
20402940:	732d                	lui	t1,0xfffeb
20402942:	6c70                	flw	fa2,92(s0)
20402944:	7469                	lui	s0,0xffffa
20402946:	aaaa                	fsd	fa0,336(sp)

20402948 <XT_RECTYPE_SPLIT>:
20402948:	12ec                	addi	a1,sp,364
2040294a:	2040                	fld	fs0,128(s0)

2040294c <PFA_RECTYPE_SPLIT>:
2040294c:	2968                	fld	fa0,208(a0)
2040294e:	2040                	fld	fs0,128(s0)
20402950:	2968                	fld	fa0,208(a0)
20402952:	2040                	fld	fs0,128(s0)
20402954:	2968                	fld	fa0,208(a0)
20402956:	2040                	fld	fs0,128(s0)

20402958 <VE_SPLIT>:
20402958:	2934                	fld	fa3,80(a0)
2040295a:	2040                	fld	fs0,128(s0)
2040295c:	0000                	unimp
2040295e:	0000                	unimp
20402960:	7305                	lui	t1,0xfffe1
20402962:	6c70                	flw	fa2,92(s0)
20402964:	7469                	lui	s0,0xffffa
20402966:	aaaa                	fsd	fa0,336(sp)

20402968 <XT_SPLIT>:
20402968:	06cc                	addi	a1,sp,836
2040296a:	2040                	fld	fs0,128(s0)

2040296c <PFA_SPLIT>:
2040296c:	19f8                	addi	a4,sp,252
2040296e:	2040                	fld	fs0,128(s0)
20402970:	1610                	addi	a2,sp,800
20402972:	2040                	fld	fs0,128(s0)
20402974:	2d18                	fld	fa4,24(a0)
20402976:	2040                	fld	fs0,128(s0)
20402978:	1610                	addi	a2,sp,800
2040297a:	2040                	fld	fs0,128(s0)
2040297c:	0018                	0x18
2040297e:	2040                	fld	fs0,128(s0)

20402980 <VE_FORTHRECOGNIZER>:
20402980:	295c                	fld	fa5,144(a0)
20402982:	2040                	fld	fs0,128(s0)
20402984:	00a0                	addi	s0,sp,72
20402986:	0000                	unimp
20402988:	6610                	flw	fa2,8(a2)
2040298a:	6874726f          	jal	tp,2044a810 <FlashEnd+0x3a810>
2040298e:	722d                	lui	tp,0xfffeb
20402990:	6365                	lui	t1,0x19
20402992:	696e676f          	jal	a4,204e9028 <FlashEnd+0xd9028>
20402996:	657a                	flw	fa0,156(sp)
20402998:	aa72                	fsd	ft8,272(sp)
2040299a:	aaaa                	fsd	fa0,336(sp)

2040299c <XT_FORTHRECOGNIZER>:
2040299c:	1300                	addi	s0,sp,416
2040299e:	2040                	fld	fs0,128(s0)

204029a0 <PFA_FORTHRECOGNIZER>:
204029a0:	0244                	addi	s1,sp,260
204029a2:	8000                	0x8000
204029a4:	29cc                	fld	fa1,144(a1)
204029a6:	2040                	fld	fs0,128(s0)
204029a8:	02b0                	addi	a2,sp,328
204029aa:	2040                	fld	fs0,128(s0)
204029ac:	02c8                	addi	a0,sp,324
204029ae:	2040                	fld	fs0,128(s0)

204029b0 <VE_CFG_RECOGNIZER>:
204029b0:	2984                	fld	fs1,16(a1)
204029b2:	2040                	fld	fs0,128(s0)
204029b4:	0000                	unimp
204029b6:	0000                	unimp
204029b8:	630e                	flw	ft6,192(sp)
204029ba:	6766                	flw	fa4,88(sp)
204029bc:	722d                	lui	tp,0xfffeb
204029be:	6365                	lui	t1,0x19
204029c0:	696e676f          	jal	a4,204e9056 <FlashEnd+0xd9056>
204029c4:	657a                	flw	fa0,156(sp)
204029c6:	aa72                	fsd	ft8,272(sp)

204029c8 <XT_CFG_RECOGNIZER>:
204029c8:	12ec                	addi	a1,sp,364
204029ca:	2040                	fld	fs0,128(s0)

204029cc <PFA_CFG_RECOGNIZER>:
204029cc:	0002                	c.slli64	zero
204029ce:	0000                	unimp
204029d0:	27f8                	fld	fa4,200(a5)
204029d2:	2040                	fld	fs0,128(s0)
204029d4:	28d4                	fld	fa3,144(s1)
204029d6:	2040                	fld	fs0,128(s0)

204029d8 <VE_RECOGNIZE>:
204029d8:	29b4                	fld	fa3,80(a1)
204029da:	2040                	fld	fs0,128(s0)
204029dc:	0000                	unimp
204029de:	0000                	unimp
204029e0:	7209                	lui	tp,0xfffe2
204029e2:	6365                	lui	t1,0x19
204029e4:	696e676f          	jal	a4,204e907a <FlashEnd+0xd907a>
204029e8:	657a                	flw	fa0,156(sp)
204029ea:	aaaa                	fsd	fa0,336(sp)

204029ec <XT_RECOGNIZE>:
204029ec:	06cc                	addi	a1,sp,836
204029ee:	2040                	fld	fs0,128(s0)

204029f0 <PFA_RECOGNIZE>:
204029f0:	13f4                	addi	a3,sp,492
204029f2:	2040                	fld	fs0,128(s0)
204029f4:	2a18                	fld	fa4,16(a2)
204029f6:	2040                	fld	fs0,128(s0)
204029f8:	0058                	addi	a4,sp,4
204029fa:	2040                	fld	fs0,128(s0)
204029fc:	2ae0                	fld	fs0,208(a3)
204029fe:	2040                	fld	fs0,128(s0)
20402a00:	06f8                	addi	a4,sp,844
20402a02:	2040                	fld	fs0,128(s0)
20402a04:	13d8                	addi	a4,sp,484
20402a06:	2040                	fld	fs0,128(s0)
20402a08:	2a14                	fld	fa3,16(a2)
20402a0a:	2040                	fld	fs0,128(s0)
20402a0c:	09c4                	addi	s1,sp,212
20402a0e:	2040                	fld	fs0,128(s0)
20402a10:	27c4                	fld	fs1,136(a5)
20402a12:	2040                	fld	fs0,128(s0)

20402a14 <PFA_RECOGNIZE1>:
20402a14:	0018                	0x18
20402a16:	2040                	fld	fs0,128(s0)

20402a18 <XT_RECOGNIZE_A>:
20402a18:	06cc                	addi	a1,sp,836
20402a1a:	2040                	fld	fs0,128(s0)

20402a1c <PFA_RECOGNIZE_A>:
20402a1c:	00d0                	addi	a2,sp,68
20402a1e:	2040                	fld	fs0,128(s0)
20402a20:	00d0                	addi	a2,sp,68
20402a22:	2040                	fld	fs0,128(s0)
20402a24:	0c04                	addi	s1,sp,528
20402a26:	2040                	fld	fs0,128(s0)
20402a28:	0a3c                	addi	a5,sp,280
20402a2a:	2040                	fld	fs0,128(s0)
20402a2c:	00d0                	addi	a2,sp,68
20402a2e:	2040                	fld	fs0,128(s0)
20402a30:	1068                	addi	a0,sp,44
20402a32:	2040                	fld	fs0,128(s0)
20402a34:	0a74                	addi	a3,sp,284
20402a36:	2040                	fld	fs0,128(s0)
20402a38:	00d0                	addi	a2,sp,68
20402a3a:	2040                	fld	fs0,128(s0)
20402a3c:	0078                	addi	a4,sp,12
20402a3e:	2040                	fld	fs0,128(s0)
20402a40:	27c4                	fld	fs1,136(a5)
20402a42:	2040                	fld	fs0,128(s0)
20402a44:	08a4                	addi	s1,sp,88
20402a46:	2040                	fld	fs0,128(s0)
20402a48:	13d8                	addi	a4,sp,484
20402a4a:	2040                	fld	fs0,128(s0)
20402a4c:	2a5c                	fld	fa5,144(a2)
20402a4e:	2040                	fld	fs0,128(s0)
20402a50:	0038                	addi	a4,sp,8
20402a52:	2040                	fld	fs0,128(s0)
20402a54:	1524                	addi	s1,sp,680
20402a56:	2040                	fld	fs0,128(s0)
20402a58:	0018                	0x18
20402a5a:	2040                	fld	fs0,128(s0)

20402a5c <PFA_RECOGNIZE_A1>:
20402a5c:	0094                	addi	a3,sp,64
20402a5e:	2040                	fld	fs0,128(s0)
20402a60:	0094                	addi	a3,sp,64
20402a62:	2040                	fld	fs0,128(s0)
20402a64:	158c                	addi	a1,sp,736
20402a66:	2040                	fld	fs0,128(s0)
20402a68:	0018                	0x18
20402a6a:	2040                	fld	fs0,128(s0)

20402a6c <VE_INTERPRET>:
20402a6c:	29dc                	fld	fa5,144(a1)
20402a6e:	2040                	fld	fs0,128(s0)
20402a70:	0000                	unimp
20402a72:	0000                	unimp
20402a74:	6909                	lui	s2,0x2
20402a76:	746e                	flw	fs0,248(sp)
20402a78:	7265                	lui	tp,0xffff9
20402a7a:	7270                	flw	fa2,100(a2)
20402a7c:	7465                	lui	s0,0xffff9
20402a7e:	aaaa                	fsd	fa0,336(sp)

20402a80 <XT_INTERPRET>:
20402a80:	06cc                	addi	a1,sp,836
20402a82:	2040                	fld	fs0,128(s0)

20402a84 <PFA_INTERPRET>:
20402a84:	1f5c                	addi	a5,sp,948
20402a86:	2040                	fld	fs0,128(s0)
20402a88:	0078                	addi	a4,sp,12
20402a8a:	2040                	fld	fs0,128(s0)
20402a8c:	13d8                	addi	a4,sp,484
20402a8e:	2040                	fld	fs0,128(s0)
20402a90:	2ac4                	fld	fs1,144(a3)
20402a92:	2040                	fld	fs0,128(s0)
20402a94:	299c                	fld	fa5,16(a1)
20402a96:	2040                	fld	fs0,128(s0)
20402a98:	29ec                	fld	fa1,208(a1)
20402a9a:	2040                	fld	fs0,128(s0)
20402a9c:	0f28                	addi	a0,sp,920
20402a9e:	2040                	fld	fs0,128(s0)
20402aa0:	02b0                	addi	a2,sp,328
20402aa2:	2040                	fld	fs0,128(s0)
20402aa4:	13d8                	addi	a4,sp,484
20402aa6:	2040                	fld	fs0,128(s0)
20402aa8:	2ab0                	fld	fa2,80(a3)
20402aaa:	2040                	fld	fs0,128(s0)
20402aac:	0ef0                	addi	a2,sp,860
20402aae:	2040                	fld	fs0,128(s0)

20402ab0 <PFA_INTERPRET1>:
20402ab0:	02b0                	addi	a2,sp,328
20402ab2:	2040                	fld	fs0,128(s0)
20402ab4:	1068                	addi	a0,sp,44
20402ab6:	2040                	fld	fs0,128(s0)
20402ab8:	1e4c                	addi	a1,sp,820
20402aba:	2040                	fld	fs0,128(s0)
20402abc:	13cc                	addi	a1,sp,484
20402abe:	2040                	fld	fs0,128(s0)
20402ac0:	2a84                	fld	fs1,16(a3)
20402ac2:	2040                	fld	fs0,128(s0)

20402ac4 <PFA_INTERPRET2>:
20402ac4:	09c4                	addi	s1,sp,212
20402ac6:	2040                	fld	fs0,128(s0)
20402ac8:	0018                	0x18
20402aca:	2040                	fld	fs0,128(s0)

20402acc <VE_MAPSTACK>:
20402acc:	2a70                	fld	fa2,208(a2)
20402ace:	2040                	fld	fs0,128(s0)
20402ad0:	0000                	unimp
20402ad2:	0000                	unimp
20402ad4:	6d09                	lui	s10,0x2
20402ad6:	7061                	c.lui	zero,0xffff8
20402ad8:	732d                	lui	t1,0xfffeb
20402ada:	6174                	flw	fa3,68(a0)
20402adc:	aaaa6b63          	bltu	s4,a0,20401d92 <PFA_CATCH+0x36>

20402ae0 <XT_MAPSTACK>:
20402ae0:	06cc                	addi	a1,sp,836
20402ae2:	2040                	fld	fs0,128(s0)

20402ae4 <PFA_MAPSTACK>:
20402ae4:	0078                	addi	a4,sp,12
20402ae6:	2040                	fld	fs0,128(s0)
20402ae8:	0ef0                	addi	a2,sp,860
20402aea:	2040                	fld	fs0,128(s0)
20402aec:	0058                	addi	a4,sp,4
20402aee:	2040                	fld	fs0,128(s0)
20402af0:	02b0                	addi	a2,sp,328
20402af2:	2040                	fld	fs0,128(s0)
20402af4:	0f0c                	addi	a1,sp,912
20402af6:	2040                	fld	fs0,128(s0)
20402af8:	1188                	addi	a0,sp,224
20402afa:	2040                	fld	fs0,128(s0)
20402afc:	2b8c                	fld	fa1,16(a5)
20402afe:	2040                	fld	fs0,128(s0)
20402b00:	13d8                	addi	a4,sp,484
20402b02:	2040                	fld	fs0,128(s0)
20402b04:	2b54                	fld	fa3,144(a4)
20402b06:	2040                	fld	fs0,128(s0)
20402b08:	119c                	addi	a5,sp,224
20402b0a:	2040                	fld	fs0,128(s0)

20402b0c <PFA_MAPSTACK1>:
20402b0c:	1250                	addi	a2,sp,292
20402b0e:	2040                	fld	fs0,128(s0)
20402b10:	02b0                	addi	a2,sp,328
20402b12:	2040                	fld	fs0,128(s0)
20402b14:	0058                	addi	a4,sp,4
20402b16:	2040                	fld	fs0,128(s0)
20402b18:	0194                	addi	a3,sp,192
20402b1a:	2040                	fld	fs0,128(s0)
20402b1c:	01d4                	addi	a3,sp,196
20402b1e:	2040                	fld	fs0,128(s0)
20402b20:	1068                	addi	a0,sp,44
20402b22:	2040                	fld	fs0,128(s0)
20402b24:	00fc                	addi	a5,sp,76
20402b26:	2040                	fld	fs0,128(s0)
20402b28:	13d8                	addi	a4,sp,484
20402b2a:	2040                	fld	fs0,128(s0)
20402b2c:	2b40                	fld	fs0,144(a4)
20402b2e:	2040                	fld	fs0,128(s0)
20402b30:	01b0                	addi	a2,sp,200
20402b32:	2040                	fld	fs0,128(s0)
20402b34:	0038                	addi	a4,sp,8
20402b36:	2040                	fld	fs0,128(s0)
20402b38:	1230                	addi	a2,sp,296
20402b3a:	2040                	fld	fs0,128(s0)
20402b3c:	0018                	0x18
20402b3e:	2040                	fld	fs0,128(s0)

20402b40 <PFA_MAPSTACK2>:
20402b40:	01b0                	addi	a2,sp,200
20402b42:	2040                	fld	fs0,128(s0)
20402b44:	13f4                	addi	a3,sp,492
20402b46:	2040                	fld	fs0,128(s0)
20402b48:	0004                	0x4
20402b4a:	0000                	unimp
20402b4c:	11e0                	addi	s0,sp,236
20402b4e:	2040                	fld	fs0,128(s0)
20402b50:	2b0c                	fld	fa1,16(a4)
20402b52:	2040                	fld	fs0,128(s0)

20402b54 <PFA_MAPSTACK3>:
20402b54:	0038                	addi	a4,sp,8
20402b56:	2040                	fld	fs0,128(s0)
20402b58:	1524                	addi	s1,sp,680
20402b5a:	2040                	fld	fs0,128(s0)
20402b5c:	0018                	0x18
20402b5e:	2040                	fld	fs0,128(s0)

20402b60 <VE_QDO>:
20402b60:	2ad0                	fld	fa2,144(a3)
20402b62:	2040                	fld	fs0,128(s0)
20402b64:	0010                	0x10
20402b66:	0000                	unimp
20402b68:	6f643f03          	0x6f643f03

20402b6c <XT_QDO>:
20402b6c:	06cc                	addi	a1,sp,836
20402b6e:	2040                	fld	fs0,128(s0)

20402b70 <PFA_QDO>:
20402b70:	2090                	fld	fa2,0(s1)
20402b72:	2040                	fld	fs0,128(s0)
20402b74:	2b8c                	fld	fa1,16(a5)
20402b76:	2040                	fld	fs0,128(s0)
20402b78:	2f54                	fld	fa3,152(a4)
20402b7a:	2040                	fld	fs0,128(s0)
20402b7c:	33bc                	fld	fa5,96(a5)
20402b7e:	2040                	fld	fs0,128(s0)
20402b80:	0058                	addi	a4,sp,4
20402b82:	2040                	fld	fs0,128(s0)
20402b84:	3048                	fld	fa0,160(s0)
20402b86:	2040                	fld	fs0,128(s0)
20402b88:	0018                	0x18
20402b8a:	2040                	fld	fs0,128(s0)

20402b8c <XT_QDOCHECK>:
20402b8c:	06cc                	addi	a1,sp,836
20402b8e:	2040                	fld	fs0,128(s0)

20402b90 <PFA_QDOCHECK>:
20402b90:	0c04                	addi	s1,sp,528
20402b92:	2040                	fld	fs0,128(s0)
20402b94:	08a4                	addi	s1,sp,88
20402b96:	2040                	fld	fs0,128(s0)
20402b98:	0078                	addi	a4,sp,12
20402b9a:	2040                	fld	fs0,128(s0)
20402b9c:	0194                	addi	a3,sp,192
20402b9e:	2040                	fld	fs0,128(s0)
20402ba0:	13d8                	addi	a4,sp,484
20402ba2:	2040                	fld	fs0,128(s0)
20402ba4:	2bac                	fld	fa1,80(a5)
20402ba6:	2040                	fld	fs0,128(s0)
20402ba8:	09c4                	addi	s1,sp,212
20402baa:	2040                	fld	fs0,128(s0)

20402bac <PFA_QDOCHECK1>:
20402bac:	01b0                	addi	a2,sp,200
20402bae:	2040                	fld	fs0,128(s0)
20402bb0:	051c                	addi	a5,sp,640
20402bb2:	2040                	fld	fs0,128(s0)
20402bb4:	0018                	0x18
20402bb6:	2040                	fld	fs0,128(s0)

20402bb8 <VE_INIT_RAM>:
20402bb8:	2b64                	fld	fs1,208(a4)
20402bba:	2040                	fld	fs0,128(s0)
20402bbc:	0000                	unimp
20402bbe:	0000                	unimp
20402bc0:	6908                	flw	fa0,16(a0)
20402bc2:	696e                	flw	fs2,216(sp)
20402bc4:	2d74                	fld	fa3,216(a0)
20402bc6:	6172                	flw	ft2,28(sp)
20402bc8:	aa6d                	j	20402d82 <PFA_SQUOTE+0xe>
20402bca:	aaaa                	fsd	fa0,336(sp)

20402bcc <XT_INIT_RAM>:
20402bcc:	06cc                	addi	a1,sp,836
20402bce:	2040                	fld	fs0,128(s0)

20402bd0 <PFA_INIT_RAM>:
20402bd0:	13f4                	addi	a3,sp,492
20402bd2:	2040                	fld	fs0,128(s0)
20402bd4:	0160                	addi	s0,sp,140
20402bd6:	8000                	0x8000
20402bd8:	138c                	addi	a1,sp,480
20402bda:	2040                	fld	fs0,128(s0)
20402bdc:	13f4                	addi	a3,sp,492
20402bde:	2040                	fld	fs0,128(s0)
20402be0:	4248                	lw	a0,4(a2)
20402be2:	2040                	fld	fs0,128(s0)
20402be4:	3710                	fld	fa2,40(a4)
20402be6:	2040                	fld	fs0,128(s0)
20402be8:	0078                	addi	a4,sp,12
20402bea:	2040                	fld	fs0,128(s0)
20402bec:	0ef0                	addi	a2,sp,860
20402bee:	2040                	fld	fs0,128(s0)
20402bf0:	02b0                	addi	a2,sp,328
20402bf2:	2040                	fld	fs0,128(s0)
20402bf4:	0058                	addi	a4,sp,4
20402bf6:	2040                	fld	fs0,128(s0)
20402bf8:	02b0                	addi	a2,sp,328
20402bfa:	2040                	fld	fs0,128(s0)
20402bfc:	02c8                	addi	a0,sp,324
20402bfe:	2040                	fld	fs0,128(s0)
20402c00:	13f4                	addi	a3,sp,492
20402c02:	2040                	fld	fs0,128(s0)
20402c04:	2c14                	fld	fa3,24(s0)
20402c06:	2040                	fld	fs0,128(s0)
20402c08:	4248                	lw	a0,4(a2)
20402c0a:	2040                	fld	fs0,128(s0)
20402c0c:	2238                	fld	fa4,64(a2)
20402c0e:	2040                	fld	fs0,128(s0)
20402c10:	0018                	0x18
20402c12:	2040                	fld	fs0,128(s0)

20402c14 <XT_DOINITS>:
20402c14:	06cc                	addi	a1,sp,836
20402c16:	2040                	fld	fs0,128(s0)

20402c18 <PFA_DOINITS>:
20402c18:	0078                	addi	a4,sp,12
20402c1a:	2040                	fld	fs0,128(s0)
20402c1c:	23e4                	fld	fs1,192(a5)
20402c1e:	2040                	fld	fs0,128(s0)
20402c20:	02b0                	addi	a2,sp,328
20402c22:	2040                	fld	fs0,128(s0)
20402c24:	13f4                	addi	a3,sp,492
20402c26:	2040                	fld	fs0,128(s0)
20402c28:	0080                	addi	s0,sp,64
20402c2a:	0000                	unimp
20402c2c:	0078                	addi	a4,sp,12
20402c2e:	2040                	fld	fs0,128(s0)
20402c30:	00d0                	addi	a2,sp,68
20402c32:	2040                	fld	fs0,128(s0)
20402c34:	04a0                	addi	s0,sp,584
20402c36:	2040                	fld	fs0,128(s0)
20402c38:	08a4                	addi	s1,sp,88
20402c3a:	2040                	fld	fs0,128(s0)
20402c3c:	13d8                	addi	a4,sp,484
20402c3e:	2040                	fld	fs0,128(s0)
20402c40:	2c6c                	fld	fa1,216(s0)
20402c42:	2040                	fld	fs0,128(s0)
20402c44:	2204                	fld	fs1,0(a2)
20402c46:	2040                	fld	fs0,128(s0)
20402c48:	3710                	fld	fa2,40(a4)
20402c4a:	2040                	fld	fs0,128(s0)
20402c4c:	0078                	addi	a4,sp,12
20402c4e:	2040                	fld	fs0,128(s0)
20402c50:	0ef0                	addi	a2,sp,860
20402c52:	2040                	fld	fs0,128(s0)
20402c54:	02b0                	addi	a2,sp,328
20402c56:	2040                	fld	fs0,128(s0)
20402c58:	0058                	addi	a4,sp,4
20402c5a:	2040                	fld	fs0,128(s0)
20402c5c:	02b0                	addi	a2,sp,328
20402c5e:	2040                	fld	fs0,128(s0)
20402c60:	02c8                	addi	a0,sp,324
20402c62:	2040                	fld	fs0,128(s0)
20402c64:	158c                	addi	a1,sp,736
20402c66:	2040                	fld	fs0,128(s0)
20402c68:	0018                	0x18
20402c6a:	2040                	fld	fs0,128(s0)

20402c6c <PFA_DOINIT_1>:
20402c6c:	0038                	addi	a4,sp,8
20402c6e:	2040                	fld	fs0,128(s0)
20402c70:	158c                	addi	a1,sp,736
20402c72:	2040                	fld	fs0,128(s0)
20402c74:	0018                	0x18
20402c76:	2040                	fld	fs0,128(s0)

20402c78 <VE_DOT_VER>:
20402c78:	2bbc                	fld	fa5,80(a5)
20402c7a:	2040                	fld	fs0,128(s0)
20402c7c:	0000                	unimp
20402c7e:	0000                	unimp
20402c80:	72657603          	0x72657603

20402c84 <XT_DOT_VER>:
20402c84:	06cc                	addi	a1,sp,836
20402c86:	2040                	fld	fs0,128(s0)

20402c88 <PFA_DOT_VER>:
20402c88:	4168                	lw	a0,68(a0)
20402c8a:	2040                	fld	fs0,128(s0)
20402c8c:	2d18                	fld	fa4,24(a0)
20402c8e:	2040                	fld	fs0,128(s0)
20402c90:	1654                	addi	a3,sp,804
20402c92:	2040                	fld	fs0,128(s0)
20402c94:	0e08                	addi	a0,sp,784
20402c96:	2040                	fld	fs0,128(s0)
20402c98:	02b0                	addi	a2,sp,328
20402c9a:	2040                	fld	fs0,128(s0)
20402c9c:	418c                	lw	a1,0(a1)
20402c9e:	2040                	fld	fs0,128(s0)
20402ca0:	16f8                	addi	a4,sp,876
20402ca2:	2040                	fld	fs0,128(s0)
20402ca4:	0c28                	addi	a0,sp,536
20402ca6:	2040                	fld	fs0,128(s0)
20402ca8:	17fc                	addi	a5,sp,1004
20402caa:	2040                	fld	fs0,128(s0)
20402cac:	181c                	addi	a5,sp,48
20402cae:	2040                	fld	fs0,128(s0)
20402cb0:	13f4                	addi	a3,sp,492
20402cb2:	2040                	fld	fs0,128(s0)
20402cb4:	002e                	c.slli	zero,0xb
20402cb6:	0000                	unimp
20402cb8:	17c0                	addi	s0,sp,996
20402cba:	2040                	fld	fs0,128(s0)
20402cbc:	1874                	addi	a3,sp,60
20402cbe:	2040                	fld	fs0,128(s0)
20402cc0:	18a0                	addi	s0,sp,120
20402cc2:	2040                	fld	fs0,128(s0)
20402cc4:	2d18                	fld	fa4,24(a0)
20402cc6:	2040                	fld	fs0,128(s0)
20402cc8:	0e08                	addi	a0,sp,784
20402cca:	2040                	fld	fs0,128(s0)
20402ccc:	02c8                	addi	a0,sp,324
20402cce:	2040                	fld	fs0,128(s0)
20402cd0:	1654                	addi	a3,sp,804
20402cd2:	2040                	fld	fs0,128(s0)
20402cd4:	41a8                	lw	a0,64(a1)
20402cd6:	2040                	fld	fs0,128(s0)
20402cd8:	2d18                	fld	fa4,24(a0)
20402cda:	2040                	fld	fs0,128(s0)
20402cdc:	0018                	0x18
20402cde:	2040                	fld	fs0,128(s0)

20402ce0 <VE_COUNT>:
20402ce0:	2c7c                	fld	fa5,216(s0)
20402ce2:	2040                	fld	fs0,128(s0)
20402ce4:	0000                	unimp
20402ce6:	0000                	unimp
20402ce8:	6305                	lui	t1,0x1
20402cea:	746e756f          	jal	a0,204ea430 <FlashEnd+0xda430>
20402cee:	aaaa                	fsd	fa0,336(sp)

20402cf0 <XT_COUNT>:
20402cf0:	06cc                	addi	a1,sp,836
20402cf2:	2040                	fld	fs0,128(s0)

20402cf4 <PFA_COUNT>:
20402cf4:	0078                	addi	a4,sp,12
20402cf6:	2040                	fld	fs0,128(s0)
20402cf8:	0e5c                	addi	a5,sp,788
20402cfa:	2040                	fld	fs0,128(s0)
20402cfc:	0058                	addi	a4,sp,4
20402cfe:	2040                	fld	fs0,128(s0)
20402d00:	069c                	addi	a5,sp,832
20402d02:	2040                	fld	fs0,128(s0)
20402d04:	0018                	0x18
20402d06:	2040                	fld	fs0,128(s0)

20402d08 <VE_TYPE>:
20402d08:	2ce4                	fld	fs1,216(s1)
20402d0a:	2040                	fld	fs0,128(s0)
20402d0c:	0000                	unimp
20402d0e:	0000                	unimp
20402d10:	7404                	flw	fs1,40(s0)
20402d12:	7079                	c.lui	zero,0xffffe
20402d14:	aa65                	j	20402ecc <VE_BEGIN+0x4>
20402d16:	aaaa                	fsd	fa0,336(sp)

20402d18 <XT_TYPE>:
20402d18:	06cc                	addi	a1,sp,836
20402d1a:	2040                	fld	fs0,128(s0)

20402d1c <PFA_TYPE>:
20402d1c:	1188                	addi	a0,sp,224
20402d1e:	2040                	fld	fs0,128(s0)
20402d20:	2b8c                	fld	fa1,16(a5)
20402d22:	2040                	fld	fs0,128(s0)
20402d24:	13d8                	addi	a4,sp,484
20402d26:	2040                	fld	fs0,128(s0)
20402d28:	2d44                	fld	fs1,152(a0)
20402d2a:	2040                	fld	fs0,128(s0)
20402d2c:	119c                	addi	a5,sp,224
20402d2e:	2040                	fld	fs0,128(s0)

20402d30 <PFA_TYPE_LOOP>:
20402d30:	1250                	addi	a2,sp,292
20402d32:	2040                	fld	fs0,128(s0)
20402d34:	069c                	addi	a5,sp,832
20402d36:	2040                	fld	fs0,128(s0)
20402d38:	10ec                	addi	a1,sp,108
20402d3a:	2040                	fld	fs0,128(s0)
20402d3c:	11d4                	addi	a3,sp,228
20402d3e:	2040                	fld	fs0,128(s0)
20402d40:	2d30                	fld	fa2,88(a0)
20402d42:	2040                	fld	fs0,128(s0)

20402d44 <PFA_TYPE_LEAVE>:
20402d44:	0018                	0x18
20402d46:	2040                	fld	fs0,128(s0)

20402d48 <VE_ITYPE>:
20402d48:	2d0c                	fld	fa1,24(a0)
20402d4a:	2040                	fld	fs0,128(s0)
20402d4c:	0000                	unimp
20402d4e:	0000                	unimp
20402d50:	6905                	lui	s2,0x1
20402d52:	7974                	flw	fa3,116(a0)
20402d54:	6570                	flw	fa2,76(a0)
20402d56:	aaaa                	fsd	fa0,336(sp)

20402d58 <XT_ITYPE>:
20402d58:	06cc                	addi	a1,sp,836
20402d5a:	2040                	fld	fs0,128(s0)

20402d5c <PFA_ITYPE>:
20402d5c:	2d18                	fld	fa4,24(a0)
20402d5e:	2040                	fld	fs0,128(s0)
20402d60:	0018                	0x18
20402d62:	2040                	fld	fs0,128(s0)

20402d64 <VE_SQUOTE>:
20402d64:	2d4c                	fld	fa1,152(a0)
20402d66:	2040                	fld	fs0,128(s0)
20402d68:	0010                	0x10
20402d6a:	0000                	unimp
20402d6c:	7302                	flw	ft6,32(sp)
20402d6e:	aa22                	fsd	fs0,272(sp)

20402d70 <XT_SQUOTE>:
20402d70:	06cc                	addi	a1,sp,836
20402d72:	2040                	fld	fs0,128(s0)

20402d74 <PFA_SQUOTE>:
20402d74:	13f4                	addi	a3,sp,492
20402d76:	2040                	fld	fs0,128(s0)
20402d78:	0022                	c.slli	zero,0x8
20402d7a:	0000                	unimp
20402d7c:	1fc4                	addi	s1,sp,1012
20402d7e:	2040                	fld	fs0,128(s0)
20402d80:	0f28                	addi	a0,sp,920
20402d82:	2040                	fld	fs0,128(s0)
20402d84:	02b0                	addi	a2,sp,328
20402d86:	2040                	fld	fs0,128(s0)
20402d88:	13d8                	addi	a4,sp,484
20402d8a:	2040                	fld	fs0,128(s0)
20402d8c:	2d94                	fld	fa3,24(a1)
20402d8e:	2040                	fld	fs0,128(s0)
20402d90:	2e28                	fld	fa0,88(a2)
20402d92:	2040                	fld	fs0,128(s0)

20402d94 <PFA_SQUOTE1>:
20402d94:	0018                	0x18
20402d96:	2040                	fld	fs0,128(s0)

20402d98 <VE_DOT_QUOTE>:
20402d98:	2d68                	fld	fa0,216(a0)
20402d9a:	2040                	fld	fs0,128(s0)
20402d9c:	0010                	0x10
20402d9e:	0000                	unimp
20402da0:	2e02                	fld	ft8,0(sp)
20402da2:	aa22                	fsd	fs0,272(sp)

20402da4 <XT_DOT_QUOTE>:
20402da4:	06cc                	addi	a1,sp,836
20402da6:	2040                	fld	fs0,128(s0)

20402da8 <PFA_DOT_QUOTE>:
20402da8:	2d70                	fld	fa2,216(a0)
20402daa:	2040                	fld	fs0,128(s0)
20402dac:	2090                	fld	fa2,0(s1)
20402dae:	2040                	fld	fs0,128(s0)
20402db0:	2d18                	fld	fa4,24(a0)
20402db2:	2040                	fld	fs0,128(s0)
20402db4:	0018                	0x18
20402db6:	2040                	fld	fs0,128(s0)

20402db8 <VE_SCOMMA>:
20402db8:	2d9c                	fld	fa5,24(a1)
20402dba:	2040                	fld	fs0,128(s0)
20402dbc:	0000                	unimp
20402dbe:	0000                	unimp
20402dc0:	7302                	flw	ft6,32(sp)
20402dc2:	aa2c                	fsd	fa1,80(a2)

20402dc4 <XT_SCOMMA>:
20402dc4:	06cc                	addi	a1,sp,836
20402dc6:	2040                	fld	fs0,128(s0)

20402dc8 <PFA_SCOMMA>:
20402dc8:	0078                	addi	a4,sp,12
20402dca:	2040                	fld	fs0,128(s0)
20402dcc:	20e4                	fld	fs1,192(s1)
20402dce:	2040                	fld	fs0,128(s0)
20402dd0:	1524                	addi	s1,sp,680
20402dd2:	2040                	fld	fs0,128(s0)
20402dd4:	2b8c                	fld	fa1,16(a5)
20402dd6:	2040                	fld	fs0,128(s0)
20402dd8:	13d8                	addi	a4,sp,484
20402dda:	2040                	fld	fs0,128(s0)
20402ddc:	2dfc                	fld	fa5,216(a1)
20402dde:	2040                	fld	fs0,128(s0)
20402de0:	119c                	addi	a5,sp,224
20402de2:	2040                	fld	fs0,128(s0)

20402de4 <PFA_SCOMMA1>:
20402de4:	0078                	addi	a4,sp,12
20402de6:	2040                	fld	fs0,128(s0)
20402de8:	069c                	addi	a5,sp,832
20402dea:	2040                	fld	fs0,128(s0)
20402dec:	20e4                	fld	fs1,192(s1)
20402dee:	2040                	fld	fs0,128(s0)
20402df0:	0e5c                	addi	a5,sp,788
20402df2:	2040                	fld	fs0,128(s0)
20402df4:	11d4                	addi	a3,sp,228
20402df6:	2040                	fld	fs0,128(s0)
20402df8:	2de4                	fld	fs1,216(a1)
20402dfa:	2040                	fld	fs0,128(s0)

20402dfc <PFA_SCOMMA2>:
20402dfc:	0038                	addi	a4,sp,8
20402dfe:	2040                	fld	fs0,128(s0)
20402e00:	3778                	fld	fa4,232(a4)
20402e02:	2040                	fld	fs0,128(s0)
20402e04:	129c                	addi	a5,sp,352
20402e06:	2040                	fld	fs0,128(s0)
20402e08:	3660                	fld	fs0,232(a2)
20402e0a:	2040                	fld	fs0,128(s0)
20402e0c:	3778                	fld	fa4,232(a4)
20402e0e:	2040                	fld	fs0,128(s0)
20402e10:	0018                	0x18
20402e12:	2040                	fld	fs0,128(s0)

20402e14 <VE_SLITERAL>:
20402e14:	2dbc                	fld	fa5,88(a1)
20402e16:	2040                	fld	fs0,128(s0)
20402e18:	0010                	0x10
20402e1a:	0000                	unimp
20402e1c:	7308                	flw	fa0,32(a4)
20402e1e:	696c                	flw	fa1,84(a0)
20402e20:	6574                	flw	fa3,76(a0)
20402e22:	6172                	flw	ft2,28(sp)
20402e24:	aa6c                	fsd	fa1,208(a2)
20402e26:	aaaa                	fsd	fa0,336(sp)

20402e28 <XT_SLITERAL>:
20402e28:	06cc                	addi	a1,sp,836
20402e2a:	2040                	fld	fs0,128(s0)

20402e2c <PFA_SLITERAL>:
20402e2c:	2090                	fld	fa2,0(s1)
20402e2e:	2040                	fld	fs0,128(s0)
20402e30:	12b4                	addi	a3,sp,360
20402e32:	2040                	fld	fs0,128(s0)
20402e34:	2dc4                	fld	fs1,152(a1)
20402e36:	2040                	fld	fs0,128(s0)
20402e38:	0018                	0x18
20402e3a:	2040                	fld	fs0,128(s0)

20402e3c <VE_WORDS>:
20402e3c:	2e18                	fld	fa4,24(a2)
20402e3e:	2040                	fld	fs0,128(s0)
20402e40:	0000                	unimp
20402e42:	0000                	unimp
20402e44:	7705                	lui	a4,0xfffe1
20402e46:	7364726f          	jal	tp,2044a57c <FlashEnd+0x3a57c>
20402e4a:	aaaa                	fsd	fa0,336(sp)

20402e4c <XT_WORDS>:
20402e4c:	06cc                	addi	a1,sp,836
20402e4e:	2040                	fld	fs0,128(s0)

20402e50 <PFA_WORDS>:
20402e50:	4248                	lw	a0,4(a2)
20402e52:	2040                	fld	fs0,128(s0)
20402e54:	2298                	fld	fa4,0(a3)
20402e56:	2040                	fld	fs0,128(s0)
20402e58:	0018                	0x18
20402e5a:	2040                	fld	fs0,128(s0)

20402e5c <XT_LMARK>:
20402e5c:	06cc                	addi	a1,sp,836
20402e5e:	2040                	fld	fs0,128(s0)

20402e60 <PFA_LMARK>:
20402e60:	3778                	fld	fa4,232(a4)
20402e62:	2040                	fld	fs0,128(s0)
20402e64:	0018                	0x18
20402e66:	2040                	fld	fs0,128(s0)

20402e68 <XT_LRESOLVE>:
20402e68:	06cc                	addi	a1,sp,836
20402e6a:	2040                	fld	fs0,128(s0)

20402e6c <PFA_LRESOLVE>:
20402e6c:	1e4c                	addi	a1,sp,820
20402e6e:	2040                	fld	fs0,128(s0)
20402e70:	20bc                	fld	fa5,64(s1)
20402e72:	2040                	fld	fs0,128(s0)
20402e74:	0018                	0x18
20402e76:	2040                	fld	fs0,128(s0)

20402e78 <XT_GMARK>:
20402e78:	06cc                	addi	a1,sp,836
20402e7a:	2040                	fld	fs0,128(s0)

20402e7c <PFA_GMARK>:
20402e7c:	3778                	fld	fa4,232(a4)
20402e7e:	2040                	fld	fs0,128(s0)
20402e80:	2090                	fld	fa2,0(s1)
20402e82:	2040                	fld	fs0,128(s0)
20402e84:	ffff                	0xffff
20402e86:	ffff                	0xffff
20402e88:	0018                	0x18
20402e8a:	2040                	fld	fs0,128(s0)

20402e8c <XT_GRESOLVE>:
20402e8c:	06cc                	addi	a1,sp,836
20402e8e:	2040                	fld	fs0,128(s0)

20402e90 <PFA_GRESOLVE>:
20402e90:	1e4c                	addi	a1,sp,820
20402e92:	2040                	fld	fs0,128(s0)
20402e94:	3778                	fld	fa4,232(a4)
20402e96:	2040                	fld	fs0,128(s0)
20402e98:	0058                	addi	a4,sp,4
20402e9a:	2040                	fld	fs0,128(s0)
20402e9c:	02c8                	addi	a0,sp,324
20402e9e:	2040                	fld	fs0,128(s0)
20402ea0:	0018                	0x18
20402ea2:	2040                	fld	fs0,128(s0)

20402ea4 <VE_AHEAD>:
20402ea4:	2e40                	fld	fs0,152(a2)
20402ea6:	2040                	fld	fs0,128(s0)
20402ea8:	0010                	0x10
20402eaa:	0000                	unimp
20402eac:	6105                	addi	sp,sp,32
20402eae:	6568                	flw	fa0,76(a0)
20402eb0:	6461                	lui	s0,0x18
20402eb2:	aaaa                	fsd	fa0,336(sp)

20402eb4 <XT_AHEAD>:
20402eb4:	06cc                	addi	a1,sp,836
20402eb6:	2040                	fld	fs0,128(s0)

20402eb8 <PFA_AHEAD>:
20402eb8:	2090                	fld	fa2,0(s1)
20402eba:	2040                	fld	fs0,128(s0)
20402ebc:	13cc                	addi	a1,sp,484
20402ebe:	2040                	fld	fs0,128(s0)
20402ec0:	2e78                	fld	fa4,216(a2)
20402ec2:	2040                	fld	fs0,128(s0)
20402ec4:	0018                	0x18
20402ec6:	2040                	fld	fs0,128(s0)

20402ec8 <VE_BEGIN>:
20402ec8:	2ea8                	fld	fa0,88(a3)
20402eca:	2040                	fld	fs0,128(s0)
20402ecc:	0010                	0x10
20402ece:	0000                	unimp
20402ed0:	6205                	lui	tp,0x1
20402ed2:	6765                	lui	a4,0x19
20402ed4:	6e69                	lui	t3,0x1a
20402ed6:	aaaa                	fsd	fa0,336(sp)

20402ed8 <XT_BEGIN>:
20402ed8:	06cc                	addi	a1,sp,836
20402eda:	2040                	fld	fs0,128(s0)

20402edc <PFA_BEGIN>:
20402edc:	2e5c                	fld	fa5,152(a2)
20402ede:	2040                	fld	fs0,128(s0)
20402ee0:	0018                	0x18
20402ee2:	2040                	fld	fs0,128(s0)

20402ee4 <VE_THEN>:
20402ee4:	2ecc                	fld	fa1,152(a3)
20402ee6:	2040                	fld	fs0,128(s0)
20402ee8:	0010                	0x10
20402eea:	0000                	unimp
20402eec:	7404                	flw	fs1,40(s0)
20402eee:	6568                	flw	fa0,76(a0)
20402ef0:	aa6e                	fsd	fs11,272(sp)
20402ef2:	aaaa                	fsd	fa0,336(sp)

20402ef4 <XT_THEN>:
20402ef4:	06cc                	addi	a1,sp,836
20402ef6:	2040                	fld	fs0,128(s0)

20402ef8 <PFA_THEN>:
20402ef8:	2e8c                	fld	fa1,24(a3)
20402efa:	2040                	fld	fs0,128(s0)
20402efc:	0018                	0x18
20402efe:	2040                	fld	fs0,128(s0)

20402f00 <VE_UNTIL>:
20402f00:	2ee8                	fld	fa0,216(a3)
20402f02:	2040                	fld	fs0,128(s0)
20402f04:	0010                	0x10
20402f06:	0000                	unimp
20402f08:	7505                	lui	a0,0xfffe1
20402f0a:	746e                	flw	fs0,248(sp)
20402f0c:	6c69                	lui	s8,0x1a
20402f0e:	aaaa                	fsd	fa0,336(sp)

20402f10 <XT_UNTIL>:
20402f10:	06cc                	addi	a1,sp,836
20402f12:	2040                	fld	fs0,128(s0)

20402f14 <PFA_UNTIL>:
20402f14:	13f4                	addi	a3,sp,492
20402f16:	2040                	fld	fs0,128(s0)
20402f18:	13d8                	addi	a4,sp,484
20402f1a:	2040                	fld	fs0,128(s0)
20402f1c:	20bc                	fld	fa5,64(s1)
20402f1e:	2040                	fld	fs0,128(s0)
20402f20:	2e68                	fld	fa0,216(a2)
20402f22:	2040                	fld	fs0,128(s0)
20402f24:	0018                	0x18
20402f26:	2040                	fld	fs0,128(s0)

20402f28 <VE_WHILE>:
20402f28:	2f04                	fld	fs1,24(a4)
20402f2a:	2040                	fld	fs0,128(s0)
20402f2c:	0010                	0x10
20402f2e:	0000                	unimp
20402f30:	7705                	lui	a4,0xfffe1
20402f32:	6968                	flw	fa0,84(a0)
20402f34:	656c                	flw	fa1,76(a0)
20402f36:	aaaa                	fsd	fa0,336(sp)

20402f38 <XT_WHILE>:
20402f38:	06cc                	addi	a1,sp,836
20402f3a:	2040                	fld	fs0,128(s0)

20402f3c <PFA_WHILE>:
20402f3c:	2f54                	fld	fa3,152(a4)
20402f3e:	2040                	fld	fs0,128(s0)
20402f40:	0058                	addi	a4,sp,4
20402f42:	2040                	fld	fs0,128(s0)
20402f44:	0018                	0x18
20402f46:	2040                	fld	fs0,128(s0)

20402f48 <VE_IF>:
20402f48:	2f2c                	fld	fa1,88(a4)
20402f4a:	2040                	fld	fs0,128(s0)
20402f4c:	0010                	0x10
20402f4e:	0000                	unimp
20402f50:	6902                	flw	fs2,0(sp)
20402f52:	aa66                	fsd	fs9,272(sp)

20402f54 <XT_IF>:
20402f54:	06cc                	addi	a1,sp,836
20402f56:	2040                	fld	fs0,128(s0)

20402f58 <PFA_IF>:
20402f58:	2090                	fld	fa2,0(s1)
20402f5a:	2040                	fld	fs0,128(s0)
20402f5c:	13d8                	addi	a4,sp,484
20402f5e:	2040                	fld	fs0,128(s0)
20402f60:	2e78                	fld	fa4,216(a2)
20402f62:	2040                	fld	fs0,128(s0)
20402f64:	0018                	0x18
20402f66:	2040                	fld	fs0,128(s0)

20402f68 <VE_ELSE>:
20402f68:	2f4c                	fld	fa1,152(a4)
20402f6a:	2040                	fld	fs0,128(s0)
20402f6c:	0010                	0x10
20402f6e:	0000                	unimp
20402f70:	6504                	flw	fs1,8(a0)
20402f72:	736c                	flw	fa1,100(a4)
20402f74:	aa65                	j	2040312c <PFA_TICK+0x20>
20402f76:	aaaa                	fsd	fa0,336(sp)

20402f78 <XT_ELSE>:
20402f78:	06cc                	addi	a1,sp,836
20402f7a:	2040                	fld	fs0,128(s0)

20402f7c <PFA_ELSE>:
20402f7c:	2090                	fld	fa2,0(s1)
20402f7e:	2040                	fld	fs0,128(s0)
20402f80:	13cc                	addi	a1,sp,484
20402f82:	2040                	fld	fs0,128(s0)
20402f84:	2e78                	fld	fa4,216(a2)
20402f86:	2040                	fld	fs0,128(s0)
20402f88:	0058                	addi	a4,sp,4
20402f8a:	2040                	fld	fs0,128(s0)
20402f8c:	2e8c                	fld	fa1,24(a3)
20402f8e:	2040                	fld	fs0,128(s0)
20402f90:	0018                	0x18
20402f92:	2040                	fld	fs0,128(s0)

20402f94 <VE_AGAIN>:
20402f94:	2f6c                	fld	fa1,216(a4)
20402f96:	2040                	fld	fs0,128(s0)
20402f98:	0010                	0x10
20402f9a:	0000                	unimp
20402f9c:	6105                	addi	sp,sp,32
20402f9e:	6e696167          	0x6e696167
20402fa2:	aaaa                	fsd	fa0,336(sp)

20402fa4 <XT_AGAIN>:
20402fa4:	06cc                	addi	a1,sp,836
20402fa6:	2040                	fld	fs0,128(s0)

20402fa8 <PFA_AGAIN>:
20402fa8:	2090                	fld	fa2,0(s1)
20402faa:	2040                	fld	fs0,128(s0)
20402fac:	13cc                	addi	a1,sp,484
20402fae:	2040                	fld	fs0,128(s0)
20402fb0:	2e68                	fld	fa0,216(a2)
20402fb2:	2040                	fld	fs0,128(s0)
20402fb4:	0018                	0x18
20402fb6:	2040                	fld	fs0,128(s0)

20402fb8 <VE_REPEAT>:
20402fb8:	2f98                	fld	fa4,24(a5)
20402fba:	2040                	fld	fs0,128(s0)
20402fbc:	0010                	0x10
20402fbe:	0000                	unimp
20402fc0:	7206                	flw	ft4,96(sp)
20402fc2:	7065                	c.lui	zero,0xffff9
20402fc4:	6165                	addi	sp,sp,112
20402fc6:	aa74                	fsd	fa3,208(a2)

20402fc8 <XT_REPEAT>:
20402fc8:	06cc                	addi	a1,sp,836
20402fca:	2040                	fld	fs0,128(s0)

20402fcc <PFA_REPEAT>:
20402fcc:	2fa4                	fld	fs1,88(a5)
20402fce:	2040                	fld	fs0,128(s0)
20402fd0:	2ef4                	fld	fa3,216(a3)
20402fd2:	2040                	fld	fs0,128(s0)
20402fd4:	0018                	0x18
20402fd6:	2040                	fld	fs0,128(s0)

20402fd8 <VE_LP0>:
20402fd8:	2fbc                	fld	fa5,88(a5)
20402fda:	2040                	fld	fs0,128(s0)
20402fdc:	00a0                	addi	s0,sp,72
20402fde:	0000                	unimp
20402fe0:	30706c03          	0x30706c03

20402fe4 <XT_LP0>:
20402fe4:	1300                	addi	s0,sp,416
20402fe6:	2040                	fld	fs0,128(s0)

20402fe8 <PFA_LP0>:
20402fe8:	0248                	addi	a0,sp,260
20402fea:	8000                	0x8000
20402fec:	0208                	addi	a0,sp,256
20402fee:	8000                	0x8000
20402ff0:	02b0                	addi	a2,sp,328
20402ff2:	2040                	fld	fs0,128(s0)
20402ff4:	02c8                	addi	a0,sp,324
20402ff6:	2040                	fld	fs0,128(s0)

20402ff8 <VE_LP>:
20402ff8:	2fdc                	fld	fa5,152(a5)
20402ffa:	2040                	fld	fs0,128(s0)
20402ffc:	0101                	addi	sp,sp,0
20402ffe:	0000                	unimp
20403000:	6c02                	flw	fs8,0(sp)
20403002:	aa70                	fsd	fa2,208(a2)

20403004 <XT_LP>:
20403004:	12d8                	addi	a4,sp,356
20403006:	2040                	fld	fs0,128(s0)

20403008 <PFA_LP>:
20403008:	024c                	addi	a1,sp,260
2040300a:	8000                	0x8000

2040300c <VE_L_FROM>:
2040300c:	2ffc                	fld	fa5,216(a5)
2040300e:	2040                	fld	fs0,128(s0)
20403010:	0000                	unimp
20403012:	0000                	unimp
20403014:	6c02                	flw	fs8,0(sp)
20403016:	aa3e                	fsd	fa5,272(sp)

20403018 <XT_L_FROM>:
20403018:	06cc                	addi	a1,sp,836
2040301a:	2040                	fld	fs0,128(s0)

2040301c <PFA_L_FROM>:
2040301c:	3004                	fld	fs1,32(s0)
2040301e:	2040                	fld	fs0,128(s0)
20403020:	02b0                	addi	a2,sp,328
20403022:	2040                	fld	fs0,128(s0)
20403024:	02b0                	addi	a2,sp,328
20403026:	2040                	fld	fs0,128(s0)
20403028:	13f4                	addi	a3,sp,492
2040302a:	2040                	fld	fs0,128(s0)
2040302c:	0004                	0x4
2040302e:	0000                	unimp
20403030:	3004                	fld	fs1,32(s0)
20403032:	2040                	fld	fs0,128(s0)
20403034:	0670                	addi	a2,sp,780
20403036:	2040                	fld	fs0,128(s0)
20403038:	0018                	0x18
2040303a:	2040                	fld	fs0,128(s0)

2040303c <VE_TO_L>:
2040303c:	3010                	fld	fa2,32(s0)
2040303e:	2040                	fld	fs0,128(s0)
20403040:	0000                	unimp
20403042:	0000                	unimp
20403044:	3e02                	fld	ft8,32(sp)
20403046:	aa6c                	fsd	fa1,208(a2)

20403048 <XT_TO_L>:
20403048:	06cc                	addi	a1,sp,836
2040304a:	2040                	fld	fs0,128(s0)

2040304c <PFA_TO_L>:
2040304c:	13f4                	addi	a3,sp,492
2040304e:	2040                	fld	fs0,128(s0)
20403050:	fffc                	fsw	fa5,124(a5)
20403052:	ffff                	0xffff
20403054:	3004                	fld	fs1,32(s0)
20403056:	2040                	fld	fs0,128(s0)
20403058:	0670                	addi	a2,sp,780
2040305a:	2040                	fld	fs0,128(s0)
2040305c:	3004                	fld	fs1,32(s0)
2040305e:	2040                	fld	fs0,128(s0)
20403060:	02b0                	addi	a2,sp,328
20403062:	2040                	fld	fs0,128(s0)
20403064:	02c8                	addi	a0,sp,324
20403066:	2040                	fld	fs0,128(s0)
20403068:	0018                	0x18
2040306a:	2040                	fld	fs0,128(s0)

2040306c <VE_LEAVE>:
2040306c:	3040                	fld	fs0,160(s0)
2040306e:	2040                	fld	fs0,128(s0)
20403070:	0010                	0x10
20403072:	0000                	unimp
20403074:	6c05                	lui	s8,0x1
20403076:	6165                	addi	sp,sp,112
20403078:	6576                	flw	fa0,92(sp)
2040307a:	aaaa                	fsd	fa0,336(sp)

2040307c <XT_LEAVE>:
2040307c:	06cc                	addi	a1,sp,836
2040307e:	2040                	fld	fs0,128(s0)

20403080 <PFA_LEAVE>:
20403080:	2090                	fld	fa2,0(s1)
20403082:	2040                	fld	fs0,128(s0)
20403084:	1230                	addi	a2,sp,296
20403086:	2040                	fld	fs0,128(s0)
20403088:	2eb4                	fld	fa3,88(a3)
2040308a:	2040                	fld	fs0,128(s0)
2040308c:	3048                	fld	fa0,160(s0)
2040308e:	2040                	fld	fs0,128(s0)
20403090:	0018                	0x18
20403092:	2040                	fld	fs0,128(s0)

20403094 <VE_IMMEDIATE>:
20403094:	3070                	fld	fa2,224(s0)
20403096:	2040                	fld	fs0,128(s0)
20403098:	0000                	unimp
2040309a:	0000                	unimp
2040309c:	6909                	lui	s2,0x2
2040309e:	6d6d                	lui	s10,0x1b
204030a0:	6465                	lui	s0,0x19
204030a2:	6169                	addi	sp,sp,208
204030a4:	6574                	flw	fa3,76(a0)
204030a6:	aaaa                	fsd	fa0,336(sp)

204030a8 <XT_IMMEDIATE>:
204030a8:	06cc                	addi	a1,sp,836
204030aa:	2040                	fld	fs0,128(s0)

204030ac <PFA_IMMEDIATE>:
204030ac:	3730                	fld	fa2,104(a4)
204030ae:	2040                	fld	fs0,128(s0)
204030b0:	1068                	addi	a0,sp,44
204030b2:	2040                	fld	fs0,128(s0)
204030b4:	0078                	addi	a4,sp,12
204030b6:	2040                	fld	fs0,128(s0)
204030b8:	13f4                	addi	a3,sp,492
204030ba:	2040                	fld	fs0,128(s0)
204030bc:	0010                	0x10
204030be:	0000                	unimp
204030c0:	00d0                	addi	a2,sp,68
204030c2:	2040                	fld	fs0,128(s0)
204030c4:	02b0                	addi	a2,sp,328
204030c6:	2040                	fld	fs0,128(s0)
204030c8:	04c0                	addi	s0,sp,580
204030ca:	2040                	fld	fs0,128(s0)
204030cc:	0058                	addi	a4,sp,4
204030ce:	2040                	fld	fs0,128(s0)
204030d0:	02c8                	addi	a0,sp,324
204030d2:	2040                	fld	fs0,128(s0)
204030d4:	0018                	0x18
204030d6:	2040                	fld	fs0,128(s0)

204030d8 <VE_TURNKEY>:
204030d8:	3098                	fld	fa4,32(s1)
204030da:	2040                	fld	fs0,128(s0)
204030dc:	00c0                	addi	s0,sp,68
204030de:	0000                	unimp
204030e0:	72757407          	0x72757407
204030e4:	6b6e                	flw	fs6,216(sp)
204030e6:	7965                	lui	s2,0xffff9

204030e8 <XT_TURNKEY>:
204030e8:	1318                	addi	a4,sp,416
204030ea:	2040                	fld	fs0,128(s0)

204030ec <PFA_TURNKEY>:
204030ec:	0250                	addi	a2,sp,260
204030ee:	8000                	0x8000
204030f0:	3ca4                	fld	fs1,120(s1)
204030f2:	2040                	fld	fs0,128(s0)
204030f4:	02b0                	addi	a2,sp,328
204030f6:	2040                	fld	fs0,128(s0)
204030f8:	02c8                	addi	a0,sp,324
204030fa:	2040                	fld	fs0,128(s0)

204030fc <VE_TICK>:
204030fc:	30dc                	fld	fa5,160(s1)
204030fe:	2040                	fld	fs0,128(s0)
20403100:	0000                	unimp
20403102:	0000                	unimp
20403104:	2701                	jal	20403804 <PFA_WORDLIST+0x18>
20403106:	aaaa                	fsd	fa0,336(sp)

20403108 <XT_TICK>:
20403108:	06cc                	addi	a1,sp,836
2040310a:	2040                	fld	fs0,128(s0)

2040310c <PFA_TICK>:
2040310c:	1f5c                	addi	a5,sp,948
2040310e:	2040                	fld	fs0,128(s0)
20403110:	299c                	fld	fa5,16(a1)
20403112:	2040                	fld	fs0,128(s0)
20403114:	29ec                	fld	fa1,208(a1)
20403116:	2040                	fld	fs0,128(s0)
20403118:	0078                	addi	a4,sp,12
2040311a:	2040                	fld	fs0,128(s0)
2040311c:	27c4                	fld	fs1,136(a5)
2040311e:	2040                	fld	fs0,128(s0)
20403120:	08a4                	addi	s1,sp,88
20403122:	2040                	fld	fs0,128(s0)
20403124:	0058                	addi	a4,sp,4
20403126:	2040                	fld	fs0,128(s0)
20403128:	02b0                	addi	a2,sp,328
2040312a:	2040                	fld	fs0,128(s0)
2040312c:	13f4                	addi	a3,sp,492
2040312e:	2040                	fld	fs0,128(s0)
20403130:	1170                	addi	a2,sp,172
20403132:	2040                	fld	fs0,128(s0)
20403134:	08a4                	addi	s1,sp,88
20403136:	2040                	fld	fs0,128(s0)
20403138:	04c0                	addi	s0,sp,580
2040313a:	2040                	fld	fs0,128(s0)
2040313c:	13d8                	addi	a4,sp,484
2040313e:	2040                	fld	fs0,128(s0)
20403140:	3150                	fld	fa2,160(a0)
20403142:	2040                	fld	fs0,128(s0)
20403144:	13f4                	addi	a3,sp,492
20403146:	2040                	fld	fs0,128(s0)
20403148:	fffffff3          	csrrci	t6,0xfff,31
2040314c:	1dac                	addi	a1,sp,760
2040314e:	2040                	fld	fs0,128(s0)

20403150 <PFA_TICK1>:
20403150:	0038                	addi	a4,sp,8
20403152:	2040                	fld	fs0,128(s0)
20403154:	0018                	0x18
20403156:	2040                	fld	fs0,128(s0)

20403158 <VE_ABORT>:
20403158:	3100                	fld	fs0,32(a0)
2040315a:	2040                	fld	fs0,128(s0)
2040315c:	0000                	unimp
2040315e:	0000                	unimp
20403160:	6105                	addi	sp,sp,32
20403162:	6f62                	flw	ft10,24(sp)
20403164:	7472                	flw	fs0,60(sp)
20403166:	aaaa                	fsd	fa0,336(sp)

20403168 <XT_ABORT>:
20403168:	06cc                	addi	a1,sp,836
2040316a:	2040                	fld	fs0,128(s0)

2040316c <PFA_ABORT>:
2040316c:	158c                	addi	a1,sp,736
2040316e:	2040                	fld	fs0,128(s0)
20403170:	1dac                	addi	a1,sp,760
20403172:	2040                	fld	fs0,128(s0)

20403174 <VE_ABORTQUOTE>:
20403174:	315c                	fld	fa5,160(a0)
20403176:	2040                	fld	fs0,128(s0)
20403178:	0010                	0x10
2040317a:	0000                	unimp
2040317c:	6106                	flw	ft2,64(sp)
2040317e:	6f62                	flw	ft10,24(sp)
20403180:	7472                	flw	fs0,60(sp)
20403182:	aa22                	fsd	fs0,272(sp)

20403184 <XT_ABORTQUOTE>:
20403184:	06cc                	addi	a1,sp,836
20403186:	2040                	fld	fs0,128(s0)

20403188 <PFA_ABORTQUOTE>:
20403188:	2d70                	fld	fa2,216(a0)
2040318a:	2040                	fld	fs0,128(s0)
2040318c:	2090                	fld	fa2,0(s1)
2040318e:	2040                	fld	fs0,128(s0)
20403190:	3540                	fld	fs0,168(a0)
20403192:	2040                	fld	fs0,128(s0)
20403194:	0018                	0x18
20403196:	2040                	fld	fs0,128(s0)

20403198 <VE_BACKSLASH>:
20403198:	3178                	fld	fa4,224(a0)
2040319a:	2040                	fld	fs0,128(s0)
2040319c:	0010                	0x10
2040319e:	0000                	unimp
204031a0:	5c01                	li	s8,-32
204031a2:	aaaa                	fsd	fa0,336(sp)

204031a4 <XT_BACKSLASH>:
204031a4:	06cc                	addi	a1,sp,836
204031a6:	2040                	fld	fs0,128(s0)

204031a8 <PFA_BACKSLASH>:
204031a8:	1e00                	addi	s0,sp,816
204031aa:	2040                	fld	fs0,128(s0)
204031ac:	0094                	addi	a3,sp,64
204031ae:	2040                	fld	fs0,128(s0)
204031b0:	3764                	fld	fs1,232(a4)
204031b2:	2040                	fld	fs0,128(s0)
204031b4:	02c8                	addi	a0,sp,324
204031b6:	2040                	fld	fs0,128(s0)
204031b8:	0018                	0x18
204031ba:	2040                	fld	fs0,128(s0)

204031bc <VE_BRACKETCHAR>:
204031bc:	319c                	fld	fa5,32(a1)
204031be:	2040                	fld	fs0,128(s0)
204031c0:	0010                	0x10
204031c2:	0000                	unimp
204031c4:	5b06                	lw	s6,96(sp)
204031c6:	72616863          	bltu	sp,t1,204038f6 <VE_SERIAL_KEYQ+0x6>
204031ca:	aa5d                	j	20403380 <PFA_DOCREATE+0x4>

204031cc <XT_BRACKETCHAR>:
204031cc:	06cc                	addi	a1,sp,836
204031ce:	2040                	fld	fs0,128(s0)

204031d0 <PFA_BRACKETCHAR>:
204031d0:	2090                	fld	fa2,0(s1)
204031d2:	2040                	fld	fs0,128(s0)
204031d4:	13f4                	addi	a3,sp,492
204031d6:	2040                	fld	fs0,128(s0)
204031d8:	323c                	fld	fa5,96(a2)
204031da:	2040                	fld	fs0,128(s0)
204031dc:	20bc                	fld	fa5,64(s1)
204031de:	2040                	fld	fs0,128(s0)
204031e0:	0018                	0x18
204031e2:	2040                	fld	fs0,128(s0)

204031e4 <VE_BRACKETCOMPILE>:
204031e4:	31c0                	fld	fs0,160(a1)
204031e6:	2040                	fld	fs0,128(s0)
204031e8:	0010                	0x10
204031ea:	0000                	unimp
204031ec:	5b09                	li	s6,-30
204031ee:	706d6f63          	bltu	s10,t1,2040390c <PFA_SERIAL_KEYQ+0x4>
204031f2:	6c69                	lui	s8,0x1a
204031f4:	5d65                	li	s10,-7
204031f6:	aaaa                	fsd	fa0,336(sp)

204031f8 <XT_BRACKETCOMPILE>:
204031f8:	06cc                	addi	a1,sp,836
204031fa:	2040                	fld	fs0,128(s0)

204031fc <PFA_BRACKETCOMPILE>:
204031fc:	2090                	fld	fa2,0(s1)
204031fe:	2040                	fld	fs0,128(s0)
20403200:	2090                	fld	fa2,0(s1)
20403202:	2040                	fld	fs0,128(s0)
20403204:	3108                	fld	fa0,32(a0)
20403206:	2040                	fld	fs0,128(s0)
20403208:	20bc                	fld	fa5,64(s1)
2040320a:	2040                	fld	fs0,128(s0)
2040320c:	0018                	0x18
2040320e:	2040                	fld	fs0,128(s0)

20403210 <VE_BRACKETTICK>:
20403210:	31e8                	fld	fa0,224(a1)
20403212:	2040                	fld	fs0,128(s0)
20403214:	0010                	0x10
20403216:	0000                	unimp
20403218:	5d275b03          	lhu	s6,1490(a4) # fffe15d2 <Flag_invisible+0xfffe15d3>

2040321c <XT_BRACKETTICK>:
2040321c:	06cc                	addi	a1,sp,836
2040321e:	2040                	fld	fs0,128(s0)

20403220 <PFA_BRACKETTICK>:
20403220:	3108                	fld	fa0,32(a0)
20403222:	2040                	fld	fs0,128(s0)
20403224:	206c                	fld	fa1,192(s0)
20403226:	2040                	fld	fs0,128(s0)
20403228:	0018                	0x18
2040322a:	2040                	fld	fs0,128(s0)

2040322c <VE_CHAR>:
2040322c:	3214                	fld	fa3,32(a2)
2040322e:	2040                	fld	fs0,128(s0)
20403230:	0000                	unimp
20403232:	0000                	unimp
20403234:	6304                	flw	fs1,0(a4)
20403236:	6168                	flw	fa0,68(a0)
20403238:	aa72                	fsd	ft8,272(sp)
2040323a:	aaaa                	fsd	fa0,336(sp)

2040323c <XT_CHAR>:
2040323c:	06cc                	addi	a1,sp,836
2040323e:	2040                	fld	fs0,128(s0)

20403240 <PFA_CHAR>:
20403240:	1f5c                	addi	a5,sp,948
20403242:	2040                	fld	fs0,128(s0)
20403244:	06f8                	addi	a4,sp,844
20403246:	2040                	fld	fs0,128(s0)
20403248:	13d8                	addi	a4,sp,484
2040324a:	2040                	fld	fs0,128(s0)
2040324c:	325c                	fld	fa5,160(a2)
2040324e:	2040                	fld	fs0,128(s0)
20403250:	13f4                	addi	a3,sp,492
20403252:	2040                	fld	fs0,128(s0)
20403254:	fff0                	fsw	fa2,124(a5)
20403256:	ffff                	0xffff
20403258:	1dac                	addi	a1,sp,760
2040325a:	2040                	fld	fs0,128(s0)

2040325c <CHAR_1>:
2040325c:	069c                	addi	a5,sp,832
2040325e:	2040                	fld	fs0,128(s0)
20403260:	0018                	0x18
20403262:	2040                	fld	fs0,128(s0)

20403264 <VE_COLONNONAME>:
20403264:	3230                	fld	fa2,96(a2)
20403266:	2040                	fld	fs0,128(s0)
20403268:	0000                	unimp
2040326a:	0000                	unimp
2040326c:	6f6e3a07          	fld	fs4,1782(t3) # 1a6f6 <CLINT_MTIME+0xe6fe>
20403270:	616e                	flw	ft2,216(sp)
20403272:	656d                	lui	a0,0x1b

20403274 <XT_COLONNONAME>:
20403274:	06cc                	addi	a1,sp,836
20403276:	2040                	fld	fs0,128(s0)

20403278 <PFA_COLONNONAME>:
20403278:	1768                	addi	a0,sp,940
2040327a:	2040                	fld	fs0,128(s0)
2040327c:	0078                	addi	a4,sp,12
2040327e:	2040                	fld	fs0,128(s0)
20403280:	3478                	fld	fa4,232(s0)
20403282:	2040                	fld	fs0,128(s0)
20403284:	02c8                	addi	a0,sp,324
20403286:	2040                	fld	fs0,128(s0)
20403288:	2090                	fld	fa2,0(s1)
2040328a:	2040                	fld	fs0,128(s0)
2040328c:	06cc                	addi	a1,sp,836
2040328e:	2040                	fld	fs0,128(s0)
20403290:	35d0                	fld	fa2,168(a1)
20403292:	2040                	fld	fs0,128(s0)
20403294:	0018                	0x18
20403296:	2040                	fld	fs0,128(s0)

20403298 <VE_CONSTANT>:
20403298:	3268                	fld	fa0,224(a2)
2040329a:	2040                	fld	fs0,128(s0)
2040329c:	0000                	unimp
2040329e:	0000                	unimp
204032a0:	6308                	flw	fa0,0(a4)
204032a2:	74736e6f          	jal	t3,2043a1e8 <FlashEnd+0x2a1e8>
204032a6:	6e61                	lui	t3,0x18
204032a8:	aa74                	fsd	fa3,208(a2)
204032aa:	aaaa                	fsd	fa0,336(sp)

204032ac <XT_CONSTANT>:
204032ac:	06cc                	addi	a1,sp,836
204032ae:	2040                	fld	fs0,128(s0)

204032b0 <PFA_CONSTANT>:
204032b0:	3378                	fld	fa4,224(a4)
204032b2:	2040                	fld	fs0,128(s0)
204032b4:	3594                	fld	fa3,40(a1)
204032b6:	2040                	fld	fs0,128(s0)
204032b8:	2090                	fld	fa2,0(s1)
204032ba:	2040                	fld	fs0,128(s0)
204032bc:	12d8                	addi	a4,sp,356
204032be:	2040                	fld	fs0,128(s0)
204032c0:	20bc                	fld	fa5,64(s1)
204032c2:	2040                	fld	fs0,128(s0)
204032c4:	0018                	0x18
204032c6:	2040                	fld	fs0,128(s0)

204032c8 <VE_CREATE>:
204032c8:	329c                	fld	fa5,32(a3)
204032ca:	2040                	fld	fs0,128(s0)
204032cc:	0000                	unimp
204032ce:	0000                	unimp
204032d0:	6306                	flw	ft6,64(sp)
204032d2:	6572                	flw	fa0,28(sp)
204032d4:	7461                	lui	s0,0xffff8
204032d6:	aa65                	j	2040348e <VE_LOOP+0xe>

204032d8 <XT_CREATE>:
204032d8:	06cc                	addi	a1,sp,836
204032da:	2040                	fld	fs0,128(s0)

204032dc <PFA_CREATE>:
204032dc:	3378                	fld	fa4,224(a4)
204032de:	2040                	fld	fs0,128(s0)
204032e0:	3594                	fld	fa3,40(a1)
204032e2:	2040                	fld	fs0,128(s0)
204032e4:	2090                	fld	fa2,0(s1)
204032e6:	2040                	fld	fs0,128(s0)
204032e8:	12d8                	addi	a4,sp,356
204032ea:	2040                	fld	fs0,128(s0)
204032ec:	0018                	0x18
204032ee:	2040                	fld	fs0,128(s0)

204032f0 <VE_DEFERFETCH>:
204032f0:	32cc                	fld	fa1,160(a3)
204032f2:	2040                	fld	fs0,128(s0)
204032f4:	0000                	unimp
204032f6:	0000                	unimp
204032f8:	6406                	flw	fs0,64(sp)
204032fa:	6665                	lui	a2,0x19
204032fc:	7265                	lui	tp,0xffff9
204032fe:	aa40                	fsd	fs0,144(a2)

20403300 <XT_DEFERFETCH>:
20403300:	06cc                	addi	a1,sp,836
20403302:	2040                	fld	fs0,128(s0)

20403304 <PFA_DEFERFETCH>:
20403304:	3710                	fld	fa2,40(a4)
20403306:	2040                	fld	fs0,128(s0)
20403308:	0078                	addi	a4,sp,12
2040330a:	2040                	fld	fs0,128(s0)
2040330c:	02b0                	addi	a2,sp,328
2040330e:	2040                	fld	fs0,128(s0)
20403310:	0058                	addi	a4,sp,4
20403312:	2040                	fld	fs0,128(s0)
20403314:	0ef0                	addi	a2,sp,860
20403316:	2040                	fld	fs0,128(s0)
20403318:	0ef0                	addi	a2,sp,860
2040331a:	2040                	fld	fs0,128(s0)
2040331c:	02b0                	addi	a2,sp,328
2040331e:	2040                	fld	fs0,128(s0)
20403320:	1068                	addi	a0,sp,44
20403322:	2040                	fld	fs0,128(s0)
20403324:	0018                	0x18
20403326:	2040                	fld	fs0,128(s0)

20403328 <VE_DEFERSTORE>:
20403328:	32f4                	fld	fa3,224(a3)
2040332a:	2040                	fld	fs0,128(s0)
2040332c:	0000                	unimp
2040332e:	0000                	unimp
20403330:	6406                	flw	fs0,64(sp)
20403332:	6665                	lui	a2,0x19
20403334:	7265                	lui	tp,0xffff9
20403336:	aa21                	j	2040344e <PFA_HEADER+0x2a>

20403338 <XT_DEFERSTORE>:
20403338:	06cc                	addi	a1,sp,836
2040333a:	2040                	fld	fs0,128(s0)

2040333c <PFA_DEFERSTORE>:
2040333c:	3710                	fld	fa2,40(a4)
2040333e:	2040                	fld	fs0,128(s0)
20403340:	0078                	addi	a4,sp,12
20403342:	2040                	fld	fs0,128(s0)
20403344:	02b0                	addi	a2,sp,328
20403346:	2040                	fld	fs0,128(s0)
20403348:	0058                	addi	a4,sp,4
2040334a:	2040                	fld	fs0,128(s0)
2040334c:	0ef0                	addi	a2,sp,860
2040334e:	2040                	fld	fs0,128(s0)
20403350:	0ef0                	addi	a2,sp,860
20403352:	2040                	fld	fs0,128(s0)
20403354:	0ef0                	addi	a2,sp,860
20403356:	2040                	fld	fs0,128(s0)
20403358:	02b0                	addi	a2,sp,328
2040335a:	2040                	fld	fs0,128(s0)
2040335c:	1068                	addi	a0,sp,44
2040335e:	2040                	fld	fs0,128(s0)
20403360:	0018                	0x18
20403362:	2040                	fld	fs0,128(s0)

20403364 <VE_DOCREATE>:
20403364:	332c                	fld	fa1,96(a4)
20403366:	2040                	fld	fs0,128(s0)
20403368:	0000                	unimp
2040336a:	0000                	unimp
2040336c:	2808                	fld	fa0,16(s0)
2040336e:	61657263          	bleu	s6,a0,20403972 <PFA_SERIAL_EMIT+0xe>
20403372:	6574                	flw	fa3,76(a0)
20403374:	aa29                	j	2040348e <VE_LOOP+0xe>
20403376:	aaaa                	fsd	fa0,336(sp)

20403378 <XT_DOCREATE>:
20403378:	06cc                	addi	a1,sp,836
2040337a:	2040                	fld	fs0,128(s0)

2040337c <PFA_DOCREATE>:
2040337c:	1f5c                	addi	a5,sp,948
2040337e:	2040                	fld	fs0,128(s0)
20403380:	36ec                	fld	fa1,232(a3)
20403382:	2040                	fld	fs0,128(s0)
20403384:	338c                	fld	fa1,32(a5)
20403386:	2040                	fld	fs0,128(s0)
20403388:	0018                	0x18
2040338a:	2040                	fld	fs0,128(s0)

2040338c <XT_DOCREATE_IN>:
2040338c:	06cc                	addi	a1,sp,836
2040338e:	2040                	fld	fs0,128(s0)

20403390 <PFA_DOCREATE_IN>:
20403390:	0078                	addi	a4,sp,12
20403392:	2040                	fld	fs0,128(s0)
20403394:	34b4                	fld	fa3,104(s1)
20403396:	2040                	fld	fs0,128(s0)
20403398:	0ef0                	addi	a2,sp,860
2040339a:	2040                	fld	fs0,128(s0)
2040339c:	02c8                	addi	a0,sp,324
2040339e:	2040                	fld	fs0,128(s0)
204033a0:	3420                	fld	fs0,104(s0)
204033a2:	2040                	fld	fs0,128(s0)
204033a4:	34b4                	fld	fa3,104(s1)
204033a6:	2040                	fld	fs0,128(s0)
204033a8:	02c8                	addi	a0,sp,324
204033aa:	2040                	fld	fs0,128(s0)
204033ac:	0018                	0x18
204033ae:	2040                	fld	fs0,128(s0)

204033b0 <VE_DO>:
204033b0:	3368                	fld	fa0,224(a4)
204033b2:	2040                	fld	fs0,128(s0)
204033b4:	0010                	0x10
204033b6:	0000                	unimp
204033b8:	6402                	flw	fs0,0(sp)
204033ba:	          	jal	s4,204cd426 <FlashEnd+0xbd426>

204033bc <XT_DO>:
204033bc:	06cc                	addi	a1,sp,836
204033be:	2040                	fld	fs0,128(s0)

204033c0 <PFA_DO>:
204033c0:	2090                	fld	fa2,0(s1)
204033c2:	2040                	fld	fs0,128(s0)
204033c4:	119c                	addi	a5,sp,224
204033c6:	2040                	fld	fs0,128(s0)
204033c8:	2e5c                	fld	fa5,152(a2)
204033ca:	2040                	fld	fs0,128(s0)
204033cc:	1524                	addi	s1,sp,680
204033ce:	2040                	fld	fs0,128(s0)
204033d0:	3048                	fld	fa0,160(s0)
204033d2:	2040                	fld	fs0,128(s0)
204033d4:	0018                	0x18
204033d6:	2040                	fld	fs0,128(s0)

204033d8 <VE_ENDLOOP>:
204033d8:	33b4                	fld	fa3,96(a5)
204033da:	2040                	fld	fs0,128(s0)
204033dc:	0010                	0x10
204033de:	0000                	unimp
204033e0:	646e6507          	0x646e6507
204033e4:	6f6c                	flw	fa1,92(a4)
204033e6:	          	j	204ca452 <FlashEnd+0xba452>

204033e8 <XT_ENDLOOP>:
204033e8:	06cc                	addi	a1,sp,836
204033ea:	2040                	fld	fs0,128(s0)

204033ec <PFA_ENDLOOP>:
204033ec:	2e68                	fld	fa0,216(a2)
204033ee:	2040                	fld	fs0,128(s0)

204033f0 <ENDLOOP1>:
204033f0:	3018                	fld	fa4,32(s0)
204033f2:	2040                	fld	fs0,128(s0)
204033f4:	00fc                	addi	a5,sp,76
204033f6:	2040                	fld	fs0,128(s0)
204033f8:	13d8                	addi	a4,sp,484
204033fa:	2040                	fld	fs0,128(s0)
204033fc:	340c                	fld	fa1,40(s0)
204033fe:	2040                	fld	fs0,128(s0)
20403400:	2ef4                	fld	fa3,216(a3)
20403402:	2040                	fld	fs0,128(s0)
20403404:	13cc                	addi	a1,sp,484
20403406:	2040                	fld	fs0,128(s0)
20403408:	33f0                	fld	fa2,224(a5)
2040340a:	2040                	fld	fs0,128(s0)

2040340c <ENDLOOP2>:
2040340c:	0018                	0x18
2040340e:	2040                	fld	fs0,128(s0)

20403410 <VE_HEADER>:
20403410:	33dc                	fld	fa5,160(a5)
20403412:	2040                	fld	fs0,128(s0)
20403414:	0000                	unimp
20403416:	0000                	unimp
20403418:	6806                	flw	fa6,64(sp)
2040341a:	6165                	addi	sp,sp,112
2040341c:	6564                	flw	fs1,76(a0)
2040341e:	aa72                	fsd	ft8,272(sp)

20403420 <XT_HEADER>:
20403420:	06cc                	addi	a1,sp,836
20403422:	2040                	fld	fs0,128(s0)

20403424 <PFA_HEADER>:
20403424:	00b0                	addi	a2,sp,72
20403426:	2040                	fld	fs0,128(s0)
20403428:	3748                	fld	fa0,168(a4)
2040342a:	2040                	fld	fs0,128(s0)
2040342c:	13d8                	addi	a4,sp,484
2040342e:	2040                	fld	fs0,128(s0)
20403430:	345c                	fld	fa5,168(s0)
20403432:	2040                	fld	fs0,128(s0)
20403434:	1068                	addi	a0,sp,44
20403436:	2040                	fld	fs0,128(s0)
20403438:	20bc                	fld	fa5,64(s1)
2040343a:	2040                	fld	fs0,128(s0)
2040343c:	1768                	addi	a0,sp,940
2040343e:	2040                	fld	fs0,128(s0)
20403440:	0194                	addi	a3,sp,192
20403442:	2040                	fld	fs0,128(s0)
20403444:	13f4                	addi	a3,sp,492
20403446:	2040                	fld	fs0,128(s0)
20403448:	0000                	unimp
2040344a:	0000                	unimp
2040344c:	20bc                	fld	fa5,64(s1)
2040344e:	2040                	fld	fs0,128(s0)
20403450:	2dc4                	fld	fs1,152(a1)
20403452:	2040                	fld	fs0,128(s0)
20403454:	01b0                	addi	a2,sp,200
20403456:	2040                	fld	fs0,128(s0)
20403458:	0018                	0x18
2040345a:	2040                	fld	fs0,128(s0)

2040345c <PFA_HEADER1>:
2040345c:	13f4                	addi	a3,sp,492
2040345e:	2040                	fld	fs0,128(s0)
20403460:	fff0                	fsw	fa2,124(a5)
20403462:	ffff                	0xffff
20403464:	1dac                	addi	a1,sp,760
20403466:	2040                	fld	fs0,128(s0)

20403468 <VE_LATEST>:
20403468:	3414                	fld	fa3,40(s0)
2040346a:	2040                	fld	fs0,128(s0)
2040346c:	0101                	addi	sp,sp,0
2040346e:	0000                	unimp
20403470:	6c06                	flw	fs8,64(sp)
20403472:	7461                	lui	s0,0xffff8
20403474:	7365                	lui	t1,0xffff9
20403476:	aa74                	fsd	fa3,208(a2)

20403478 <XT_LATEST>:
20403478:	12d8                	addi	a4,sp,356
2040347a:	2040                	fld	fs0,128(s0)

2040347c <PFA_LATEST>:
2040347c:	0254                	addi	a3,sp,260
2040347e:	8000                	0x8000

20403480 <VE_LOOP>:
20403480:	346c                	fld	fa1,232(s0)
20403482:	2040                	fld	fs0,128(s0)
20403484:	0010                	0x10
20403486:	0000                	unimp
20403488:	6c04                	flw	fs1,24(s0)
2040348a:	aa706f6f          	jal	t5,20309f30 <UART0_DIV+0x102f6f18>
2040348e:	aaaa                	fsd	fa0,336(sp)

20403490 <XT_LOOP>:
20403490:	06cc                	addi	a1,sp,836
20403492:	2040                	fld	fs0,128(s0)

20403494 <PFA_LOOP>:
20403494:	2090                	fld	fa2,0(s1)
20403496:	2040                	fld	fs0,128(s0)
20403498:	11d4                	addi	a3,sp,228
2040349a:	2040                	fld	fs0,128(s0)
2040349c:	33e8                	fld	fa0,224(a5)
2040349e:	2040                	fld	fs0,128(s0)
204034a0:	0018                	0x18
204034a2:	2040                	fld	fs0,128(s0)

204034a4 <VE_NEWEST>:
204034a4:	3484                	fld	fs1,40(s1)
204034a6:	2040                	fld	fs0,128(s0)
204034a8:	0101                	addi	sp,sp,0
204034aa:	0000                	unimp
204034ac:	6e06                	flw	ft8,64(sp)
204034ae:	7765                	lui	a4,0xffff9
204034b0:	7365                	lui	t1,0xffff9
204034b2:	aa74                	fsd	fa3,208(a2)

204034b4 <XT_NEWEST>:
204034b4:	12d8                	addi	a4,sp,356
204034b6:	2040                	fld	fs0,128(s0)

204034b8 <PFA_NEWEST>:
204034b8:	0258                	addi	a4,sp,260
204034ba:	8000                	0x8000

204034bc <VE_PLUSLOOP>:
204034bc:	34a8                	fld	fa0,104(s1)
204034be:	2040                	fld	fs0,128(s0)
204034c0:	0010                	0x10
204034c2:	0000                	unimp
204034c4:	2b05                	jal	204039f4 <PFA_CSTORE_FLASH+0x8>
204034c6:	6f6c                	flw	fa1,92(a4)
204034c8:	aaaa706f          	j	203aa772 <UART0_DIV+0x1039775a>

204034cc <XT_PLUSLOOP>:
204034cc:	06cc                	addi	a1,sp,836
204034ce:	2040                	fld	fs0,128(s0)

204034d0 <PFA_PLUSLOOP>:
204034d0:	2090                	fld	fa2,0(s1)
204034d2:	2040                	fld	fs0,128(s0)
204034d4:	11e0                	addi	s0,sp,236
204034d6:	2040                	fld	fs0,128(s0)
204034d8:	33e8                	fld	fa0,224(a5)
204034da:	2040                	fld	fs0,128(s0)
204034dc:	0018                	0x18
204034de:	2040                	fld	fs0,128(s0)

204034e0 <VE_POSTPONE>:
204034e0:	34c0                	fld	fs0,168(s1)
204034e2:	2040                	fld	fs0,128(s0)
204034e4:	0010                	0x10
204034e6:	0000                	unimp
204034e8:	7008                	flw	fa0,32(s0)
204034ea:	7074736f          	jal	t1,2044b3f0 <FlashEnd+0x3b3f0>
204034ee:	aa656e6f          	jal	t3,20359794 <UART0_DIV+0x1034677c>
204034f2:	aaaa                	fsd	fa0,336(sp)

204034f4 <XT_POSTPONE>:
204034f4:	06cc                	addi	a1,sp,836
204034f6:	2040                	fld	fs0,128(s0)

204034f8 <PFA_POSTPONE>:
204034f8:	1f5c                	addi	a5,sp,948
204034fa:	2040                	fld	fs0,128(s0)
204034fc:	299c                	fld	fa5,16(a1)
204034fe:	2040                	fld	fs0,128(s0)
20403500:	29ec                	fld	fa1,208(a1)
20403502:	2040                	fld	fs0,128(s0)
20403504:	0078                	addi	a4,sp,12
20403506:	2040                	fld	fs0,128(s0)
20403508:	0194                	addi	a3,sp,192
2040350a:	2040                	fld	fs0,128(s0)
2040350c:	0ef0                	addi	a2,sp,860
2040350e:	2040                	fld	fs0,128(s0)
20403510:	0ef0                	addi	a2,sp,860
20403512:	2040                	fld	fs0,128(s0)
20403514:	02b0                	addi	a2,sp,328
20403516:	2040                	fld	fs0,128(s0)
20403518:	1068                	addi	a0,sp,44
2040351a:	2040                	fld	fs0,128(s0)
2040351c:	01b0                	addi	a2,sp,200
2040351e:	2040                	fld	fs0,128(s0)
20403520:	0ef0                	addi	a2,sp,860
20403522:	2040                	fld	fs0,128(s0)
20403524:	02b0                	addi	a2,sp,328
20403526:	2040                	fld	fs0,128(s0)
20403528:	20bc                	fld	fa5,64(s1)
2040352a:	2040                	fld	fs0,128(s0)
2040352c:	0018                	0x18
2040352e:	2040                	fld	fs0,128(s0)

20403530 <VE_QABORT>:
20403530:	34e4                	fld	fs1,232(s1)
20403532:	2040                	fld	fs0,128(s0)
20403534:	0000                	unimp
20403536:	0000                	unimp
20403538:	3f06                	fld	ft10,96(sp)
2040353a:	6261                	lui	tp,0x18
2040353c:	aa74726f          	jal	tp,2034afe2 <UART0_DIV+0x10337fca>

20403540 <XT_QABORT>:
20403540:	06cc                	addi	a1,sp,836
20403542:	2040                	fld	fs0,128(s0)

20403544 <PFA_QABORT>:
20403544:	00d0                	addi	a2,sp,68
20403546:	2040                	fld	fs0,128(s0)
20403548:	13d8                	addi	a4,sp,484
2040354a:	2040                	fld	fs0,128(s0)
2040354c:	3558                	fld	fa4,168(a0)
2040354e:	2040                	fld	fs0,128(s0)
20403550:	2d18                	fld	fa4,24(a0)
20403552:	2040                	fld	fs0,128(s0)
20403554:	3168                	fld	fa0,224(a0)
20403556:	2040                	fld	fs0,128(s0)

20403558 <QABO1>:
20403558:	09c4                	addi	s1,sp,212
2040355a:	2040                	fld	fs0,128(s0)
2040355c:	0018                	0x18
2040355e:	2040                	fld	fs0,128(s0)

20403560 <VE_RECURSE>:
20403560:	3534                	fld	fa3,104(a0)
20403562:	2040                	fld	fs0,128(s0)
20403564:	0010                	0x10
20403566:	0000                	unimp
20403568:	63657207          	0x63657207
2040356c:	7275                	lui	tp,0xffffd
2040356e:	          	csrrsi	a0,0x6c,24

20403570 <XT_RECURSE>:
20403570:	06cc                	addi	a1,sp,836
20403572:	2040                	fld	fs0,128(s0)

20403574 <PFA_RECURSE>:
20403574:	3478                	fld	fa4,232(s0)
20403576:	2040                	fld	fs0,128(s0)
20403578:	02b0                	addi	a2,sp,328
2040357a:	2040                	fld	fs0,128(s0)
2040357c:	20bc                	fld	fa5,64(s1)
2040357e:	2040                	fld	fs0,128(s0)
20403580:	0018                	0x18
20403582:	2040                	fld	fs0,128(s0)

20403584 <VE_REVEAL>:
20403584:	3564                	fld	fs1,232(a0)
20403586:	2040                	fld	fs0,128(s0)
20403588:	0000                	unimp
2040358a:	0000                	unimp
2040358c:	7206                	flw	ft4,96(sp)
2040358e:	7665                	lui	a2,0xffff9
20403590:	6165                	addi	sp,sp,112
20403592:	aa6c                	fsd	fa1,208(a2)

20403594 <XT_REVEAL>:
20403594:	06cc                	addi	a1,sp,836
20403596:	2040                	fld	fs0,128(s0)

20403598 <PFA_REVEAL>:
20403598:	34b4                	fld	fa3,104(s1)
2040359a:	2040                	fld	fs0,128(s0)
2040359c:	0ef0                	addi	a2,sp,860
2040359e:	2040                	fld	fs0,128(s0)
204035a0:	02b0                	addi	a2,sp,328
204035a2:	2040                	fld	fs0,128(s0)
204035a4:	00fc                	addi	a5,sp,76
204035a6:	2040                	fld	fs0,128(s0)
204035a8:	13d8                	addi	a4,sp,484
204035aa:	2040                	fld	fs0,128(s0)
204035ac:	35c0                	fld	fs0,168(a1)
204035ae:	2040                	fld	fs0,128(s0)
204035b0:	34b4                	fld	fa3,104(s1)
204035b2:	2040                	fld	fs0,128(s0)
204035b4:	02b0                	addi	a2,sp,328
204035b6:	2040                	fld	fs0,128(s0)
204035b8:	0058                	addi	a4,sp,4
204035ba:	2040                	fld	fs0,128(s0)
204035bc:	3680                	fld	fs0,40(a3)
204035be:	2040                	fld	fs0,128(s0)

204035c0 <REVEAL1>:
204035c0:	0018                	0x18
204035c2:	2040                	fld	fs0,128(s0)

204035c4 <VE_RBRACKET>:
204035c4:	3588                	fld	fa0,40(a1)
204035c6:	2040                	fld	fs0,128(s0)
204035c8:	0000                	unimp
204035ca:	0000                	unimp
204035cc:	5d01                	li	s10,-32
204035ce:	aaaa                	fsd	fa0,336(sp)

204035d0 <XT_RBRACKET>:
204035d0:	06cc                	addi	a1,sp,836
204035d2:	2040                	fld	fs0,128(s0)

204035d4 <PFA_RBRACKET>:
204035d4:	1538                	addi	a4,sp,680
204035d6:	2040                	fld	fs0,128(s0)
204035d8:	0f28                	addi	a0,sp,920
204035da:	2040                	fld	fs0,128(s0)
204035dc:	02c8                	addi	a0,sp,324
204035de:	2040                	fld	fs0,128(s0)
204035e0:	0018                	0x18
204035e2:	2040                	fld	fs0,128(s0)

204035e4 <VE_COLON>:
204035e4:	35c8                	fld	fa0,168(a1)
204035e6:	2040                	fld	fs0,128(s0)
204035e8:	0000                	unimp
204035ea:	0000                	unimp
204035ec:	3a01                	jal	20402efc <PFA_THEN+0x4>
204035ee:	aaaa                	fsd	fa0,336(sp)

204035f0 <XT_COLON>:
204035f0:	06cc                	addi	a1,sp,836
204035f2:	2040                	fld	fs0,128(s0)

204035f4 <PFA_COLON>:
204035f4:	3378                	fld	fa4,224(a4)
204035f6:	2040                	fld	fs0,128(s0)
204035f8:	3274                	fld	fa3,224(a2)
204035fa:	2040                	fld	fs0,128(s0)
204035fc:	0038                	addi	a4,sp,8
204035fe:	2040                	fld	fs0,128(s0)
20403600:	0018                	0x18
20403602:	2040                	fld	fs0,128(s0)

20403604 <VE_SEMICOLON>:
20403604:	35e8                	fld	fa0,232(a1)
20403606:	2040                	fld	fs0,128(s0)
20403608:	0010                	0x10
2040360a:	0000                	unimp
2040360c:	3b01                	jal	2040331c <PFA_DEFERFETCH+0x18>
2040360e:	aaaa                	fsd	fa0,336(sp)

20403610 <XT_SEMICOLON>:
20403610:	06cc                	addi	a1,sp,836
20403612:	2040                	fld	fs0,128(s0)

20403614 <PFA_SEMICOLON>:
20403614:	2090                	fld	fa2,0(s1)
20403616:	2040                	fld	fs0,128(s0)
20403618:	0018                	0x18
2040361a:	2040                	fld	fs0,128(s0)
2040361c:	16b0                	addi	a2,sp,872
2040361e:	2040                	fld	fs0,128(s0)
20403620:	3594                	fld	fa3,40(a1)
20403622:	2040                	fld	fs0,128(s0)
20403624:	0018                	0x18
20403626:	2040                	fld	fs0,128(s0)

20403628 <VE_TO>:
20403628:	3608                	fld	fa0,40(a2)
2040362a:	2040                	fld	fs0,128(s0)
2040362c:	0010                	0x10
2040362e:	0000                	unimp
20403630:	7402                	flw	fs0,32(sp)
20403632:	          	jal	s4,204cd69e <FlashEnd+0xbd69e>

20403634 <XT_TO>:
20403634:	06cc                	addi	a1,sp,836
20403636:	2040                	fld	fs0,128(s0)

20403638 <PFA_TO>:
20403638:	3108                	fld	fa0,32(a0)
2040363a:	2040                	fld	fs0,128(s0)
2040363c:	3710                	fld	fa2,40(a4)
2040363e:	2040                	fld	fs0,128(s0)
20403640:	0f28                	addi	a0,sp,920
20403642:	2040                	fld	fs0,128(s0)
20403644:	02b0                	addi	a2,sp,328
20403646:	2040                	fld	fs0,128(s0)
20403648:	13d8                	addi	a4,sp,484
2040364a:	2040                	fld	fs0,128(s0)
2040364c:	3684                	fld	fs1,40(a3)
2040364e:	2040                	fld	fs0,128(s0)
20403650:	2090                	fld	fa2,0(s1)
20403652:	2040                	fld	fs0,128(s0)
20403654:	3660                	fld	fs0,232(a2)
20403656:	2040                	fld	fs0,128(s0)
20403658:	20bc                	fld	fa5,64(s1)
2040365a:	2040                	fld	fs0,128(s0)
2040365c:	0018                	0x18
2040365e:	2040                	fld	fs0,128(s0)

20403660 <XT_DOTO>:
20403660:	06cc                	addi	a1,sp,836
20403662:	2040                	fld	fs0,128(s0)

20403664 <PFA_DOTO>:
20403664:	01b0                	addi	a2,sp,200
20403666:	2040                	fld	fs0,128(s0)
20403668:	0078                	addi	a4,sp,12
2040366a:	2040                	fld	fs0,128(s0)
2040366c:	0ef0                	addi	a2,sp,860
2040366e:	2040                	fld	fs0,128(s0)
20403670:	0194                	addi	a3,sp,192
20403672:	2040                	fld	fs0,128(s0)
20403674:	02b0                	addi	a2,sp,328
20403676:	2040                	fld	fs0,128(s0)
20403678:	3680                	fld	fs0,40(a3)
2040367a:	2040                	fld	fs0,128(s0)
2040367c:	0018                	0x18
2040367e:	2040                	fld	fs0,128(s0)

20403680 <XT_DOTO1>:
20403680:	06cc                	addi	a1,sp,836
20403682:	2040                	fld	fs0,128(s0)

20403684 <PFA_DOTO1>:
20403684:	0ef0                	addi	a2,sp,860
20403686:	2040                	fld	fs0,128(s0)
20403688:	0078                	addi	a4,sp,12
2040368a:	2040                	fld	fs0,128(s0)
2040368c:	02b0                	addi	a2,sp,328
2040368e:	2040                	fld	fs0,128(s0)
20403690:	0058                	addi	a4,sp,4
20403692:	2040                	fld	fs0,128(s0)
20403694:	0ef0                	addi	a2,sp,860
20403696:	2040                	fld	fs0,128(s0)
20403698:	0ef0                	addi	a2,sp,860
2040369a:	2040                	fld	fs0,128(s0)
2040369c:	0ef0                	addi	a2,sp,860
2040369e:	2040                	fld	fs0,128(s0)
204036a0:	02b0                	addi	a2,sp,328
204036a2:	2040                	fld	fs0,128(s0)
204036a4:	1068                	addi	a0,sp,44
204036a6:	2040                	fld	fs0,128(s0)
204036a8:	0018                	0x18
204036aa:	2040                	fld	fs0,128(s0)

204036ac <VE_VARIABLE>:
204036ac:	362c                	fld	fa1,104(a2)
204036ae:	2040                	fld	fs0,128(s0)
204036b0:	0000                	unimp
204036b2:	0000                	unimp
204036b4:	7608                	flw	fa0,40(a2)
204036b6:	7261                	lui	tp,0xffff8
204036b8:	6169                	addi	sp,sp,208
204036ba:	6c62                	flw	fs8,24(sp)
204036bc:	aa65                	j	20403874 <PFA_INIT_USART+0x24>
204036be:	aaaa                	fsd	fa0,336(sp)

204036c0 <XT_VARIABLE>:
204036c0:	06cc                	addi	a1,sp,836
204036c2:	2040                	fld	fs0,128(s0)

204036c4 <PFA_VARIABLE>:
204036c4:	1768                	addi	a0,sp,940
204036c6:	2040                	fld	fs0,128(s0)
204036c8:	32ac                	fld	fa1,96(a3)
204036ca:	2040                	fld	fs0,128(s0)
204036cc:	13f4                	addi	a3,sp,492
204036ce:	2040                	fld	fs0,128(s0)
204036d0:	0004                	0x4
204036d2:	0000                	unimp
204036d4:	1784                	addi	s1,sp,992
204036d6:	2040                	fld	fs0,128(s0)
204036d8:	0018                	0x18
204036da:	2040                	fld	fs0,128(s0)

204036dc <VE_WLSCOPE>:
204036dc:	36b0                	fld	fa2,104(a3)
204036de:	2040                	fld	fs0,128(s0)
204036e0:	00c0                	addi	s0,sp,68
204036e2:	0000                	unimp
204036e4:	736c7707          	0x736c7707
204036e8:	65706f63          	bltu	zero,s7,20403d46 <PFA_TYPE0_LEAVE+0x6>

204036ec <XT_WLSCOPE>:
204036ec:	1318                	addi	a4,sp,416
204036ee:	2040                	fld	fs0,128(s0)

204036f0 <PFA_WLSCOPE>:
204036f0:	0260                	addi	s0,sp,268
204036f2:	8000                	0x8000
204036f4:	3730                	fld	fa2,104(a4)
204036f6:	2040                	fld	fs0,128(s0)
204036f8:	02b0                	addi	a2,sp,328
204036fa:	2040                	fld	fs0,128(s0)
204036fc:	02c8                	addi	a0,sp,324
204036fe:	2040                	fld	fs0,128(s0)

20403700 <VE_TO_BODY>:
20403700:	36e0                	fld	fs0,232(a3)
20403702:	2040                	fld	fs0,128(s0)
20403704:	0000                	unimp
20403706:	0000                	unimp
20403708:	3e05                	jal	20403238 <VE_CHAR+0xc>
2040370a:	6f62                	flw	ft10,24(sp)
2040370c:	7964                	flw	fs1,116(a0)
2040370e:	aaaa                	fsd	fa0,336(sp)

20403710 <XT_TO_BODY>:
20403710:	06cc                	addi	a1,sp,836
20403712:	2040                	fld	fs0,128(s0)

20403714 <PFA_TO_BODY>:
20403714:	0ef0                	addi	a2,sp,860
20403716:	2040                	fld	fs0,128(s0)
20403718:	0018                	0x18
2040371a:	2040                	fld	fs0,128(s0)

2040371c <VE_GET_CURRENT>:
2040371c:	3704                	fld	fs1,40(a4)
2040371e:	2040                	fld	fs0,128(s0)
20403720:	0000                	unimp
20403722:	0000                	unimp
20403724:	7465670b          	0x7465670b
20403728:	632d                	lui	t1,0xb
2040372a:	7275                	lui	tp,0xffffd
2040372c:	6572                	flw	fa0,28(sp)
2040372e:	746e                	flw	fs0,248(sp)

20403730 <XT_GET_CURRENT>:
20403730:	06cc                	addi	a1,sp,836
20403732:	2040                	fld	fs0,128(s0)

20403734 <PFA_GET_CURRENT>:
20403734:	22d8                	fld	fa4,128(a3)
20403736:	2040                	fld	fs0,128(s0)
20403738:	0018                	0x18
2040373a:	2040                	fld	fs0,128(s0)

2040373c <VE_GREATERZERO>:
2040373c:	3720                	fld	fs0,104(a4)
2040373e:	2040                	fld	fs0,128(s0)
20403740:	0000                	unimp
20403742:	0000                	unimp
20403744:	3002                	fld	ft0,32(sp)
20403746:	aa3e                	fsd	fa5,272(sp)

20403748 <XT_GREATERZERO>:
20403748:	06cc                	addi	a1,sp,836
2040374a:	2040                	fld	fs0,128(s0)

2040374c <PFA_GREATERZERO>:
2040374c:	1524                	addi	s1,sp,680
2040374e:	2040                	fld	fs0,128(s0)
20403750:	07bc                	addi	a5,sp,968
20403752:	2040                	fld	fs0,128(s0)
20403754:	0018                	0x18
20403756:	2040                	fld	fs0,128(s0)

20403758 <VE_TO_IN>:
20403758:	3740                	fld	fs0,168(a4)
2040375a:	2040                	fld	fs0,128(s0)
2040375c:	0101                	addi	sp,sp,0
2040375e:	0000                	unimp
20403760:	6e693e03          	0x6e693e03

20403764 <XT_TO_IN>:
20403764:	12d8                	addi	a4,sp,356
20403766:	2040                	fld	fs0,128(s0)

20403768 <PFA_TO_IN>:
20403768:	0264                	addi	s1,sp,268
2040376a:	8000                	0x8000

2040376c <VE_DP>:
2040376c:	375c                	fld	fa5,168(a4)
2040376e:	2040                	fld	fs0,128(s0)
20403770:	00a0                	addi	s0,sp,72
20403772:	0000                	unimp
20403774:	6402                	flw	fs0,0(sp)
20403776:	aa70                	fsd	fa2,208(a2)

20403778 <XT_DP>:
20403778:	1300                	addi	s0,sp,416
2040377a:	2040                	fld	fs0,128(s0)

2040377c <PFA_DP>:
2040377c:	0268                	addi	a0,sp,268
2040377e:	8000                	0x8000
20403780:	0280                	addi	s0,sp,320
20403782:	8000                	0x8000
20403784:	02b0                	addi	a2,sp,328
20403786:	2040                	fld	fs0,128(s0)
20403788:	02c8                	addi	a0,sp,324
2040378a:	2040                	fld	fs0,128(s0)

2040378c <VE_UDEFER_FETCH>:
2040378c:	3770                	fld	fa2,232(a4)
2040378e:	2040                	fld	fs0,128(s0)
20403790:	0000                	unimp
20403792:	0000                	unimp
20403794:	65645507          	0x65645507
20403798:	6566                	flw	fa0,88(sp)
2040379a:	4072                	0x4072

2040379c <XT_UDEFER_FETCH>:
2040379c:	06cc                	addi	a1,sp,836
2040379e:	2040                	fld	fs0,128(s0)

204037a0 <PFA_UDEFER_FETCH>:
204037a0:	136c                	addi	a1,sp,428
204037a2:	2040                	fld	fs0,128(s0)
204037a4:	0e1c                	addi	a5,sp,784
204037a6:	2040                	fld	fs0,128(s0)
204037a8:	02b0                	addi	a2,sp,328
204037aa:	2040                	fld	fs0,128(s0)
204037ac:	0018                	0x18
204037ae:	2040                	fld	fs0,128(s0)

204037b0 <VE_UDEFER_STORE>:
204037b0:	3790                	fld	fa2,40(a5)
204037b2:	2040                	fld	fs0,128(s0)
204037b4:	0000                	unimp
204037b6:	0000                	unimp
204037b8:	65645507          	0x65645507
204037bc:	6566                	flw	fa0,88(sp)
204037be:	2172                	fld	ft2,280(sp)

204037c0 <XT_UDEFER_STORE>:
204037c0:	06cc                	addi	a1,sp,836
204037c2:	2040                	fld	fs0,128(s0)

204037c4 <PFA_UDEFER_STORE>:
204037c4:	136c                	addi	a1,sp,428
204037c6:	2040                	fld	fs0,128(s0)
204037c8:	0e1c                	addi	a5,sp,784
204037ca:	2040                	fld	fs0,128(s0)
204037cc:	02c8                	addi	a0,sp,324
204037ce:	2040                	fld	fs0,128(s0)
204037d0:	0018                	0x18
204037d2:	2040                	fld	fs0,128(s0)

204037d4 <VE_WORDLIST>:
204037d4:	37b4                	fld	fa3,104(a5)
204037d6:	2040                	fld	fs0,128(s0)
204037d8:	0000                	unimp
204037da:	0000                	unimp
204037dc:	7708                	flw	fa0,40(a4)
204037de:	6c64726f          	jal	tp,2044aea4 <FlashEnd+0x3aea4>
204037e2:	7369                	lui	t1,0xffffa
204037e4:	aa74                	fsd	fa3,208(a2)
204037e6:	aaaa                	fsd	fa0,336(sp)

204037e8 <XT_WORDLIST>:
204037e8:	06cc                	addi	a1,sp,836
204037ea:	2040                	fld	fs0,128(s0)

204037ec <PFA_WORDLIST>:
204037ec:	1768                	addi	a0,sp,940
204037ee:	2040                	fld	fs0,128(s0)
204037f0:	13f4                	addi	a3,sp,492
204037f2:	2040                	fld	fs0,128(s0)
204037f4:	0004                	0x4
204037f6:	0000                	unimp
204037f8:	1784                	addi	s1,sp,992
204037fa:	2040                	fld	fs0,128(s0)
204037fc:	0078                	addi	a4,sp,12
204037fe:	2040                	fld	fs0,128(s0)
20403800:	1524                	addi	s1,sp,680
20403802:	2040                	fld	fs0,128(s0)
20403804:	0058                	addi	a4,sp,4
20403806:	2040                	fld	fs0,128(s0)
20403808:	02c8                	addi	a0,sp,324
2040380a:	2040                	fld	fs0,128(s0)
2040380c:	0018                	0x18
2040380e:	2040                	fld	fs0,128(s0)

20403810 <VE_RAM_WORDLIST>:
20403810:	37d8                	fld	fa4,168(a5)
20403812:	2040                	fld	fs0,128(s0)
20403814:	00a0                	addi	s0,sp,72
20403816:	0000                	unimp
20403818:	720c                	flw	fa1,32(a2)
2040381a:	6d61                	lui	s10,0x18
2040381c:	772d                	lui	a4,0xfffeb
2040381e:	6c64726f          	jal	tp,2044aee4 <FlashEnd+0x3aee4>
20403822:	7369                	lui	t1,0xffffa
20403824:	aa74                	fsd	fa3,208(a2)
20403826:	aaaa                	fsd	fa0,336(sp)

20403828 <XT_RAM_WORDLIST>:
20403828:	1300                	addi	s0,sp,416
2040382a:	2040                	fld	fs0,128(s0)

2040382c <PFA_RAM_WORDLIST>:
2040382c:	026c                	addi	a1,sp,268
2040382e:	8000                	0x8000
20403830:	0000                	unimp
20403832:	0000                	unimp
20403834:	02b0                	addi	a2,sp,328
20403836:	2040                	fld	fs0,128(s0)
20403838:	02c8                	addi	a0,sp,324
2040383a:	2040                	fld	fs0,128(s0)

2040383c <VE_INIT_USART>:
2040383c:	3814                	fld	fa3,48(s0)
2040383e:	2040                	fld	fs0,128(s0)
20403840:	0000                	unimp
20403842:	0000                	unimp
20403844:	2b06                	fld	fs6,64(sp)
20403846:	7375                	lui	t1,0xffffd
20403848:	7261                	lui	tp,0xffff8
2040384a:	aa74                	fsd	fa3,208(a2)

2040384c <XT_INIT_USART>:
2040384c:	3850                	fld	fa2,176(s0)
2040384e:	2040                	fld	fs0,128(s0)

20403850 <PFA_INIT_USART>:
20403850:	10012537          	lui	a0,0x10012
20403854:	03850513          	addi	a0,a0,56 # 10012038 <GPIO_IOF_EN>
20403858:	000305b7          	lui	a1,0x30
2040385c:	00b52023          	sw	a1,0(a0)
20403860:	10013537          	lui	a0,0x10013
20403864:	01850513          	addi	a0,a0,24 # 10013018 <UART0_DIV>
20403868:	1a000593          	li	a1,416
2040386c:	00b52023          	sw	a1,0(a0)
20403870:	10013537          	lui	a0,0x10013
20403874:	00850513          	addi	a0,a0,8 # 10013008 <UART0_TXCTRL>
20403878:	00100593          	li	a1,1
2040387c:	00b52023          	sw	a1,0(a0)
20403880:	10013537          	lui	a0,0x10013
20403884:	00c50513          	addi	a0,a0,12 # 1001300c <UART0_RXCTRL>
20403888:	00100593          	li	a1,1
2040388c:	00b52023          	sw	a1,0(a0)
20403890:	e49fc06f          	j	204006d8 <DO_NEXT>

20403894 <VE_SERIAL_LASTCHAR>:
20403894:	3840                	fld	fs0,176(s0)
20403896:	2040                	fld	fs0,128(s0)
20403898:	0101                	addi	sp,sp,0
2040389a:	0000                	unimp
2040389c:	7265730f          	0x7265730f
204038a0:	6169                	addi	sp,sp,208
204038a2:	2d6c                	fld	fa1,216(a0)
204038a4:	616c                	flw	fa1,68(a0)
204038a6:	68637473          	csrrci	s0,0x686,6
204038aa:	7261                	lui	tp,0xffff8

204038ac <XT_SERIAL_LASTCHAR>:
204038ac:	12d8                	addi	a4,sp,356
204038ae:	2040                	fld	fs0,128(s0)

204038b0 <PFA_SERIAL_LASTCHAR>:
204038b0:	0270                	addi	a2,sp,268
204038b2:	8000                	0x8000

204038b4 <VE_SERIAL_KEY>:
204038b4:	3898                	fld	fa4,48(s1)
204038b6:	2040                	fld	fs0,128(s0)
204038b8:	0000                	unimp
204038ba:	0000                	unimp
204038bc:	730a                	flw	ft6,160(sp)
204038be:	7265                	lui	tp,0xffff9
204038c0:	6169                	addi	sp,sp,208
204038c2:	2d6c                	fld	fa1,216(a0)
204038c4:	aa79656b          	0xaa79656b

204038c8 <XT_SERIAL_KEY>:
204038c8:	38cc                	fld	fa1,176(s1)
204038ca:	2040                	fld	fs0,128(s0)

204038cc <PFA_SERIAL_KEY>:
204038cc:	ffc20213          	addi	tp,tp,-4 # ffff8ffc <Flag_invisible+0xffff8ffd>
204038d0:	00322023          	sw	gp,0(tp) # 0 <Flag_visible>
204038d4:	00000317          	auipc	t1,0x0
204038d8:	fdc30313          	addi	t1,t1,-36 # 204038b0 <PFA_SERIAL_LASTCHAR>
204038dc:	00032303          	lw	t1,0(t1)
204038e0:	00032183          	lw	gp,0(t1)
204038e4:	fff00293          	li	t0,-1
204038e8:	00532023          	sw	t0,0(t1)
204038ec:	dedfc06f          	j	204006d8 <DO_NEXT>

204038f0 <VE_SERIAL_KEYQ>:
204038f0:	38b8                	fld	fa4,112(s1)
204038f2:	2040                	fld	fs0,128(s0)
204038f4:	0000                	unimp
204038f6:	0000                	unimp
204038f8:	7265730b          	0x7265730b
204038fc:	6169                	addi	sp,sp,208
204038fe:	2d6c                	fld	fa1,216(a0)
20403900:	3f79656b          	0x3f79656b

20403904 <XT_SERIAL_KEYQ>:
20403904:	3908                	fld	fa0,48(a0)
20403906:	2040                	fld	fs0,128(s0)

20403908 <PFA_SERIAL_KEYQ>:
20403908:	ffc20213          	addi	tp,tp,-4 # fffffffc <Flag_invisible+0xfffffffd>
2040390c:	00322023          	sw	gp,0(tp) # 0 <Flag_visible>
20403910:	00000317          	auipc	t1,0x0
20403914:	fa030313          	addi	t1,t1,-96 # 204038b0 <PFA_SERIAL_LASTCHAR>
20403918:	00032283          	lw	t0,0(t1)
2040391c:	41f2d193          	srai	gp,t0,0x1f
20403920:	02018263          	beqz	gp,20403944 <PFA_SERIAL_KEYQ+0x3c>
20403924:	10013337          	lui	t1,0x10013
20403928:	00430313          	addi	t1,t1,4 # 10013004 <UART0_RXDATA>
2040392c:	00032283          	lw	t0,0(t1)
20403930:	00000317          	auipc	t1,0x0
20403934:	f8030313          	addi	t1,t1,-128 # 204038b0 <PFA_SERIAL_LASTCHAR>
20403938:	00032303          	lw	t1,0(t1)
2040393c:	00532023          	sw	t0,0(t1)
20403940:	41f2d193          	srai	gp,t0,0x1f
20403944:	fff1c193          	not	gp,gp
20403948:	d91fc06f          	j	204006d8 <DO_NEXT>

2040394c <VE_SERIAL_EMIT>:
2040394c:	38f4                	fld	fa3,240(s1)
2040394e:	2040                	fld	fs0,128(s0)
20403950:	0000                	unimp
20403952:	0000                	unimp
20403954:	7265730b          	0x7265730b
20403958:	6169                	addi	sp,sp,208
2040395a:	2d6c                	fld	fa1,216(a0)
2040395c:	6d65                	lui	s10,0x19
2040395e:	7469                	lui	s0,0xffffa

20403960 <XT_SERIAL_EMIT>:
20403960:	3964                	fld	fs1,240(a0)
20403962:	2040                	fld	fs0,128(s0)

20403964 <PFA_SERIAL_EMIT>:
20403964:	100132b7          	lui	t0,0x10013
20403968:	0002a283          	lw	t0,0(t0) # 10013000 <UART0BASE>
2040396c:	fe02cce3          	bltz	t0,20403964 <PFA_SERIAL_EMIT>
20403970:	10013337          	lui	t1,0x10013
20403974:	00332023          	sw	gp,0(t1) # 10013000 <UART0BASE>
20403978:	00022183          	lw	gp,0(tp) # 0 <Flag_visible>
2040397c:	00420213          	addi	tp,tp,4 # 4 <USER_FOLLOWER>
20403980:	d59fc06f          	j	204006d8 <DO_NEXT>

20403984 <VE_SERIAL_EMITQ>:
20403984:	3950                	fld	fa2,176(a0)
20403986:	2040                	fld	fs0,128(s0)
20403988:	0000                	unimp
2040398a:	0000                	unimp
2040398c:	730c                	flw	fa1,32(a4)
2040398e:	7265                	lui	tp,0xffff9
20403990:	6169                	addi	sp,sp,208
20403992:	2d6c                	fld	fa1,216(a0)
20403994:	6d65                	lui	s10,0x19
20403996:	7469                	lui	s0,0xffffa
20403998:	aaaaaa3f  	0x204039a0aaaaaa3f

2040399c <XT_SERIAL_EMITQ>:
2040399c:	39a0                	fld	fs0,112(a1)
2040399e:	2040                	fld	fs0,128(s0)

204039a0 <PFA_SERIAL_EMITQ>:
204039a0:	ffc20213          	addi	tp,tp,-4 # ffff8ffc <Flag_invisible+0xffff8ffd>
204039a4:	00322023          	sw	gp,0(tp) # 0 <Flag_visible>
204039a8:	100132b7          	lui	t0,0x10013
204039ac:	0002a283          	lw	t0,0(t0) # 10013000 <UART0BASE>
204039b0:	41f2d293          	srai	t0,t0,0x1f
204039b4:	fff2c193          	not	gp,t0
204039b8:	d21fc06f          	j	204006d8 <DO_NEXT>

204039bc <VE_STORE_FLASH>:
204039bc:	3988                	fld	fa0,48(a1)
204039be:	2040                	fld	fs0,128(s0)
204039c0:	0000                	unimp
204039c2:	0000                	unimp
204039c4:	2102                	fld	ft2,0(sp)
204039c6:	aa69                	j	20403b60 <VE_MAGENTA>

204039c8 <XT_STORE_FLASH>:
204039c8:	06cc                	addi	a1,sp,836
204039ca:	2040                	fld	fs0,128(s0)

204039cc <PFA_STORE_FLASH>:
204039cc:	13f4                	addi	a3,sp,492
204039ce:	2040                	fld	fs0,128(s0)
204039d0:	ffec                	fsw	fa1,124(a5)
204039d2:	ffff                	0xffff
204039d4:	1dac                	addi	a1,sp,760
204039d6:	2040                	fld	fs0,128(s0)
204039d8:	0018                	0x18
204039da:	2040                	fld	fs0,128(s0)

204039dc <VE_CSTORE_FLASH>:
204039dc:	39c0                	fld	fs0,176(a1)
204039de:	2040                	fld	fs0,128(s0)
204039e0:	0000                	unimp
204039e2:	0000                	unimp
204039e4:	69216303          	0x69216303

204039e8 <XT_CSTORE_FLASH>:
204039e8:	06cc                	addi	a1,sp,836
204039ea:	2040                	fld	fs0,128(s0)

204039ec <PFA_CSTORE_FLASH>:
204039ec:	13f4                	addi	a3,sp,492
204039ee:	2040                	fld	fs0,128(s0)
204039f0:	ffec                	fsw	fa1,124(a5)
204039f2:	ffff                	0xffff
204039f4:	1dac                	addi	a1,sp,760
204039f6:	2040                	fld	fs0,128(s0)
204039f8:	0018                	0x18
204039fa:	2040                	fld	fs0,128(s0)

204039fc <VE_INFLASHQ>:
204039fc:	39e0                	fld	fs0,240(a1)
204039fe:	2040                	fld	fs0,128(s0)
20403a00:	0000                	unimp
20403a02:	0000                	unimp
20403a04:	6908                	flw	fa0,16(a0)
20403a06:	666e                	flw	fa2,216(sp)
20403a08:	616c                	flw	fa1,68(a0)
20403a0a:	aa3f6873          	csrrsi	a6,0xaa3,30
20403a0e:	aaaa                	fsd	fa0,336(sp)

20403a10 <XT_INFLASHQ>:
20403a10:	06cc                	addi	a1,sp,836
20403a12:	2040                	fld	fs0,128(s0)

20403a14 <PFA_INFLASHQ>:
20403a14:	15a4                	addi	s1,sp,744
20403a16:	2040                	fld	fs0,128(s0)
20403a18:	0018                	0x18
20403a1a:	2040                	fld	fs0,128(s0)

20403a1c <VE_CACHEFLUSH>:
20403a1c:	3a00                	fld	fs0,48(a2)
20403a1e:	2040                	fld	fs0,128(s0)
20403a20:	0000                	unimp
20403a22:	0000                	unimp
20403a24:	630a                	flw	ft6,128(sp)
20403a26:	6361                	lui	t1,0x18
20403a28:	6568                	flw	fa0,76(a0)
20403a2a:	6c66                	flw	fs8,88(sp)
20403a2c:	7375                	lui	t1,0xffffd
20403a2e:	aa68                	fsd	fa0,208(a2)

20403a30 <XT_CACHEFLUSH>:
20403a30:	06cc                	addi	a1,sp,836
20403a32:	2040                	fld	fs0,128(s0)

20403a34 <PFA_CACHEFLUSH>:
20403a34:	0018                	0x18
20403a36:	2040                	fld	fs0,128(s0)

20403a38 <VE_LED_INIT>:
20403a38:	3a20                	fld	fs0,112(a2)
20403a3a:	2040                	fld	fs0,128(s0)
20403a3c:	0000                	unimp
20403a3e:	0000                	unimp
20403a40:	6c08                	flw	fa0,24(s0)
20403a42:	6465                	lui	s0,0x19
20403a44:	692d                	lui	s2,0xb
20403a46:	696e                	flw	fs2,216(sp)
20403a48:	aa74                	fsd	fa3,208(a2)
20403a4a:	aaaa                	fsd	fa0,336(sp)

20403a4c <XT_LED_INIT>:
20403a4c:	3a50                	fld	fa2,176(a2)
20403a4e:	2040                	fld	fs0,128(s0)

20403a50 <PFA_LED_INIT>:
20403a50:	00680a37          	lui	s4,0x680
20403a54:	10012ab7          	lui	s5,0x10012
20403a58:	008a8a93          	addi	s5,s5,8 # 10012008 <GPIO_OUTPUT_EN>
20403a5c:	014aa023          	sw	s4,0(s5)
20403a60:	00680a37          	lui	s4,0x680
20403a64:	10012ab7          	lui	s5,0x10012
20403a68:	00ca8a93          	addi	s5,s5,12 # 1001200c <GPIO_PORT>
20403a6c:	014aa023          	sw	s4,0(s5)
20403a70:	c69fc06f          	j	204006d8 <DO_NEXT>

20403a74 <VE_RED>:
20403a74:	3a3c                	fld	fa5,112(a2)
20403a76:	2040                	fld	fs0,128(s0)
20403a78:	0000                	unimp
20403a7a:	0000                	unimp
20403a7c:	64657203          	0x64657203

20403a80 <XT_RED>:
20403a80:	3a84                	fld	fs1,48(a3)
20403a82:	2040                	fld	fs0,128(s0)

20403a84 <PFA_RED>:
20403a84:	00280a37          	lui	s4,0x280
20403a88:	10012ab7          	lui	s5,0x10012
20403a8c:	00ca8a93          	addi	s5,s5,12 # 1001200c <GPIO_PORT>
20403a90:	014aa023          	sw	s4,0(s5)
20403a94:	c45fc06f          	j	204006d8 <DO_NEXT>

20403a98 <VE_GREEN>:
20403a98:	3a78                	fld	fa4,240(a2)
20403a9a:	2040                	fld	fs0,128(s0)
20403a9c:	0000                	unimp
20403a9e:	0000                	unimp
20403aa0:	6705                	lui	a4,0x1
20403aa2:	6572                	flw	fa0,28(sp)
20403aa4:	6e65                	lui	t3,0x19
20403aa6:	aaaa                	fsd	fa0,336(sp)

20403aa8 <XT_GREEN>:
20403aa8:	3aac                	fld	fa1,112(a3)
20403aaa:	2040                	fld	fs0,128(s0)

20403aac <PFA_GREEN>:
20403aac:	00600a37          	lui	s4,0x600
20403ab0:	10012ab7          	lui	s5,0x10012
20403ab4:	00ca8a93          	addi	s5,s5,12 # 1001200c <GPIO_PORT>
20403ab8:	014aa023          	sw	s4,0(s5)
20403abc:	c1dfc06f          	j	204006d8 <DO_NEXT>

20403ac0 <VE_BLUE>:
20403ac0:	3a9c                	fld	fa5,48(a3)
20403ac2:	2040                	fld	fs0,128(s0)
20403ac4:	0000                	unimp
20403ac6:	0000                	unimp
20403ac8:	6204                	flw	fs1,0(a2)
20403aca:	756c                	flw	fa1,108(a0)
20403acc:	aa65                	j	20403c84 <PFA_REV_INFO+0x8>
20403ace:	aaaa                	fsd	fa0,336(sp)

20403ad0 <XT_BLUE>:
20403ad0:	3ad4                	fld	fa3,176(a3)
20403ad2:	2040                	fld	fs0,128(s0)

20403ad4 <PFA_BLUE>:
20403ad4:	00480a37          	lui	s4,0x480
20403ad8:	10012ab7          	lui	s5,0x10012
20403adc:	00ca8a93          	addi	s5,s5,12 # 1001200c <GPIO_PORT>
20403ae0:	014aa023          	sw	s4,0(s5)
20403ae4:	bf5fc06f          	j	204006d8 <DO_NEXT>

20403ae8 <VE_WHITE>:
20403ae8:	3ac4                	fld	fs1,176(a3)
20403aea:	2040                	fld	fs0,128(s0)
20403aec:	0000                	unimp
20403aee:	0000                	unimp
20403af0:	7705                	lui	a4,0xfffe1
20403af2:	6968                	flw	fa0,84(a0)
20403af4:	6574                	flw	fa3,76(a0)
20403af6:	aaaa                	fsd	fa0,336(sp)

20403af8 <XT_WHITE>:
20403af8:	3afc                	fld	fa5,240(a3)
20403afa:	2040                	fld	fs0,128(s0)

20403afc <PFA_WHITE>:
20403afc:	00000a13          	li	s4,0
20403b00:	10012ab7          	lui	s5,0x10012
20403b04:	00ca8a93          	addi	s5,s5,12 # 1001200c <GPIO_PORT>
20403b08:	014aa023          	sw	s4,0(s5)
20403b0c:	bcdfc06f          	j	204006d8 <DO_NEXT>

20403b10 <VE_YELLOW>:
20403b10:	3aec                	fld	fa1,240(a3)
20403b12:	2040                	fld	fs0,128(s0)
20403b14:	0000                	unimp
20403b16:	0000                	unimp
20403b18:	7906                	flw	fs2,96(sp)
20403b1a:	6c65                	lui	s8,0x19
20403b1c:	6f6c                	flw	fa1,92(a4)
20403b1e:	          	0x3b24aa77

20403b20 <XT_YELLOW>:
20403b20:	3b24                	fld	fs1,112(a4)
20403b22:	2040                	fld	fs0,128(s0)

20403b24 <PFA_YELLOW>:
20403b24:	00200a37          	lui	s4,0x200
20403b28:	10012ab7          	lui	s5,0x10012
20403b2c:	00ca8a93          	addi	s5,s5,12 # 1001200c <GPIO_PORT>
20403b30:	014aa023          	sw	s4,0(s5)
20403b34:	ba5fc06f          	j	204006d8 <DO_NEXT>

20403b38 <VE_CYAN>:
20403b38:	3b14                	fld	fa3,48(a4)
20403b3a:	2040                	fld	fs0,128(s0)
20403b3c:	0000                	unimp
20403b3e:	0000                	unimp
20403b40:	6304                	flw	fs1,0(a4)
20403b42:	6179                	addi	sp,sp,464
20403b44:	aa6e                	fsd	fs11,272(sp)
20403b46:	aaaa                	fsd	fa0,336(sp)

20403b48 <XT_CYAN>:
20403b48:	3b4c                	fld	fa1,176(a4)
20403b4a:	2040                	fld	fs0,128(s0)

20403b4c <PFA_CYAN>:
20403b4c:	00400a37          	lui	s4,0x400
20403b50:	10012ab7          	lui	s5,0x10012
20403b54:	00ca8a93          	addi	s5,s5,12 # 1001200c <GPIO_PORT>
20403b58:	014aa023          	sw	s4,0(s5)
20403b5c:	b7dfc06f          	j	204006d8 <DO_NEXT>

20403b60 <VE_MAGENTA>:
20403b60:	3b3c                	fld	fa5,112(a4)
20403b62:	2040                	fld	fs0,128(s0)
20403b64:	0000                	unimp
20403b66:	0000                	unimp
20403b68:	67616d07          	0x67616d07
20403b6c:	6e65                	lui	t3,0x19
20403b6e:	6174                	flw	fa3,68(a0)

20403b70 <XT_MAGENTA>:
20403b70:	3b74                	fld	fa3,240(a4)
20403b72:	2040                	fld	fs0,128(s0)

20403b74 <PFA_MAGENTA>:
20403b74:	00080a37          	lui	s4,0x80
20403b78:	10012ab7          	lui	s5,0x10012
20403b7c:	00ca8a93          	addi	s5,s5,12 # 1001200c <GPIO_PORT>
20403b80:	014aa023          	sw	s4,0(s5)
20403b84:	b55fc06f          	j	204006d8 <DO_NEXT>

20403b88 <VE_BLACK>:
20403b88:	3b64                	fld	fs1,240(a4)
20403b8a:	2040                	fld	fs0,128(s0)
20403b8c:	0000                	unimp
20403b8e:	0000                	unimp
20403b90:	6205                	lui	tp,0x1
20403b92:	616c                	flw	fa1,68(a0)
20403b94:	aaaa6b63          	bltu	s4,a0,20402e4a <VE_WORDS+0xe>

20403b98 <XT_BLACK>:
20403b98:	3b9c                	fld	fa5,48(a5)
20403b9a:	2040                	fld	fs0,128(s0)

20403b9c <PFA_BLACK>:
20403b9c:	00680a37          	lui	s4,0x680
20403ba0:	10012ab7          	lui	s5,0x10012
20403ba4:	00ca8a93          	addi	s5,s5,12 # 1001200c <GPIO_PORT>
20403ba8:	014aa023          	sw	s4,0(s5)
20403bac:	b2dfc06f          	j	204006d8 <DO_NEXT>

20403bb0 <VE_MTIME>:
20403bb0:	3b8c                	fld	fa1,48(a5)
20403bb2:	2040                	fld	fs0,128(s0)
20403bb4:	0000                	unimp
20403bb6:	0000                	unimp
20403bb8:	6d05                	lui	s10,0x1
20403bba:	6974                	flw	fa3,84(a0)
20403bbc:	656d                	lui	a0,0x1b
20403bbe:	aaaa                	fsd	fa0,336(sp)

20403bc0 <XT_MTIME>:
20403bc0:	06cc                	addi	a1,sp,836
20403bc2:	2040                	fld	fs0,128(s0)

20403bc4 <PFA_MTIME>:
20403bc4:	13f4                	addi	a3,sp,492
20403bc6:	2040                	fld	fs0,128(s0)
20403bc8:	bff8                	fsd	fa4,248(a5)
20403bca:	0200                	addi	s0,sp,256
20403bcc:	02b0                	addi	a2,sp,328
20403bce:	2040                	fld	fs0,128(s0)
20403bd0:	0018                	0x18
20403bd2:	2040                	fld	fs0,128(s0)

20403bd4 <VE_MTIMECMP>:
20403bd4:	3bb4                	fld	fa3,112(a5)
20403bd6:	2040                	fld	fs0,128(s0)
20403bd8:	0000                	unimp
20403bda:	0000                	unimp
20403bdc:	6d08                	flw	fa0,24(a0)
20403bde:	6974                	flw	fa3,84(a0)
20403be0:	656d                	lui	a0,0x1b
20403be2:	aa706d63          	bltu	zero,t2,20402e9c <PFA_GRESOLVE+0xc>
20403be6:	aaaa                	fsd	fa0,336(sp)

20403be8 <XT_MTIMECMP>:
20403be8:	06cc                	addi	a1,sp,836
20403bea:	2040                	fld	fs0,128(s0)

20403bec <PFA_MTIMECMP>:
20403bec:	13f4                	addi	a3,sp,492
20403bee:	2040                	fld	fs0,128(s0)
20403bf0:	4000                	lw	s0,0(s0)
20403bf2:	0200                	addi	s0,sp,256
20403bf4:	0018                	0x18
20403bf6:	2040                	fld	fs0,128(s0)

20403bf8 <VE_ENV_BOARD>:
20403bf8:	0008                	0x8
20403bfa:	2040                	fld	fs0,128(s0)
20403bfc:	0000                	unimp
20403bfe:	0000                	unimp
20403c00:	6205                	lui	tp,0x1
20403c02:	6472616f          	jal	sp,2042aa48 <FlashEnd+0x1aa48>
20403c06:	f0f0                	fsw	fa2,100(s1)

20403c08 <XT_ENV_BOARD>:
20403c08:	06cc                	addi	a1,sp,836
20403c0a:	2040                	fld	fs0,128(s0)

20403c0c <PFA_ENV_BOARD>:
20403c0c:	12b4                	addi	a3,sp,360
20403c0e:	2040                	fld	fs0,128(s0)
20403c10:	530e                	lw	t1,224(sp)
20403c12:	4669                	li	a2,26
20403c14:	7669                	lui	a2,0xffffa
20403c16:	2065                	jal	20403cbe <PFA_APPLTURNKEY+0x16>
20403c18:	6948                	flw	fa0,20(a0)
20403c1a:	6966                	flw	fs2,88(sp)
20403c1c:	6576                	flw	fa0,92(sp)
20403c1e:	0f31                	addi	t5,t5,12
20403c20:	0018                	0x18
20403c22:	2040                	fld	fs0,128(s0)

20403c24 <VE_BUILD_INFO>:
20403c24:	3bd8                	fld	fa4,176(a5)
20403c26:	2040                	fld	fs0,128(s0)
20403c28:	0000                	unimp
20403c2a:	0000                	unimp
20403c2c:	620a                	flw	ft4,128(sp)
20403c2e:	6975                	lui	s2,0x1d
20403c30:	646c                	flw	fa1,76(s0)
20403c32:	692d                	lui	s2,0xb
20403c34:	666e                	flw	fa2,216(sp)
20403c36:	          	jal	s4,204cdca2 <FlashEnd+0xbdca2>

20403c38 <XT_BUILD_INFO>:
20403c38:	06cc                	addi	a1,sp,836
20403c3a:	2040                	fld	fs0,128(s0)

20403c3c <PFA_BUILD_INFO>:
20403c3c:	12b4                	addi	a3,sp,360
20403c3e:	2040                	fld	fs0,128(s0)
20403c40:	201e                	fld	ft0,448(sp)
20403c42:	206e7553          	0x206e7553
20403c46:	2074634f          	fnmadd.s	ft6,fs0,ft7,ft4,unknown
20403c4a:	3831                	jal	20403466 <PFA_HEADER1+0xa>
20403c4c:	3120                	fld	fs0,96(a0)
20403c4e:	3a38                	fld	fa4,112(a2)
20403c50:	3232                	fld	ft4,296(sp)
20403c52:	303a                	fld	ft0,424(sp)
20403c54:	2032                	fld	ft0,264(sp)
20403c56:	54534543          	0x54534543
20403c5a:	3220                	fld	fs0,96(a2)
20403c5c:	3230                	fld	fa2,96(a2)
20403c5e:	0f30                	addi	a2,sp,920
20403c60:	0018                	0x18
20403c62:	2040                	fld	fs0,128(s0)

20403c64 <VE_REV_INFO>:
20403c64:	3c28                	fld	fa0,120(s0)
20403c66:	2040                	fld	fs0,128(s0)
20403c68:	0000                	unimp
20403c6a:	0000                	unimp
20403c6c:	7208                	flw	fa0,32(a2)
20403c6e:	7665                	lui	a2,0xffff9
20403c70:	692d                	lui	s2,0xb
20403c72:	666e                	flw	fa2,216(sp)
20403c74:	aaaaaa6f          	jal	s4,203adf1e <UART0_DIV+0x1039af06>

20403c78 <XT_REV_INFO>:
20403c78:	06cc                	addi	a1,sp,836
20403c7a:	2040                	fld	fs0,128(s0)

20403c7c <PFA_REV_INFO>:
20403c7c:	12b4                	addi	a3,sp,360
20403c7e:	2040                	fld	fs0,128(s0)
20403c80:	3204                	fld	fs1,32(a2)
20403c82:	3534                	fld	fa3,104(a0)
20403c84:	0f34                	addi	a3,sp,920
20403c86:	00180f0f          	0x180f0f
20403c8a:	2040                	fld	fs0,128(s0)

20403c8c <VE_APPLTURNKEY>:
20403c8c:	3c68                	fld	fa0,248(s0)
20403c8e:	2040                	fld	fs0,128(s0)
20403c90:	0000                	unimp
20403c92:	0000                	unimp
20403c94:	680e                	flw	fa6,192(sp)
20403c96:	6669                	lui	a2,0x1a
20403c98:	7669                	lui	a2,0xffffa
20403c9a:	2d65                	jal	20404352 <PFA_FORTH_WORDLIST+0x106>
20403c9c:	7574                	flw	fa3,108(a0)
20403c9e:	6e72                	flw	ft8,28(sp)
20403ca0:	aa79656b          	0xaa79656b

20403ca4 <XT_APPLTURNKEY>:
20403ca4:	06cc                	addi	a1,sp,836
20403ca6:	2040                	fld	fs0,128(s0)

20403ca8 <PFA_APPLTURNKEY>:
20403ca8:	3a4c                	fld	fa1,176(a2)
20403caa:	2040                	fld	fs0,128(s0)
20403cac:	16f8                	addi	a4,sp,876
20403cae:	2040                	fld	fs0,128(s0)
20403cb0:	384c                	fld	fa1,176(s0)
20403cb2:	2040                	fld	fs0,128(s0)
20403cb4:	2c84                	fld	fs1,24(s1)
20403cb6:	2040                	fld	fs0,128(s0)
20403cb8:	1654                	addi	a3,sp,804
20403cba:	2040                	fld	fs0,128(s0)
20403cbc:	3c08                	fld	fa0,56(s0)
20403cbe:	2040                	fld	fs0,128(s0)
20403cc0:	2d18                	fld	fa4,24(a0)
20403cc2:	2040                	fld	fs0,128(s0)
20403cc4:	1610                	addi	a2,sp,800
20403cc6:	2040                	fld	fs0,128(s0)
20403cc8:	3c38                	fld	fa4,120(s0)
20403cca:	2040                	fld	fs0,128(s0)
20403ccc:	2d18                	fld	fa4,24(a0)
20403cce:	2040                	fld	fs0,128(s0)
20403cd0:	1654                	addi	a3,sp,804
20403cd2:	2040                	fld	fs0,128(s0)
20403cd4:	3c78                	fld	fa4,248(s0)
20403cd6:	2040                	fld	fs0,128(s0)
20403cd8:	2d18                	fld	fa4,24(a0)
20403cda:	2040                	fld	fs0,128(s0)
20403cdc:	0018                	0x18
20403cde:	2040                	fld	fs0,128(s0)

20403ce0 <VE_TYPE0>:
20403ce0:	3c90                	fld	fa2,56(s1)
20403ce2:	2040                	fld	fs0,128(s0)
20403ce4:	0000                	unimp
20403ce6:	0000                	unimp
20403ce8:	7405                	lui	s0,0xfffe1
20403cea:	7079                	c.lui	zero,0xffffe
20403cec:	3065                	jal	20403594 <XT_REVEAL>
20403cee:	aaaa                	fsd	fa0,336(sp)

20403cf0 <XT_TYPE0>:
20403cf0:	06cc                	addi	a1,sp,836
20403cf2:	2040                	fld	fs0,128(s0)

20403cf4 <PFA_TYPE0>:
20403cf4:	0078                	addi	a4,sp,12
20403cf6:	2040                	fld	fs0,128(s0)
20403cf8:	069c                	addi	a5,sp,832
20403cfa:	2040                	fld	fs0,128(s0)
20403cfc:	0078                	addi	a4,sp,12
20403cfe:	2040                	fld	fs0,128(s0)
20403d00:	0718                	addi	a4,sp,896
20403d02:	2040                	fld	fs0,128(s0)
20403d04:	13d8                	addi	a4,sp,484
20403d06:	2040                	fld	fs0,128(s0)
20403d08:	3d40                	fld	fs0,184(a0)
20403d0a:	2040                	fld	fs0,128(s0)
20403d0c:	0078                	addi	a4,sp,12
20403d0e:	2040                	fld	fs0,128(s0)
20403d10:	13f4                	addi	a3,sp,492
20403d12:	2040                	fld	fs0,128(s0)
20403d14:	000a                	c.slli	zero,0x2
20403d16:	0000                	unimp
20403d18:	08a4                	addi	s1,sp,88
20403d1a:	2040                	fld	fs0,128(s0)
20403d1c:	13d8                	addi	a4,sp,484
20403d1e:	2040                	fld	fs0,128(s0)
20403d20:	3d30                	fld	fa2,120(a0)
20403d22:	2040                	fld	fs0,128(s0)
20403d24:	13f4                	addi	a3,sp,492
20403d26:	2040                	fld	fs0,128(s0)
20403d28:	000d                	c.nop	3
20403d2a:	0000                	unimp
20403d2c:	10ec                	addi	a1,sp,108
20403d2e:	2040                	fld	fs0,128(s0)

20403d30 <PFA_TYPE0_1>:
20403d30:	10ec                	addi	a1,sp,108
20403d32:	2040                	fld	fs0,128(s0)
20403d34:	0e5c                	addi	a5,sp,788
20403d36:	2040                	fld	fs0,128(s0)
20403d38:	13cc                	addi	a1,sp,484
20403d3a:	2040                	fld	fs0,128(s0)
20403d3c:	3cf4                	fld	fa3,248(s1)
20403d3e:	2040                	fld	fs0,128(s0)

20403d40 <PFA_TYPE0_LEAVE>:
20403d40:	09c4                	addi	s1,sp,212
20403d42:	2040                	fld	fs0,128(s0)
20403d44:	0018                	0x18
20403d46:	2040                	fld	fs0,128(s0)

20403d48 <VE_QASCII>:
20403d48:	3ce4                	fld	fs1,248(s1)
20403d4a:	2040                	fld	fs0,128(s0)
20403d4c:	0000                	unimp
20403d4e:	0000                	unimp
20403d50:	3f06                	fld	ft10,96(sp)
20403d52:	7361                	lui	t1,0xffff8
20403d54:	aa696963          	bltu	s2,t1,20403006 <XT_LP+0x2>

20403d58 <XT_QASCII>:
20403d58:	06cc                	addi	a1,sp,836
20403d5a:	2040                	fld	fs0,128(s0)

20403d5c <PFA_QASCII>:
20403d5c:	0078                	addi	a4,sp,12
20403d5e:	2040                	fld	fs0,128(s0)
20403d60:	13f4                	addi	a3,sp,492
20403d62:	2040                	fld	fs0,128(s0)
20403d64:	0020                	addi	s0,sp,8
20403d66:	0000                	unimp
20403d68:	0794                	addi	a3,sp,960
20403d6a:	2040                	fld	fs0,128(s0)
20403d6c:	13d8                	addi	a4,sp,484
20403d6e:	2040                	fld	fs0,128(s0)
20403d70:	3d88                	fld	fa0,56(a1)
20403d72:	2040                	fld	fs0,128(s0)
20403d74:	0038                	addi	a4,sp,8
20403d76:	2040                	fld	fs0,128(s0)
20403d78:	13f4                	addi	a3,sp,492
20403d7a:	2040                	fld	fs0,128(s0)
20403d7c:	002e                	c.slli	zero,0xb
20403d7e:	0000                	unimp
20403d80:	13cc                	addi	a1,sp,484
20403d82:	2040                	fld	fs0,128(s0)
20403d84:	3dac                	fld	fa1,120(a1)
20403d86:	2040                	fld	fs0,128(s0)

20403d88 <PFA_QASCII1>:
20403d88:	0078                	addi	a4,sp,12
20403d8a:	2040                	fld	fs0,128(s0)
20403d8c:	13f4                	addi	a3,sp,492
20403d8e:	2040                	fld	fs0,128(s0)
20403d90:	007e                	c.slli	zero,0x1f
20403d92:	0000                	unimp
20403d94:	07bc                	addi	a5,sp,968
20403d96:	2040                	fld	fs0,128(s0)
20403d98:	13d8                	addi	a4,sp,484
20403d9a:	2040                	fld	fs0,128(s0)
20403d9c:	3dac                	fld	fa1,120(a1)
20403d9e:	2040                	fld	fs0,128(s0)
20403da0:	0038                	addi	a4,sp,8
20403da2:	2040                	fld	fs0,128(s0)
20403da4:	13f4                	addi	a3,sp,492
20403da6:	2040                	fld	fs0,128(s0)
20403da8:	002e                	c.slli	zero,0xb
	...

20403dac <PFA_QASCII2>:
20403dac:	0018                	0x18
20403dae:	2040                	fld	fs0,128(s0)

20403db0 <VE_DOT2HEX>:
20403db0:	3d4c                	fld	fa1,184(a0)
20403db2:	2040                	fld	fs0,128(s0)
20403db4:	0000                	unimp
20403db6:	0000                	unimp
20403db8:	2e05                	jal	204040e8 <PFA_CSR_mcause+0x8>
20403dba:	6832                	flw	fa6,12(sp)
20403dbc:	7865                	lui	a6,0xffff9
20403dbe:	aaaa                	fsd	fa0,336(sp)

20403dc0 <XT_DOT2HEX>:
20403dc0:	06cc                	addi	a1,sp,836
20403dc2:	2040                	fld	fs0,128(s0)

20403dc4 <PFA_DOT2HEX>:
20403dc4:	0e08                	addi	a0,sp,784
20403dc6:	2040                	fld	fs0,128(s0)
20403dc8:	02b0                	addi	a2,sp,328
20403dca:	2040                	fld	fs0,128(s0)
20403dcc:	0194                	addi	a3,sp,192
20403dce:	2040                	fld	fs0,128(s0)
20403dd0:	171c                	addi	a5,sp,928
20403dd2:	2040                	fld	fs0,128(s0)
20403dd4:	0c28                	addi	a0,sp,536
20403dd6:	2040                	fld	fs0,128(s0)
20403dd8:	17fc                	addi	a5,sp,1004
20403dda:	2040                	fld	fs0,128(s0)
20403ddc:	181c                	addi	a5,sp,48
20403dde:	2040                	fld	fs0,128(s0)
20403de0:	181c                	addi	a5,sp,48
20403de2:	2040                	fld	fs0,128(s0)
20403de4:	18a0                	addi	s0,sp,120
20403de6:	2040                	fld	fs0,128(s0)
20403de8:	2d18                	fld	fa4,24(a0)
20403dea:	2040                	fld	fs0,128(s0)
20403dec:	01b0                	addi	a2,sp,200
20403dee:	2040                	fld	fs0,128(s0)
20403df0:	0e08                	addi	a0,sp,784
20403df2:	2040                	fld	fs0,128(s0)
20403df4:	02c8                	addi	a0,sp,324
20403df6:	2040                	fld	fs0,128(s0)
20403df8:	0018                	0x18
20403dfa:	2040                	fld	fs0,128(s0)

20403dfc <VE_DOT4HEX>:
20403dfc:	3db4                	fld	fa3,120(a1)
20403dfe:	2040                	fld	fs0,128(s0)
20403e00:	0000                	unimp
20403e02:	0000                	unimp
20403e04:	2e05                	jal	20404134 <PFA_CSR_mcycleh+0xc>
20403e06:	6834                	flw	fa3,80(s0)
20403e08:	7865                	lui	a6,0xffff9
20403e0a:	aaaa                	fsd	fa0,336(sp)

20403e0c <XT_DOT4HEX>:
20403e0c:	06cc                	addi	a1,sp,836
20403e0e:	2040                	fld	fs0,128(s0)

20403e10 <PFA_DOT4HEX>:
20403e10:	0e08                	addi	a0,sp,784
20403e12:	2040                	fld	fs0,128(s0)
20403e14:	02b0                	addi	a2,sp,328
20403e16:	2040                	fld	fs0,128(s0)
20403e18:	0194                	addi	a3,sp,192
20403e1a:	2040                	fld	fs0,128(s0)
20403e1c:	171c                	addi	a5,sp,928
20403e1e:	2040                	fld	fs0,128(s0)
20403e20:	0c28                	addi	a0,sp,536
20403e22:	2040                	fld	fs0,128(s0)
20403e24:	17fc                	addi	a5,sp,1004
20403e26:	2040                	fld	fs0,128(s0)
20403e28:	181c                	addi	a5,sp,48
20403e2a:	2040                	fld	fs0,128(s0)
20403e2c:	181c                	addi	a5,sp,48
20403e2e:	2040                	fld	fs0,128(s0)
20403e30:	181c                	addi	a5,sp,48
20403e32:	2040                	fld	fs0,128(s0)
20403e34:	181c                	addi	a5,sp,48
20403e36:	2040                	fld	fs0,128(s0)
20403e38:	18a0                	addi	s0,sp,120
20403e3a:	2040                	fld	fs0,128(s0)
20403e3c:	2d18                	fld	fa4,24(a0)
20403e3e:	2040                	fld	fs0,128(s0)
20403e40:	01b0                	addi	a2,sp,200
20403e42:	2040                	fld	fs0,128(s0)
20403e44:	0e08                	addi	a0,sp,784
20403e46:	2040                	fld	fs0,128(s0)
20403e48:	02c8                	addi	a0,sp,324
20403e4a:	2040                	fld	fs0,128(s0)
20403e4c:	0018                	0x18
20403e4e:	2040                	fld	fs0,128(s0)

20403e50 <VE_DOT8HEX>:
20403e50:	3e00                	fld	fs0,56(a2)
20403e52:	2040                	fld	fs0,128(s0)
20403e54:	0000                	unimp
20403e56:	0000                	unimp
20403e58:	2e05                	jal	20404188 <VE_ENV_FORTHVERSION+0xc>
20403e5a:	6838                	flw	fa4,80(s0)
20403e5c:	7865                	lui	a6,0xffff9
20403e5e:	aaaa                	fsd	fa0,336(sp)

20403e60 <XT_DOT8HEX>:
20403e60:	06cc                	addi	a1,sp,836
20403e62:	2040                	fld	fs0,128(s0)

20403e64 <PFA_DOT8HEX>:
20403e64:	0e08                	addi	a0,sp,784
20403e66:	2040                	fld	fs0,128(s0)
20403e68:	02b0                	addi	a2,sp,328
20403e6a:	2040                	fld	fs0,128(s0)
20403e6c:	0194                	addi	a3,sp,192
20403e6e:	2040                	fld	fs0,128(s0)
20403e70:	171c                	addi	a5,sp,928
20403e72:	2040                	fld	fs0,128(s0)
20403e74:	0c28                	addi	a0,sp,536
20403e76:	2040                	fld	fs0,128(s0)
20403e78:	17fc                	addi	a5,sp,1004
20403e7a:	2040                	fld	fs0,128(s0)
20403e7c:	181c                	addi	a5,sp,48
20403e7e:	2040                	fld	fs0,128(s0)
20403e80:	181c                	addi	a5,sp,48
20403e82:	2040                	fld	fs0,128(s0)
20403e84:	181c                	addi	a5,sp,48
20403e86:	2040                	fld	fs0,128(s0)
20403e88:	181c                	addi	a5,sp,48
20403e8a:	2040                	fld	fs0,128(s0)
20403e8c:	181c                	addi	a5,sp,48
20403e8e:	2040                	fld	fs0,128(s0)
20403e90:	181c                	addi	a5,sp,48
20403e92:	2040                	fld	fs0,128(s0)
20403e94:	181c                	addi	a5,sp,48
20403e96:	2040                	fld	fs0,128(s0)
20403e98:	181c                	addi	a5,sp,48
20403e9a:	2040                	fld	fs0,128(s0)
20403e9c:	18a0                	addi	s0,sp,120
20403e9e:	2040                	fld	fs0,128(s0)
20403ea0:	2d18                	fld	fa4,24(a0)
20403ea2:	2040                	fld	fs0,128(s0)
20403ea4:	01b0                	addi	a2,sp,200
20403ea6:	2040                	fld	fs0,128(s0)
20403ea8:	0e08                	addi	a0,sp,784
20403eaa:	2040                	fld	fs0,128(s0)
20403eac:	02c8                	addi	a0,sp,324
20403eae:	2040                	fld	fs0,128(s0)
20403eb0:	0018                	0x18
20403eb2:	2040                	fld	fs0,128(s0)

20403eb4 <VE_DUMP>:
20403eb4:	3e54                	fld	fa3,184(a2)
20403eb6:	2040                	fld	fs0,128(s0)
20403eb8:	0000                	unimp
20403eba:	0000                	unimp
20403ebc:	6404                	flw	fs1,8(s0)
20403ebe:	6d75                	lui	s10,0x1d
20403ec0:	aa70                	fsd	fa2,208(a2)
20403ec2:	aaaa                	fsd	fa0,336(sp)

20403ec4 <XT_DUMP>:
20403ec4:	06cc                	addi	a1,sp,836
20403ec6:	2040                	fld	fs0,128(s0)

20403ec8 <PFA_DUMP>:
20403ec8:	0058                	addi	a4,sp,4
20403eca:	2040                	fld	fs0,128(s0)
20403ecc:	13f4                	addi	a3,sp,492
20403ece:	2040                	fld	fs0,128(s0)
20403ed0:	fff0                	fsw	fa2,124(a5)
20403ed2:	ffff                	0xffff
20403ed4:	04a0                	addi	s0,sp,584
20403ed6:	2040                	fld	fs0,128(s0)
20403ed8:	0058                	addi	a4,sp,4
20403eda:	2040                	fld	fs0,128(s0)
20403edc:	1610                	addi	a2,sp,800
20403ede:	2040                	fld	fs0,128(s0)
20403ee0:	1524                	addi	s1,sp,680
20403ee2:	2040                	fld	fs0,128(s0)
20403ee4:	119c                	addi	a5,sp,224
20403ee6:	2040                	fld	fs0,128(s0)

20403ee8 <PFA_DUMP0>:
20403ee8:	0078                	addi	a4,sp,12
20403eea:	2040                	fld	fs0,128(s0)
20403eec:	3e60                	fld	fs0,248(a2)
20403eee:	2040                	fld	fs0,128(s0)
20403ef0:	1654                	addi	a3,sp,804
20403ef2:	2040                	fld	fs0,128(s0)
20403ef4:	13f4                	addi	a3,sp,492
20403ef6:	2040                	fld	fs0,128(s0)
20403ef8:	0010                	0x10
20403efa:	0000                	unimp
20403efc:	1524                	addi	s1,sp,680
20403efe:	2040                	fld	fs0,128(s0)
20403f00:	119c                	addi	a5,sp,224
20403f02:	2040                	fld	fs0,128(s0)

20403f04 <PFA_DUMP1>:
20403f04:	0078                	addi	a4,sp,12
20403f06:	2040                	fld	fs0,128(s0)
20403f08:	1250                	addi	a2,sp,292
20403f0a:	2040                	fld	fs0,128(s0)
20403f0c:	0e1c                	addi	a5,sp,784
20403f0e:	2040                	fld	fs0,128(s0)
20403f10:	069c                	addi	a5,sp,832
20403f12:	2040                	fld	fs0,128(s0)
20403f14:	3dc0                	fld	fs0,184(a1)
20403f16:	2040                	fld	fs0,128(s0)
20403f18:	1654                	addi	a3,sp,804
20403f1a:	2040                	fld	fs0,128(s0)
20403f1c:	11d4                	addi	a3,sp,228
20403f1e:	2040                	fld	fs0,128(s0)
20403f20:	3f04                	fld	fs1,56(a4)
20403f22:	2040                	fld	fs0,128(s0)

20403f24 <PFA_DUMP2>:
20403f24:	1654                	addi	a3,sp,804
20403f26:	2040                	fld	fs0,128(s0)
20403f28:	1654                	addi	a3,sp,804
20403f2a:	2040                	fld	fs0,128(s0)
20403f2c:	13f4                	addi	a3,sp,492
20403f2e:	2040                	fld	fs0,128(s0)
20403f30:	0010                	0x10
20403f32:	0000                	unimp
20403f34:	1524                	addi	s1,sp,680
20403f36:	2040                	fld	fs0,128(s0)
20403f38:	119c                	addi	a5,sp,224
20403f3a:	2040                	fld	fs0,128(s0)

20403f3c <PFA_DUMP3>:
20403f3c:	0078                	addi	a4,sp,12
20403f3e:	2040                	fld	fs0,128(s0)
20403f40:	1250                	addi	a2,sp,292
20403f42:	2040                	fld	fs0,128(s0)
20403f44:	0e1c                	addi	a5,sp,784
20403f46:	2040                	fld	fs0,128(s0)
20403f48:	069c                	addi	a5,sp,832
20403f4a:	2040                	fld	fs0,128(s0)
20403f4c:	3d58                	fld	fa4,184(a0)
20403f4e:	2040                	fld	fs0,128(s0)
20403f50:	10ec                	addi	a1,sp,108
20403f52:	2040                	fld	fs0,128(s0)
20403f54:	11d4                	addi	a3,sp,228
20403f56:	2040                	fld	fs0,128(s0)
20403f58:	3f3c                	fld	fa5,120(a4)
20403f5a:	2040                	fld	fs0,128(s0)

20403f5c <PFA_DUMP4>:
20403f5c:	13f4                	addi	a3,sp,492
20403f5e:	2040                	fld	fs0,128(s0)
20403f60:	0010                	0x10
20403f62:	0000                	unimp
20403f64:	0e1c                	addi	a5,sp,784
20403f66:	2040                	fld	fs0,128(s0)
20403f68:	1610                	addi	a2,sp,800
20403f6a:	2040                	fld	fs0,128(s0)

20403f6c <PFA_DUMP5>:
20403f6c:	13f4                	addi	a3,sp,492
20403f6e:	2040                	fld	fs0,128(s0)
20403f70:	0010                	0x10
20403f72:	0000                	unimp
20403f74:	11e0                	addi	s0,sp,236
20403f76:	2040                	fld	fs0,128(s0)
20403f78:	3ee8                	fld	fa0,248(a3)
20403f7a:	2040                	fld	fs0,128(s0)
20403f7c:	0038                	addi	a4,sp,8
20403f7e:	2040                	fld	fs0,128(s0)
20403f80:	0018                	0x18
20403f82:	2040                	fld	fs0,128(s0)

20403f84 <VE_CSR_ustatus>:
20403f84:	0008                	0x8
20403f86:	2040                	fld	fs0,128(s0)
20403f88:	0000                	unimp
20403f8a:	0000                	unimp
20403f8c:	74737507          	0x74737507
20403f90:	7461                	lui	s0,0xffff8
20403f92:	7375                	lui	t1,0xffffd

20403f94 <XT_CSR_ustatus>:
20403f94:	3f98                	fld	fa4,56(a5)
20403f96:	2040                	fld	fs0,128(s0)

20403f98 <PFA_CSR_ustatus>:
20403f98:	ffc20213          	addi	tp,tp,-4 # ffc <Flag_2variable+0xefa>
20403f9c:	00322023          	sw	gp,0(tp) # 0 <Flag_visible>
20403fa0:	000021f3          	csrr	gp,ustatus
20403fa4:	f34fc06f          	j	204006d8 <DO_NEXT>

20403fa8 <VE_CSR_uie>:
20403fa8:	3f88                	fld	fa0,56(a5)
20403faa:	2040                	fld	fs0,128(s0)
20403fac:	0000                	unimp
20403fae:	0000                	unimp
20403fb0:	65697503          	0x65697503

20403fb4 <XT_CSR_uie>:
20403fb4:	3fb8                	fld	fa4,120(a5)
20403fb6:	2040                	fld	fs0,128(s0)

20403fb8 <PFA_CSR_uie>:
20403fb8:	ffc20213          	addi	tp,tp,-4 # fffffffc <Flag_invisible+0xfffffffd>
20403fbc:	00322023          	sw	gp,0(tp) # 0 <Flag_visible>
20403fc0:	004021f3          	csrr	gp,uie
20403fc4:	f14fc06f          	j	204006d8 <DO_NEXT>

20403fc8 <VE_CSR_utvec>:
20403fc8:	3fac                	fld	fa1,120(a5)
20403fca:	2040                	fld	fs0,128(s0)
20403fcc:	0000                	unimp
20403fce:	0000                	unimp
20403fd0:	7505                	lui	a0,0xfffe1
20403fd2:	7674                	flw	fa3,108(a2)
20403fd4:	6365                	lui	t1,0x19
20403fd6:	f0f0                	fsw	fa2,100(s1)

20403fd8 <XT_CSR_utvec>:
20403fd8:	3fdc                	fld	fa5,184(a5)
20403fda:	2040                	fld	fs0,128(s0)

20403fdc <PFA_CSR_utvec>:
20403fdc:	ffc20213          	addi	tp,tp,-4 # fffffffc <Flag_invisible+0xfffffffd>
20403fe0:	00322023          	sw	gp,0(tp) # 0 <Flag_visible>
20403fe4:	005021f3          	csrr	gp,utvec
20403fe8:	ef0fc06f          	j	204006d8 <DO_NEXT>

20403fec <VE_CSR_uscratch>:
20403fec:	3fcc                	fld	fa1,184(a5)
20403fee:	2040                	fld	fs0,128(s0)
20403ff0:	0000                	unimp
20403ff2:	0000                	unimp
20403ff4:	7508                	flw	fa0,40(a0)
20403ff6:	61726373          	csrrsi	t1,0x617,4
20403ffa:	6374                	flw	fa3,68(a4)
20403ffc:	f068                	fsw	fa0,100(s0)
20403ffe:	f0f0                	fsw	fa2,100(s1)

20404000 <XT_CSR_uscratch>:
20404000:	4004                	lw	s1,0(s0)
20404002:	2040                	fld	fs0,128(s0)

20404004 <PFA_CSR_uscratch>:
20404004:	ffc20213          	addi	tp,tp,-4 # fffffffc <Flag_invisible+0xfffffffd>
20404008:	00322023          	sw	gp,0(tp) # 0 <Flag_visible>
2040400c:	040021f3          	csrr	gp,uscratch
20404010:	ec8fc06f          	j	204006d8 <DO_NEXT>

20404014 <VE_CSR_uepc>:
20404014:	3ff0                	fld	fa2,248(a5)
20404016:	2040                	fld	fs0,128(s0)
20404018:	0000                	unimp
2040401a:	0000                	unimp
2040401c:	7504                	flw	fs1,40(a0)
2040401e:	7065                	c.lui	zero,0xffff9
20404020:	f0f0f063          	bleu	a5,ra,20403720 <VE_GET_CURRENT+0x4>

20404024 <XT_CSR_uepc>:
20404024:	4028                	lw	a0,64(s0)
20404026:	2040                	fld	fs0,128(s0)

20404028 <PFA_CSR_uepc>:
20404028:	ffc20213          	addi	tp,tp,-4 # fffffffc <Flag_invisible+0xfffffffd>
2040402c:	00322023          	sw	gp,0(tp) # 0 <Flag_visible>
20404030:	041021f3          	csrr	gp,uepc
20404034:	ea4fc06f          	j	204006d8 <DO_NEXT>

20404038 <VE_CSR_ucause>:
20404038:	4018                	lw	a4,0(s0)
2040403a:	2040                	fld	fs0,128(s0)
2040403c:	0000                	unimp
2040403e:	0000                	unimp
20404040:	7506                	flw	fa0,96(sp)
20404042:	73756163          	bltu	a0,s7,20404764 <PFA_FORTH_WORDLIST+0x518>
20404046:	f065                	bnez	s0,20404026 <XT_CSR_uepc+0x2>

20404048 <XT_CSR_ucause>:
20404048:	404c                	lw	a1,4(s0)
2040404a:	2040                	fld	fs0,128(s0)

2040404c <PFA_CSR_ucause>:
2040404c:	ffc20213          	addi	tp,tp,-4 # fffffffc <Flag_invisible+0xfffffffd>
20404050:	00322023          	sw	gp,0(tp) # 0 <Flag_visible>
20404054:	042021f3          	csrr	gp,ucause
20404058:	e80fc06f          	j	204006d8 <DO_NEXT>

2040405c <VE_CSR_ubadaddress>:
2040405c:	403c                	lw	a5,64(s0)
2040405e:	2040                	fld	fs0,128(s0)
20404060:	0000                	unimp
20404062:	0000                	unimp
20404064:	6162750b          	0x6162750b
20404068:	6164                	flw	fs1,68(a0)
2040406a:	6464                	flw	fs1,76(s0)
2040406c:	6572                	flw	fa0,28(sp)
2040406e:	          	csrrci	t1,0x407,8

20404070 <XT_CSR_ubadaddress>:
20404070:	4074                	lw	a3,68(s0)
20404072:	2040                	fld	fs0,128(s0)

20404074 <PFA_CSR_ubadaddress>:
20404074:	ffc20213          	addi	tp,tp,-4 # fffffffc <Flag_invisible+0xfffffffd>
20404078:	00322023          	sw	gp,0(tp) # 0 <Flag_visible>
2040407c:	042021f3          	csrr	gp,ucause
20404080:	e58fc06f          	j	204006d8 <DO_NEXT>

20404084 <VE_CSR_mstatus>:
20404084:	4060                	lw	s0,68(s0)
20404086:	2040                	fld	fs0,128(s0)
20404088:	0000                	unimp
2040408a:	0000                	unimp
2040408c:	74736d07          	0x74736d07
20404090:	7461                	lui	s0,0xffff8
20404092:	7375                	lui	t1,0xffffd

20404094 <XT_CSR_mstatus>:
20404094:	4098                	lw	a4,0(s1)
20404096:	2040                	fld	fs0,128(s0)

20404098 <PFA_CSR_mstatus>:
20404098:	ffc20213          	addi	tp,tp,-4 # fffffffc <Flag_invisible+0xfffffffd>
2040409c:	00322023          	sw	gp,0(tp) # 0 <Flag_visible>
204040a0:	300021f3          	csrr	gp,mstatus
204040a4:	e34fc06f          	j	204006d8 <DO_NEXT>

204040a8 <VE_CSR_misa>:
204040a8:	4088                	lw	a0,0(s1)
204040aa:	2040                	fld	fs0,128(s0)
204040ac:	0000                	unimp
204040ae:	0000                	unimp
204040b0:	6d04                	flw	fs1,24(a0)
204040b2:	7369                	lui	t1,0xffffa
204040b4:	f061                	bnez	s0,20404074 <PFA_CSR_ubadaddress>
204040b6:	f0f0                	fsw	fa2,100(s1)

204040b8 <XT_CSR_misa>:
204040b8:	40bc                	lw	a5,64(s1)
204040ba:	2040                	fld	fs0,128(s0)

204040bc <PFA_CSR_misa>:
204040bc:	ffc20213          	addi	tp,tp,-4 # fffffffc <Flag_invisible+0xfffffffd>
204040c0:	00322023          	sw	gp,0(tp) # 0 <Flag_visible>
204040c4:	301021f3          	csrr	gp,misa
204040c8:	e10fc06f          	j	204006d8 <DO_NEXT>

204040cc <VE_CSR_mcause>:
204040cc:	40ac                	lw	a1,64(s1)
204040ce:	2040                	fld	fs0,128(s0)
204040d0:	0000                	unimp
204040d2:	0000                	unimp
204040d4:	6d06                	flw	fs10,64(sp)
204040d6:	73756163          	bltu	a0,s7,204047f8 <PFA_FORTH_WORDLIST+0x5ac>
204040da:	f065                	bnez	s0,204040ba <XT_CSR_misa+0x2>

204040dc <XT_CSR_mcause>:
204040dc:	40e0                	lw	s0,68(s1)
204040de:	2040                	fld	fs0,128(s0)

204040e0 <PFA_CSR_mcause>:
204040e0:	ffc20213          	addi	tp,tp,-4 # fffffffc <Flag_invisible+0xfffffffd>
204040e4:	00322023          	sw	gp,0(tp) # 0 <Flag_visible>
204040e8:	342021f3          	csrr	gp,mcause
204040ec:	decfc06f          	j	204006d8 <DO_NEXT>

204040f0 <VE_CSR_mcycle>:
204040f0:	40d0                	lw	a2,4(s1)
204040f2:	2040                	fld	fs0,128(s0)
204040f4:	0000                	unimp
204040f6:	0000                	unimp
204040f8:	6d06                	flw	fs10,64(sp)
204040fa:	6c637963          	bleu	t1,t1,204047cc <PFA_FORTH_WORDLIST+0x580>
204040fe:	f065                	bnez	s0,204040de <XT_CSR_mcause+0x2>

20404100 <XT_CSR_mcycle>:
20404100:	4104                	lw	s1,0(a0)
20404102:	2040                	fld	fs0,128(s0)

20404104 <PFA_CSR_mcycle>:
20404104:	ffc20213          	addi	tp,tp,-4 # fffffffc <Flag_invisible+0xfffffffd>
20404108:	00322023          	sw	gp,0(tp) # 0 <Flag_visible>
2040410c:	b00021f3          	csrr	gp,mcycle
20404110:	dc8fc06f          	j	204006d8 <DO_NEXT>

20404114 <VE_CSR_mcycleh>:
20404114:	40f4                	lw	a3,68(s1)
20404116:	2040                	fld	fs0,128(s0)
20404118:	0000                	unimp
2040411a:	0000                	unimp
2040411c:	79636d07          	0x79636d07
20404120:	68656c63          	bltu	a0,t1,204047b8 <PFA_FORTH_WORDLIST+0x56c>

20404124 <XT_CSR_mcycleh>:
20404124:	4128                	lw	a0,64(a0)
20404126:	2040                	fld	fs0,128(s0)

20404128 <PFA_CSR_mcycleh>:
20404128:	ffc20213          	addi	tp,tp,-4 # fffffffc <Flag_invisible+0xfffffffd>
2040412c:	00322023          	sw	gp,0(tp) # 0 <Flag_visible>
20404130:	b80021f3          	csrr	gp,mcycleh
20404134:	da4fc06f          	j	204006d8 <DO_NEXT>

20404138 <VE_FETCH_CYCLE>:
20404138:	3eb8                	fld	fa4,120(a3)
2040413a:	2040                	fld	fs0,128(s0)
2040413c:	0000                	unimp
2040413e:	0000                	unimp
20404140:	4006                	0x4006
20404142:	6c637963          	bleu	t1,t1,20404814 <PFA_FORTH_WORDLIST+0x5c8>
20404146:	aa65                	j	204042fe <PFA_FORTH_WORDLIST+0xb2>

20404148 <XT_FETCH_CYCLE>:
20404148:	06cc                	addi	a1,sp,836
2040414a:	2040                	fld	fs0,128(s0)

2040414c <PFA_FETCH_CYCLE>:
2040414c:	4100                	lw	s0,0(a0)
2040414e:	2040                	fld	fs0,128(s0)
20404150:	4124                	lw	s1,64(a0)
20404152:	2040                	fld	fs0,128(s0)
20404154:	0018                	0x18
20404156:	2040                	fld	fs0,128(s0)

20404158 <VE_ENV_FORTHNAME>:
20404158:	3bfc                	fld	fa5,240(a5)
2040415a:	2040                	fld	fs0,128(s0)
2040415c:	0000                	unimp
2040415e:	0000                	unimp
20404160:	6e04                	flw	fs1,24(a2)
20404162:	6d61                	lui	s10,0x18
20404164:	f065                	bnez	s0,20404144 <VE_FETCH_CYCLE+0xc>
20404166:	f0f0                	fsw	fa2,100(s1)

20404168 <XT_ENV_FORTHNAME>:
20404168:	06cc                	addi	a1,sp,836
2040416a:	2040                	fld	fs0,128(s0)

2040416c <PFA_ENV_FORTHNAME>:
2040416c:	12b4                	addi	a3,sp,360
2040416e:	2040                	fld	fs0,128(s0)
20404170:	666d6107          	0x666d6107
20404174:	6874726f          	jal	tp,2044bffa <FlashEnd+0x3bffa>
20404178:	0018                	0x18
2040417a:	2040                	fld	fs0,128(s0)

2040417c <VE_ENV_FORTHVERSION>:
2040417c:	415c                	lw	a5,4(a0)
2040417e:	2040                	fld	fs0,128(s0)
20404180:	0000                	unimp
20404182:	0000                	unimp
20404184:	72657607          	0x72657607
20404188:	6e6f6973          	csrrsi	s2,0x6e6,30

2040418c <XT_ENV_FORTHVERSION>:
2040418c:	06cc                	addi	a1,sp,836
2040418e:	2040                	fld	fs0,128(s0)

20404190 <PFA_ENV_FORTHVERSION>:
20404190:	13f4                	addi	a3,sp,492
20404192:	2040                	fld	fs0,128(s0)
20404194:	0045                	c.nop	17
20404196:	0000                	unimp
20404198:	0018                	0x18
2040419a:	2040                	fld	fs0,128(s0)

2040419c <VE_ENV_CPU>:
2040419c:	4180                	lw	s0,0(a1)
2040419e:	2040                	fld	fs0,128(s0)
204041a0:	0000                	unimp
204041a2:	0000                	unimp
204041a4:	75706303          	0x75706303

204041a8 <XT_ENV_CPU>:
204041a8:	06cc                	addi	a1,sp,836
204041aa:	2040                	fld	fs0,128(s0)

204041ac <PFA_ENV_CPU>:
204041ac:	12b4                	addi	a3,sp,360
204041ae:	2040                	fld	fs0,128(s0)
204041b0:	5206                	lw	tp,96(sp)
204041b2:	3356                	fld	ft6,368(sp)
204041b4:	4932                	lw	s2,12(sp)
204041b6:	0f4d                	addi	t5,t5,19
204041b8:	0018                	0x18
204041ba:	2040                	fld	fs0,128(s0)

204041bc <VE_ENV_SLASH_USER>:
204041bc:	41a0                	lw	s0,64(a1)
204041be:	2040                	fld	fs0,128(s0)
204041c0:	0000                	unimp
204041c2:	0000                	unimp
204041c4:	2f05                	jal	204048f4 <PFA_FORTH_WORDLIST+0x6a8>
204041c6:	7375                	lui	t1,0xffffd
204041c8:	7265                	lui	tp,0xffff9
204041ca:	f0f0                	fsw	fa2,100(s1)

204041cc <XT_ENV_SLASH_USER>:
204041cc:	06cc                	addi	a1,sp,836
204041ce:	2040                	fld	fs0,128(s0)

204041d0 <PFA_ENV_SLASH_USER>:
204041d0:	13f4                	addi	a3,sp,492
204041d2:	2040                	fld	fs0,128(s0)
204041d4:	0088                	addi	a0,sp,64
204041d6:	0000                	unimp
204041d8:	0018                	0x18
204041da:	2040                	fld	fs0,128(s0)

204041dc <VE_RISCV_WORDLIST>:
204041dc:	413c                	lw	a5,64(a0)
204041de:	2040                	fld	fs0,128(s0)
204041e0:	00a0                	addi	s0,sp,72
204041e2:	0000                	unimp
204041e4:	720e                	flw	ft4,224(sp)
204041e6:	7369                	lui	t1,0xffffa
204041e8:	772d7663          	bleu	s2,s10,20404954 <PFA_FORTH_WORDLIST+0x708>
204041ec:	6c64726f          	jal	tp,2044b8b2 <FlashEnd+0x3b8b2>
204041f0:	7369                	lui	t1,0xffffa
204041f2:	aa74                	fsd	fa3,208(a2)

204041f4 <XT_RISCV_WORDLIST>:
204041f4:	1300                	addi	s0,sp,416
204041f6:	2040                	fld	fs0,128(s0)

204041f8 <PFA_RISCV_WORDLIST>:
204041f8:	0274                	addi	a3,sp,268
204041fa:	8000                	0x8000
204041fc:	4118                	lw	a4,0(a0)
204041fe:	2040                	fld	fs0,128(s0)
20404200:	02b0                	addi	a2,sp,328
20404202:	2040                	fld	fs0,128(s0)
20404204:	02c8                	addi	a0,sp,324
20404206:	2040                	fld	fs0,128(s0)

20404208 <VE_ENVIRONMENT>:
20404208:	41e0                	lw	s0,68(a1)
2040420a:	2040                	fld	fs0,128(s0)
2040420c:	00a0                	addi	s0,sp,72
2040420e:	0000                	unimp
20404210:	766e650b          	0x766e650b
20404214:	7269                	lui	tp,0xffffa
20404216:	656d6e6f          	jal	t3,204da86c <FlashEnd+0xca86c>
2040421a:	746e                	flw	fs0,248(sp)

2040421c <XT_ENVIRONMENT>:
2040421c:	1300                	addi	s0,sp,416
2040421e:	2040                	fld	fs0,128(s0)

20404220 <PFA_ENVIRONMENT>:
20404220:	0278                	addi	a4,sp,268
20404222:	8000                	0x8000
20404224:	41c0                	lw	s0,4(a1)
20404226:	2040                	fld	fs0,128(s0)
20404228:	02b0                	addi	a2,sp,328
2040422a:	2040                	fld	fs0,128(s0)
2040422c:	02c8                	addi	a0,sp,324
2040422e:	2040                	fld	fs0,128(s0)

20404230 <VE_FORTH_WORDLIST>:
20404230:	420c                	lw	a1,0(a2)
20404232:	2040                	fld	fs0,128(s0)

20404234 <DPSTART>:
20404234:	00a0                	addi	s0,sp,72
20404236:	0000                	unimp
20404238:	660e                	flw	fa2,192(sp)
2040423a:	6874726f          	jal	tp,2044c0c0 <FlashEnd+0x3c0c0>
2040423e:	772d                	lui	a4,0xfffeb
20404240:	6c64726f          	jal	tp,2044b906 <FlashEnd+0x3b906>
20404244:	7369                	lui	t1,0xffffa
20404246:	aa74                	fsd	fa3,208(a2)

20404248 <XT_FORTH_WORDLIST>:
20404248:	1300                	addi	s0,sp,416
2040424a:	2040                	fld	fs0,128(s0)

2040424c <PFA_FORTH_WORDLIST>:
2040424c:	027c                	addi	a5,sp,268
2040424e:	8000                	0x8000
20404250:	4234                	lw	a3,64(a2)
20404252:	2040                	fld	fs0,128(s0)
20404254:	02b0                	addi	a2,sp,328
20404256:	2040                	fld	fs0,128(s0)
20404258:	02c8                	addi	a0,sp,324
2040425a:	2040                	fld	fs0,128(s0)
